(i__main__
LogFile
p0
(dp1
S'_installed_files'
p2
(dp3
S'../../../../../../../../../../offline/external/GAUDI/v20r4p5/GaudiPolicy/cmt/fragments/__init__.py'
p4
S'../../../InstallArea/python/Tauolapp_i/__init__.py'
p5
sS'../../Generators/Tauolapp_i/genConf/Tauolapp_i'
p6
(dp7
S'../../../Generators/Tauolapp_i/genConf/Tauolapp_i/Tauolapp_iConf.py'
p8
S'../../../InstallArea/python/Tauolapp_i/Tauolapp_iConf.py'
p9
sS'../../../Generators/Tauolapp_i/genConf/Tauolapp_i/Tauolapp_i_confDb.py'
p10
S'../../../InstallArea/python/Tauolapp_i/Tauolapp_i_confDb.py'
p11
ssS'../../../Generators/Tauolapp_i/i686-slc4-gcc34-opt/libTauolapp_i.so'
p12
S'../../../InstallArea/i686-slc4-gcc34-opt/lib/libTauolapp_i.so'
p13
ssb.