{
   ROOT::GenerateInitInstanceLocal( all const * )
   Memcheck:Leak
   fun:_Znwj
   fun:_ZN4ROOT25GenerateInitInstanceLocalEPK*
   fun:_Z41__static_initialization_and_destruction_0ii
   fun:_GLOBAL__I__ZN4ROOT20GenerateInitInstanceEPK*
}
{
   Reflex::FunctionTypeBuilder
   Memcheck:Leak
   fun:_Znwj
   fun:_ZN6Reflex19FunctionTypeBuilderERK*
   ...
   fun:_Z41__static_initialization_and_destruction_0ii
}
{
   Reflex::TypeBuilder
   Memcheck:Leak
   fun:_Znwj
   fun:_ZN6Reflex11TypeBuilderEPK*
   ...
   fun:_Z41__static_initialization_and_destruction_0ii
}
{
   Reflex::PointerBuilder
   Memcheck:Leak
   fun:_Znwj
   fun:_ZN6Reflex14PointerBuilderERK*
   ...
   fun:_Z41__static_initialization_and_destruction_0ii
}
{
   Reflex::PluginService::PluginService()
   Memcheck:Leak
   fun:_Znwj
   fun:_ZN6Reflex13PluginServiceC1Ev
   fun:_ZN6Reflex13PluginService8InstanceEv
   ...
   fun:_Z41__static_initialization_and_destruction_0ii
}
{
   Reflex::TypeBase::TypeBase
   Memcheck:Leak
   fun:_Znwj
   fun:_ZN6Reflex8TypeBaseC2EPK*
   fun:_ZN6Reflex5ClassC1EPK*
   fun:_ZN6Reflex16ClassBuilderImplC1EPK*
   fun:_ZN6Reflex12ClassBuilderC1EPK*
   ...
   fun:_Z41__static_initialization_and_destruction_0ii
}
{
   Reflex::TypeBase::TypeBase
   Memcheck:Leak
   fun:_Znwj
   fun:_ZN6Reflex8TypeBaseC2EPKcjNS_4TYPEERKSt9type_infoRKNS_4TypeE
   fun:_ZN6Reflex8FunctionC1ERKNS_4TypeERKSt6vectorIS1_SaIS1_EERKSt9type_infoNS_4TYPEE
   fun:_ZN6Reflex19FunctionTypeBuilderERKNS_4TypeES*_
   ...
   fun:_Z41__static_initialization_and_destruction_0ii
}
{
   Athena::Signal::handleFatal
   Memcheck:Leak
   fun:_Znwj
   fun:_ZN6Athena6Signal11handleFatalEPKciPFbiP7siginfoPvEPFviS4_S5_Ej
   fun:_ZN14AthenaServices15SetFatalHandlerEi
   fun:_ZN103_GLOBAL__N_.._i686_slc4_gcc34_dbg_dict_AthenaServices_AthenaServicesDict_gen_rflx.cpp_9D2164D3_05938A7511method_3725EPvS0_RKSt6vectorIS0_SaIS0_EES0_
   fun:_ZN4ROOT6Cintex24Method_stub_with_contextEPNS0_13StubContext_tEP8G__valuePKcP8G__parami
}
{
   Reflex::FunctionMemberTemplateInstance::FunctionMemberTemplateInstance
   Memcheck:Leak
   fun:_Znwj
   fun:_ZN6Reflex30FunctionMemberTemplateInstanceC1EPK*
   fun:_ZN6Reflex16ClassBuilderImpl17AddFunctionMemberEPKcRK*
   ...
   fun:_Z41__static_initialization_and_destruction_0ii
}
{
   Reflex::ClassBuilderImpl::AddEnum
   Memcheck:Leak
   fun:_Znwj
   fun:_ZN6Reflex16ClassBuilderImpl7AddEnumEPK*
   fun:_ZN6Reflex12ClassBuilder7AddEnumEPK*
   ...
   fun:_Z41__static_initialization_and_destruction_0ii
}
{
   Reflex::ClassBuilderImpl::AddTypedef
   Memcheck:Leak
   fun:_Znwj
   fun:_ZN6Reflex16ClassBuilderImpl10AddTypedefERK*
   fun:_ZN6Reflex12ClassBuilder10AddTypedefERK*
   ...
   fun:_Z41__static_initialization_and_destruction_0ii
}
{
   Reflex::TypeBase::TypeBase
   Memcheck:Leak
   fun:_Znwj
   fun:_ZN6Reflex8TypeBaseC2EPK*
   fun:_ZN6Reflex8FunctionC1ERK*
   fun:_ZN6Reflex19FunctionTypeBuilderERK*
   ...
   fun:_Z41__static_initialization_and_destruction_0ii
}
{
   Reflex::TypeName::TypeName
   Memcheck:Leak
   fun:_Znwj
   fun:_ZN6Reflex8TypeNameC1EPKcPNS_8TypeBaseEPKSt9type_info
   fun:_ZN6Reflex11TypeBuilderEPKcj
   ...
   fun:_Z41__static_initialization_and_destruction_0ii
}
{
   Reflex::TypeName::TypeName
   Memcheck:Leak
   fun:_Znwj
   fun:_ZN6Reflex8TypeNameC1EPKcPNS_8TypeBaseEPKSt9type_info
   fun:_ZN6Reflex8TypeBaseC2EPKc*NS_4TYPEERKSt9type_infoRKNS_4TypeE
   ...
   fun:_Z41__static_initialization_and_destruction_0ii
}
{
   Reflex::Instance::Instance()
   Memcheck:Leak
   fun:_Znwj
   fun:_ZN6Reflex8InstanceC1Ev
   fun:_Z41__static_initialization_and_destruction_0ii
   fun:_GLOBAL__I__ZN6Reflex8InstanceC2Ev
}
{
   Reflex::TypeName::TypeName
   Memcheck:Leak
   fun:_Znwj
   fun:_ZN6Reflex8TypeNameC1EPKcPNS_8TypeBaseEPKSt9type_info
   fun:_ZN6Reflex8TypeBaseC2EPKcjNS_4TYPEERKSt9type_infoRKNS_4TypeE
   fun:_ZN6Reflex7TypedefC1EPKcRKNS_4TypeENS_4TYPEES5_
   fun:_ZN6Reflex16ClassBuilderImpl10AddTypedefERKNS_4TypeEPKc
   fun:_ZN6Reflex12ClassBuilder10AddTypedefERKNS_4TypeEPKc
   ...
   fun:_Z41__static_initialization_and_destruction_0ii
}
{
   Reflex::MemberTemplateImpl::MemberTemplateImpl
   Memcheck:Leak
   fun:_Znwj
   fun:_ZN6Reflex18MemberTemplateImplC1EPKcRKNS_5ScopeERKSt6vectorISsSaISsEESA_
   fun:_ZN6Reflex30FunctionMemberTemplateInstanceC1EPKcRKNS_4TypeEPFvPvS6_RKSt6vectorIS6_SaIS6_EES6_ES6_S2_jRKNS_5ScopeE
   fun:_ZN6Reflex15FunctionBuilderC1ERKNS_4TypeEPKcPFvPvS6_RKSt6vectorIS6_SaIS6_EES6_ES6_S5_h
   ...
   fun:_Z41__static_initialization_and_destruction_0ii
}
{
   Reflex::MemberTemplateImpl::MemberTemplateImpl
   Memcheck:Leak
   fun:_Znwj
   fun:_ZN9__gnu_cxx13new_allocatorISsE8allocateEjPKv
   ...
   fun:_ZN6Reflex18MemberTemplateImplC1EPKcRKNS_5ScopeERKSt6vectorISsSaISsEESA_
   ...
   fun:_Z41__static_initialization_and_destruction_0ii
}
{
   Reflex::EnumBuilder::AddItem
   fun:_Znwj
   fun:_ZN6Reflex11EnumBuilder7AddItemEPKcl
   ...
   fun:_Z41__static_initialization_and_destruction_0ii
}
{
   Reflex::FunctionTypeBuilder
   Memcheck:Leak
   fun:_Znwj
   fun:_ZN6Reflex19FunctionTypeBuilderERKNS_4TypeE
   fun:_ZN4ROOT6Cintex21ROOTClassEnhancerInfo5SetupEv
   fun:_ZN4ROOT6Cintex17ROOTClassEnhancer5SetupEv
   fun:_ZN4ROOT6Cintex8CallbackclERKN6Reflex4TypeE
   fun:_ZN4ROOT6Cintex6Cintex6EnableEv
}
{
   Reflex::TypeTemplateImpl::TypeTemplateImpl
   Memcheck:Leak
   fun:_Znwj
   fun:_ZN9__gnu_cxx13new_allocatorISsE8allocateEjPKv
   fun:_ZNSt12_Vector_baseISsSaISsEE11_M_allocateEj
   fun:_ZNSt12_Vector_baseISsSaISsEEC2EjRKS0_
   fun:_ZNSt6vectorISsSaISsEEC1ERKS1_
   fun:_ZN6Reflex16TypeTemplateImplC1EPKcRKNS_5ScopeESt6vectorISsSaISsEES8_
   ...
   fun:_Z41__static_initialization_and_destruction_0ii
}
{
   Reflex::TypedefTypeBuilder
   Memcheck:Leak
   fun:_Znwj
   fun:_ZN6Reflex18TypedefTypeBuilderEPKcRKNS_4TypeE
   fun:_Z41__static_initialization_and_destruction_0ii
}
{
   TStringRef::GetRep
   Memcheck:Leak
   fun:_Znaj
   fun:_ZN10TStringRef6GetRepEii
   fun:_ZN7TString7ReplaceEiiPKci
   fun:_ZN7TStringaSEPKc
   fun:_ZN9TFunctionC2EPv
   fun:_ZN7TMethodC1EPvP6TClass
}
{
   TStringRef::GetRep
   Memcheck:Leak
   fun:_Znaj
   fun:_ZN10TStringRef6GetRepEii
   ...
   fun:_ZN4Cint11G__CallFunc7ExecuteEPv
}
{
   Reflex::TypeBase::TypeBase
   Memcheck:Leak
   fun:_Znwj
   fun:_ZN6Reflex8TypeBaseC2EPKcjNS_4TYPEERKSt9type_infoRKNS_4TypeE
   fun:_ZN6Reflex7TypedefC1EPKcRKNS_4TypeENS_4TYPEES5_
   fun:_ZN6Reflex18TypedefTypeBuilderEPKcRKNS_4TypeE
   fun:_Z41__static_initialization_and_destruction_0ii
}
{
   Reflex::EnumTypeBuilder
   Memcheck:Leak
   fun:_Znwj
   fun:_ZN6Reflex15EnumTypeBuilderEPKcS1_RKSt9type_infoj
   fun:_Z41__static_initialization_and_destruction_0ii
}
{
   Reflex::NamespaceBuilder::NamespaceBuilder
   Memcheck:Leak
   fun:_Znwj
   fun:_ZN6Reflex16NamespaceBuilderC1EPKc
   fun:_Z41__static_initialization_and_destruction_0ii
}
{
   Reflex::FunctionBuilder::FunctionBuilder
   Memcheck:Leak
   fun:_Znwj
   fun:_ZN6Reflex15FunctionBuilderC1ERKNS_4TypeEPKcPFvPvS6_RKSt6vectorIS6_SaIS6_EES6_ES6_S5_h
   ...
   fun:_Z41__static_initialization_and_destruction_0ii
}
{
   TCollectionProxyFactory::GenExplicitClassStreamer
   Memcheck:Leak
   fun:_Znwj
   fun:_ZN23TCollectionProxyFactory24GenExplicitClassStreamerERKN4ROOT20TCollectionProxyInfoEP6TClass
   fun:_ZN13TStreamerInfo24GenExplicitClassStreamerERKN4ROOT20TCollectionProxyInfoEP6TClass
   fun:_ZN6TClass18SetCollectionProxyERKN4ROOT20TCollectionProxyInfoE
   fun:_ZN4ROOT6Cintex21ROOTClassEnhancerInfo19Default_CreateClassEN6Reflex4TypeEPNS_17TGenericClassInfoE
   fun:_ZN4ROOT6Cintex21ROOTClassEnhancerInfo15Stub_DictionaryEPv
}
{
   Reflex::ArrayBuilder
   Memcheck:Leak
   fun:_Znwj
   fun:_ZN6Reflex12ArrayBuilderERKNS_4TypeEjRKSt9type_info
   fun:_Z41__static_initialization_and_destruction_0ii
}
{
   TStorage::ObjectAlloc
   Memcheck:Leak
   fun:_Znwj
   fun:_ZN8TStorage11ObjectAllocEj
   fun:_ZN7TObjectnwEj
   fun:_ZNK4ROOT20TQObjectInitBehavior11CreateClassEPKcsRKSt9type_infoP16TVirtualIsAProxyPFvPvR16TMemberInspectorPcES2_S2_ii
   fun:_ZN4ROOT17TGenericClassInfo8GetClassEv
}
{
   Reflex::ClassTemplateInstance::ClassTemplateInstance
   Memcheck:Leak
   fun:_Znwj
   fun:_ZN6Reflex21ClassTemplateInstanceC1EPKcjRKSt9type_infoj
   fun:_ZN6Reflex16ClassBuilderImplC1EPKcRKSt9type_infojjNS_4TYPEE
   fun:_ZN6Reflex12ClassBuilderC1EPKcRKSt9type_infojjNS_4TYPEE
   ...
   fun:_Z41__static_initialization_and_destruction_0ii
}
{
   Reflex::FunctionBuilder::FunctionBuilder
   Memcheck:Leak
   fun:_Znwj
   fun:_ZN6Reflex15FunctionBuilderC1ERKNS_4TypeEPKcPFvPvS6_RKSt6vectorIS6_SaIS6_EES6_ES6_S5_h
   ...
   fun:_Z41__static_initialization_and_destruction_0ii
}
{
   Reflex::EnumBuilder::EnumBuilder
   Memcheck:Leak
   fun:_Znwj
   fun:_ZN6Reflex11EnumBuilderC1EPKcRKSt9type_infoj
   ...
   fun:_Z41__static_initialization_and_destruction_0ii
}
{
   TCollectionProxyFactory::GenExplicitProxy
   Memcheck:Leak
   fun:_Znwj
   fun:_ZN23TCollectionProxyFactory16GenExplicitProxyERKN4ROOT20TCollectionProxyInfoEP6TClass
   fun:_ZN13TStreamerInfo16GenExplicitProxyERKN4ROOT20TCollectionProxyInfoEP6TClass
   fun:_ZN6TClass18SetCollectionProxyERKN4ROOT20TCollectionProxyInfoE
   fun:_ZN4ROOT17TGenericClassInfo8GetClassEv
   fun:_ZN4ROOT27vectorlEstringgR_DictionaryEv
}
{
   Reflex::FunctionMemberTemplateInstance::FunctionMemberTemplateInstance
   Memcheck:Leak
   fun:_Znwj
   fun:_ZN6Reflex30FunctionMemberTemplateInstanceC1EPKcRKNS_4TypeEPFvPvS6_RKSt6vectorIS6_SaIS6_EES6_ES6_S2_jRKNS_5ScopeE
   fun:_ZN6Reflex15FunctionBuilderC1ERKNS_4TypeEPKcPFvPvS6_RKSt6vectorIS6_SaIS6_EES6_ES6_S5_h
   ...
   fun:_Z41__static_initialization_and_destruction_0ii
}
{
   PyObject_Realloc
   Memcheck:Leak
   fun:realloc
   fun:PyObject_Realloc
   fun:_PyObject_GC_Resize
   fun:PyFrame_New
   fun:PyEval_EvalCodeEx
   fun:PyEval_EvalFrameEx
}
{
   THashTable::THashTable
   fun:_Znaj
   fun:_ZN10THashTableC1Eii
   fun:_ZN6TClass4InitEPKcsPKSt9type_infoP16TVirtualIsAProxyPFvPvR16TMemberInspectorPcES1_S1_iib
   fun:_ZN6TClassC1EPKcsS1_S1_iib
   fun:_ZN6TClass8GetClassEPKcbb
   ...
}
{
   TList::NewLink
   Memcheck:Leak
   fun:_Znwj
   fun:_ZN5TList7NewLinkEP7TObjectP8TObjLink
   fun:_ZN5TList7AddLastEP7TObject
   fun:_ZN5TList3AddEP7TObject
   ...
}
{
   G__savestring
   Memcheck:Leak
   fun:malloc
   fun:G__savestring
   ...
   fun:_ZN4ROOT6Cintex15CINTEnumBuilder5SetupERKN6Reflex4TypeE
   fun:_ZN4ROOT6Cintex16CINTClassBuilder15Setup_typetableEv
   fun:_ZN4ROOT6Cintex16CINTClassBuilder5SetupEv
}
{
   TCint::UpdateListOfTypes
   Memcheck:Leak
   fun:_Znwj
   fun:_ZN5TCint17UpdateListOfTypesEv
   fun:_ZN5TCint4LoadEPKcb
   fun:_ZN7TSystem4LoadEPKcS1_b
   fun:_ZN11TUnixSystem4LoadEPKcS1_b
   fun:_ZN5TROOT9LoadClassEPKcS1_b
}
{
   PyObject_Malloc
   Memcheck:Leak
   fun:malloc
   fun:PyObject_Malloc
   fun:PyString_FromString
}
{
   TStorage::ObjectAlloc
   Memcheck:Leak
   fun:_Znwj
   fun:_ZN8TStorage11ObjectAllocEj
   fun:_ZN7TObjectnwEj
   fun:_ZN4ROOT11CreateClassEPKcsRKSt9type_infoP16TVirtualIsAProxyPFvPvR16TMemberInspectorPcES1_S1_ii
   fun:_ZN4ROOT6Cintex17ROOTClassEnhancer23CreateClassForNamespaceERKSs
   fun:_ZN4ROOT6Cintex16CINTScopeBuilder5SetupERKN6Reflex5ScopeE
}
{
   Reflex::ScopeName::ScopeName
   Memcheck:Leak
   fun:_Znwj
   fun:_ZN6Reflex9ScopeNameC1EPKcPNS_9ScopeBaseE
   fun:_ZN6Reflex9ScopeBaseC2EPKcNS_4TYPEE
   ...
   fun:_Z41__static_initialization_and_destruction_0ii
}
{
   Reflex::MemberBase::MemberBase
   Memcheck:Leak
   fun:_Znwj
   fun:_ZN6Reflex10MemberBaseC2EPKcRKNS_4TypeENS_4TYPEEj
   fun:_ZN6Reflex14FunctionMemberC1EPKcRKNS_4TypeEPFvPvS6_RKSt6vectorIS6_SaIS6_EES6_ES6_S2_jNS_4TYPEE
   ...
   fun:_Z41__static_initialization_and_destruction_0ii
}
{
   Reflex::ScopeName::ScopeName
   Memcheck:Leak
   fun:_Znwj
   fun:_ZN6Reflex9ScopeNameC1EPKcPNS_9ScopeBaseE
   fun:_ZN6Reflex11TypeBuilderEPKcj
   ...
   fun:_Z41__static_initialization_and_destruction_0ii
}
{
   deflate_fast
   Memcheck:Cond
   fun:fill_window
   fun:deflate_fast
   fun:deflate
   fun:R__zip
   ...
   fun:_ZN14TDirectoryFile12WriteTObjectEPK7TObjectPKcS4_i
}
{
   IntelFastMemCmp
   Memcheck:Cond
   fun:_intel_fast_memcmp
   obj:*libnnz10.so
}
{
   Oracle
   Memcheck:Cond
   fun:CMP_CMPIntToOctetString
   ...
   fun:OCISessionBegin
}
{
   deflate_fast
   Memcheck:Cond
   fun:fill_window
   fun:deflate_fast
   fun:deflate
   fun:R__zip
   ...
   fun:_ZN14TBranchElement4FillEv
}
{   
   longest_match
   Memcheck:Cond
   fun:longest_match
   fun:deflate_fast
   fun:deflate
   fun:R__zip
   ...
   fun:_ZN4pool17RootTreeContainer14endTransactionERNS_13DbTransactionE
}
{
   pool::DbSelect
   Memcheck:Leak
   fun:_Znwj
   fun:_ZN4pool8DbSelect4nextERPNS_5TokenE
   fun:_ZN4pool17DbStorageExplorer4nextERNS_8DbSelectERPNS_5TokenE
   fun:_ZN4pool14PersistencySvc13TokenIterator4nextEv
   fun:_ZNK7PoolSvc9getTokensERKSsS1_
   ...
   fun:_ZN23EventSelectorAthenaPool10initializeEv
}
{
   ROOT::Cintex::Constructor_stub_with_context
   Memcheck:Leak
   fun:_Znwj
   fun:_ZN4ROOT6Cintex29Constructor_stub_with_contextEPNS0_13StubContext_tEP8G__valuePKcP8G__parami
   ...
   fun:_ZN22TGenCollectionStreamer11ReadObjectsEiR7TBuffer
}
{
   TStorage::ObjectAlloc
   Memcheck:Leak
   fun:_Znwj
   fun:_ZN8TStorage11ObjectAllocEj
   fun:_ZN7TObjectnwEj
   ...
   fun:_ZN6TClass8GetClassEPKcbb
}
{
   TGenCollectionProxy::Generate
   Memcheck:Leak
   fun:_Znwj
   fun:_ZNK19TGenCollectionProxy8GenerateEv
   ...
   fun:_ZNK4pool11DbContainer4loadEPNS_12DataCallBackERKSt4pairIiiEi
}
{
   TStringRef::GetRep
   Memcheck:Leak
   fun:_Znaj
   fun:_ZN10TStringRef6GetRepEii
   ...
   fun:_ZN4Cint11G__CallFunc7ExecuteEPv
}
{
   TStringRef::GetRep
   Memcheck:Leak
   fun:_Znaj
   fun:_ZN10TStringRef6GetRepEii
   ...
   fun:_ZN11TUnixSystem4LoadEPKcS1_b
}
{
   Reflex::ScopeBase::ScopeBase
   Memcheck:Leak
   fun:_Znwj
   fun:_ZN6Reflex9ScopeBaseC2EPKcNS_4TYPEE
   ...
   fun:_Z41__static_initialization_and_destruction_0ii
}
{
   Reflex::Environ
   Memcheck:Leak
   fun:_Znwj
   fun:_ZN6Reflex7EnvironIN9__gnu_cxx17__normal_iteratorIP7Muon_p5St6vectorIS3_SaIS3_EEEEE6CreateEv
   ...
   fun:_ZN16AthenaPoolCnvSvc12commitOutputERKSsb
}
   {
      __gnu_cxx::new_allocator<Reflex::Scope>::allocate(unsigned#int,#void#const*)
      Memcheck:Leak
      fun:_Znwj
      fun:_ZN9__gnu_cxx13new_allocatorIN6Reflex5ScopeEE8allocateEjPKv
      fun:_ZNSt12_Vector_baseIN6Reflex5ScopeESaIS1_EE11_M_allocateEj
      fun:_ZNSt6vectorIN6Reflex5ScopeESaIS1_EE13_M_insert_auxEN9__gnu_cxx17__normal_iteratorIPS1_S3_EERKS1_
      fun:_ZNSt6vectorIN6Reflex5ScopeESaIS1_EE9push_backERKS1_
   }
   {
      (anonymous#namespace)::CreateULongLongConverter(long)
      Memcheck:Leak
      fun:_Znwj
      fun:_ZN38_GLOBAL__N__ZN6PyROOT14gConvFactoriesE24CreateULongLongConverterEl
      fun:_ZN6PyROOT15CreateConverterERKSsl
      fun:_ZN6PyROOT13TMethodHolderINS_13TScopeAdapterENS_14TMemberAdapterEE13InitCallFunc_Ev
      fun:_ZN6PyROOT13TMethodHolderINS_13TScopeAdapterENS_14TMemberAdapterEE10InitializeEv
   }
   {
      CMP_CMPIntToFixedLenOctetStr
      Memcheck:Cond
      fun:CMP_CMPIntToOctetString
      fun:CMP_CMPIntToFixedLenOctetStr
      fun:A_X931RandomGenerateBytes
      fun:ztcr2rnd
      fun:ztcsh
   }
   {
      (anonymous#namespace)::CreateIntExecutor()
      Memcheck:Leak
      fun:_Znwj
      fun:_ZN38_GLOBAL__N__ZN6PyROOT14gExecFactoriesE17CreateIntExecutorEv
      fun:_ZN6PyROOT14CreateExecutorERKSs
      fun:_ZN6PyROOT13TMethodHolderINS_13TScopeAdapterENS_14TMemberAdapterEE13InitExecutor_ERPNS_9TExecutorE
      fun:_ZN6PyROOT13TMethodHolderINS_13TScopeAdapterENS_14TMemberAdapterEE10InitializeEv
   }
   {
      Reflex::FunctionTypeBuilder(Reflex::Type#const=,#Reflex::Type#const=,#Reflex::Type#const=,#Reflex::Type#const=)
      Memcheck:Leak
      fun:_Znwj
      fun:_ZN6Reflex19FunctionTypeBuilderERKNS_4TypeES2_S2_S2_
      fun:_ZN84_GLOBAL__N_.._i686_slc4_gcc34_dbg_dict_GaudiPython_kernel_dict.cpp_9D2164D3_B5DBB98A93__SimpleProperty_std__vector_unsignedsint__BoundedVerifier_std__vector_unsignedsint_s_s__dictEv
      fun:_ZN84_GLOBAL__N_.._i686_slc4_gcc34_dbg_dict_GaudiPython_kernel_dict.cpp_9D2164D3_B5DBB98A84_GLOBAL__N_.._i686_slc4_gcc34_dbg_dict_GaudiPython_kernel_dict.cpp_9D2164D3_B5DBB98A12DictionariesC1Ev
      fun:_Z41__static_initialization_and_destruction_0ii
   }
   {
      slfigf
      Memcheck:Leak
      fun:malloc
      fun:slfigf
      fun:lfiostd
      fun:lfiboot
      fun:lfirist
   }
   {
      TSystem::DirName(char#const*)
      Memcheck:Leak
      fun:_Znaj
      fun:_ZN7TSystem7DirNameEPKc
      fun:_ZN7TSystem4LoadEPKcS1_b
      fun:_ZN11TUnixSystem4LoadEPKcS1_b
      fun:_Z21G__G__Base2_236_0_119P8G__valuePKcP8G__parami
   }
   {
      boost::python::objects::py_function::py_function<boost::python::detail::caller<boost::python::detail::member<unsigned#int,#EventStorage::run_parameters_record>,#boost::python::default_call_policies,#boost::mpl::vector3<void,#EventStorage::run_parameters_record=,#unsigned#int#const=>#>#>(boost::python::detail::caller<boost::python::detail::member<unsigned#int,#EventStorage::run_parameters_record>,#boost::python::default_call_policies,#boost::mpl::vector3<void,#EventStorage::run_parameters_record=,#unsigned#int#const=>#>#const=)
      Memcheck:Leak
      fun:_Znwj
      fun:_ZN5boost6python7objects11py_functionC1INS0_6detail6callerINS4_6memberIjN12EventStorage21run_parameters_recordEEENS0_21default_call_policiesENS_3mpl7vector3IvRS8_RKjEEEEEERKT_
      fun:_ZN5boost6python6detail17make_function_auxINS1_6memberIjN12EventStorage21run_parameters_recordEEENS0_21default_call_policiesENS_3mpl7vector3IvRS5_RKjEEEENS0_3api6objectET_RKT0_RKT1_
      fun:_ZN5boost6python6detail22make_function_dispatchINS1_6memberIjN12EventStorage21run_parameters_recordEEENS0_21default_call_policiesENS_3mpl7vector3IvRS5_RKjEEEENS0_3api6objectET_RKT0_RKT1_N4mpl_5bool_ILb0EEE
      fun:_ZN5boost6python13make_functionINS0_6detail6memberIjN12EventStorage21run_parameters_recordEEENS0_21default_call_policiesENS_3mpl7vector3IvRS5_RKjEEEENS0_3api6objectET_RKT0_RKT1_
   }
   {
      Reflex::FunctionTypeBuilder(Reflex::Type#const=,#Reflex::Type#const=)
      Memcheck:Leak
      fun:_Znwj
      fun:_ZN6Reflex19FunctionTypeBuilderERKNS_4TypeES2_
      fun:_ZN88_GLOBAL__N_.._i686_slc4_gcc34_dbg_dict_GaudiKernel_dictionary_dict.cpp_17E02520_101EBE7850__std__vector_SmartRef_ObjectContainerBase_s__dictEv
      fun:_ZN88_GLOBAL__N_.._i686_slc4_gcc34_dbg_dict_GaudiKernel_dictionary_dict.cpp_17E02520_101EBE7888_GLOBAL__N_.._i686_slc4_gcc34_dbg_dict_GaudiKernel_dictionary_dict.cpp_17E02520_101EBE7812DictionariesC1Ev
      fun:_Z41__static_initialization_and_destruction_0ii
   }
   {
      half_richcompare
      Memcheck:Leak
      fun:malloc
      fun:half_richcompare
      fun:instance_richcompare
      fun:try_rich_compare
      fun:PyObject_RichCompare
   }
   {
      slzsetevar
      Memcheck:Leak
      fun:malloc
      fun:slzsetevar
      fun:lfvSetOHome
      fun:slpmloclfv
      fun:slpmloc
   }
   {
      TUnixSystem::Init()
      Memcheck:Leak
      fun:_Znwj
      fun:_ZN11TUnixSystem4InitEv
      fun:_ZN5TROOT10InitSystemEv
      fun:_ZN5TROOTC1EPKcS1_PPFvvE
      fun:_ZN4ROOT7GetROOTEv
   }
   {
      boost::python::objects::py_function::py_function<boost::python::detail::caller<eformat::helper::u32list#(*)(eformat::write::FullEventFragment=),#boost::python::default_call_policies,#boost::mpl::vector2<eformat::helper::u32list,#eformat::write::FullEventFragment=>#>#>(boost::python::detail::caller<eformat::helper::u32list#(*)(eformat::write::FullEventFragment=),#boost::python::default_call_policies,#boost::mpl::vector2<eformat::helper::u32list,#eformat::write::FullEventFragment=>#>#const=)
      Memcheck:Leak
      fun:_Znwj
      fun:_ZN5boost6python7objects11py_functionC1INS0_6detail6callerIPFN7eformat6helper7u32listERNS6_5write17FullEventFragmentEENS0_21default_call_policiesENS_3mpl7vector2IS8_SB_EEEEEERKT_
      fun:_ZN5boost6python6detail17make_function_auxIPFN7eformat6helper7u32listERNS3_5write17FullEventFragmentEENS0_21default_call_policiesENS_3mpl7vector2IS5_S8_EEN4mpl_4int_ILi0EEEEENS0_3api6objectET_RKT0_RKT1_RKSt4pairIPKNS1_7keywordESU_ET2_
      fun:_ZN5boost6python13make_functionIPFN7eformat6helper7u32listERNS2_5write17FullEventFragmentEENS0_21default_call_policiesENS0_6detail8keywordsILj0EEENS_3mpl7vector2IS4_S7_EEEENS0_3api6objectET_RKT0_RKT1_RKT2_
      fun:_ZN5boost6python6class_IN7eformat5write17FullEventFragmentENS0_6detail13not_specifiedES6_S6_E8def_implIS4_PFNS2_6helper7u32listERS4_ENS5_10def_helperIPKcS6_S6_S6_EEEEvPT_SG_T0_RKT1_z
   }
   {
      G__allocvariable
      Memcheck:Leak
      fun:malloc
      fun:G__allocvariable
      fun:G__letvariable
      fun:G__getexpr
      fun:G__memvar_setup
   }
   {
      G__createtemplatememfunc
      Memcheck:Leak
      fun:malloc
      fun:G__createtemplatememfunc
      fun:G__declare_template
      fun:G__exec_statement
      fun:G__loadfile
   }
   {
      boost::python::objects::py_function::py_function<boost::python::detail::caller<void#(*)(_object*,#std::basic_string<char,#std::char_traits<char>,#std::allocator<char>#>#const=,#std::basic_string<char,#std::char_traits<char>,#std::allocator<char>#>#const=,#bool),#boost::python::default_call_policies,#boost::mpl::vector5<void,#_object*,#std::basic_string<char,#std::char_traits<char>,#std::allocator<char>#>#const=,#std::basic_string<char,#std::char_traits<char>,#std::allocator<char>#>#const=,#bool>#>#>(boost::python::detail::caller<void#(*)(_object*,#std::basic_string<char,#std::char_traits<char>,#std::allocator<char>#>#const=,#std::basic_string<char,#std::char_traits<char>,#std::allocator<char>#>#const=,#bool),#boost::python::default_call_policies,#boost::mpl::vector5<void,#_object*,#std::basic_string<char,#std::char_traits<char>,#std::allocator<char>#>#const=,#std::basic_string<char,#std::char_traits<char>,#std::allocator<char>#>#const=,#bool>#>#const=)
      Memcheck:Leak
      fun:_Znwj
      fun:_ZN5boost6python7objects11py_functionC1INS0_6detail6callerIPFvP7_objectRKSsS9_bENS0_21default_call_policiesENS_3mpl7vector5IvS7_S9_S9_bEEEEEERKT_
      fun:_ZN5boost6python6detail17make_function_auxIPFvP7_objectRKSsS6_bENS0_21default_call_policiesENS_3mpl7vector5IvS4_S6_S6_bEEN4mpl_4int_ILi0EEEEENS0_3api6objectET_RKT0_RKT1_RKSt4pairIPKNS1_7keywordESS_ET2_
      fun:_ZN5boost6python6detail27make_keyword_range_functionIPFvP7_objectRKSsS6_bENS0_21default_call_policiesEEENS0_3api6objectET_RKT0_RKSt4pairIPKNS1_7keywordESJ_E
      fun:_ZN5boost6python6detail30make_keyword_range_constructorINS_3mpl7vector3IRKSsS6_bEENS3_4sizeIS7_EENS0_7objects12value_holderIN7eformat6helper9StreamTagEEENS0_21default_call_policiesEEENS0_3api6objectERKT2_RKSt4pairIPKNS1_7keywordESP_EPT1_PT_PT0_
   }
   {
      ROOT::Cintex::ROOTClassEnhancerInfo::CreateInfo()
      Memcheck:Leak
      fun:_Znwj
      fun:_ZN4ROOT6Cintex21ROOTClassEnhancerInfo10CreateInfoEv
      fun:_ZN4ROOT6Cintex17ROOTClassEnhancer10CreateInfoEv
      fun:_ZN4ROOT6Cintex8CallbackclERKN6Reflex4TypeE
      fun:_ZN6Reflex17FireClassCallbackERKNS_4TypeE
   }
   {
      lfirist
      Memcheck:Leak
      fun:malloc
      fun:lfirist
      fun:lpminitm
      fun:lpminit
      fun:LhtIntCreate
   }
   {
      ROOT::Cintex::CINTClassBuilder::Get(Reflex::Type#const=)
      Memcheck:Leak
      fun:_Znwj
      fun:_ZN4ROOT6Cintex16CINTClassBuilder3GetERKN6Reflex4TypeE
      fun:_ZN55_GLOBAL__N_cint_cintex_src_Cintex.cxx_EF105EC1_30BF528113Cintex_dict_tC1Ev
      fun:_Z41__static_initialization_and_destruction_0ii
      fun:_GLOBAL__I__ZN55_GLOBAL__N_cint_cintex_src_Cintex.cxx_EF105EC1_30BF528132Declare_additional_CINT_typedefsEv
   }
   {
      ROOT::TCollectionProxyInfo::Environ<__gnu_cxx::__normal_iterator<double*,#std::vector<double,#std::allocator<double>#>#>#>::Create()
      Memcheck:Leak
      fun:_Znwj
      fun:_ZN4ROOT20TCollectionProxyInfo7EnvironIN9__gnu_cxx17__normal_iteratorIPdSt6vectorIdSaIdEEEEE6CreateEv
      fun:_ZNK19TGenCollectionProxy7Method06invokeEv
      fun:_ZN19TGenCollectionProxy9PushProxyEPv
      fun:_ZN23TVirtualCollectionProxy8TPushPopC1EPS_Pv
   }
   {
      boost::python::objects::py_function::py_function<boost::python::detail::caller<std::vector<eformat::helper::StreamTag,#std::allocator<eformat::helper::StreamTag>#>#(*)(eformat::FullEventFragment<unsigned#int#const*>#const=),#boost::python::default_call_policies,#boost::mpl::vector2<std::vector<eformat::helper::StreamTag,#std::allocator<eformat::helper::StreamTag>#>,#eformat::FullEventFragment<unsigned#int#const*>#const=>#>#>(boost::python::detail::caller<std::vector<eformat::helper::StreamTag,#std::allocator<eformat::helper::StreamTag>#>#(*)(eformat::FullEventFragment<unsigned#int#const*>#const=),#boost::python::default_call_policies,#boost::mpl::vector2<std::vector<eformat::helper::StreamTag,#std::allocator<eformat::helper::StreamTag>#>,#eformat::FullEventFragment<unsigned#int#const*>#const=>#>#const=)
      Memcheck:Leak
      fun:_Znwj
      fun:_ZN5boost6python7objects11py_functionC1INS0_6detail6callerIPFSt6vectorIN7eformat6helper9StreamTagESaIS9_EERKNS7_17FullEventFragmentIPKjEEENS0_21default_call_policiesENS_3mpl7vector2ISB_SH_EEEEEERKT_
      fun:_ZN5boost6python6detail17make_function_auxIPFSt6vectorIN7eformat6helper9StreamTagESaIS6_EERKNS4_17FullEventFragmentIPKjEEENS0_21default_call_policiesENS_3mpl7vector2IS8_SE_EEN4mpl_4int_ILi0EEEEENS0_3api6objectET_RKT0_RKT1_RKSt4pairIPKNS1_7keywordES10_ET2_
      fun:_ZN5boost6python13make_functionIPFSt6vectorIN7eformat6helper9StreamTagESaIS5_EERKNS3_17FullEventFragmentIPKjEEENS0_21default_call_policiesENS0_6detail8keywordsILj0EEENS_3mpl7vector2IS7_SD_EEEENS0_3api6objectET_RKT0_RKT1_RKT2_
      fun:_ZN5boost6python6class_IN7eformat17FullEventFragmentIPKjEENS_10shared_ptrIS6_EENS0_5basesINS2_6HeaderIS5_EEN4mpl_5void_ESD_SD_SD_SD_SD_SD_SD_SD_EENS0_6detail13not_specifiedEE8def_implIS6_PFSt6vectorINS2_6helper9StreamTagESaISL_EERKS6_ENSF_10def_helperIPKcSG_SG_SG_EEEEvPT_SU_T0_RKT1_z
   }
   {
      __gnu_cxx::new_allocator<Property#const*>::allocate(unsigned#int,#void#const*)
      Memcheck:Leak
      fun:_Znwj
      fun:_ZN9__gnu_cxx13new_allocatorIPK8PropertyE8allocateEjPKv
      fun:_ZNSt12_Vector_baseIPK8PropertySaIS2_EE11_M_allocateEj
      fun:_ZNSt6vectorIPK8PropertySaIS2_EE13_M_insert_auxEN9__gnu_cxx17__normal_iteratorIPS2_S4_EERKS2_
      fun:_ZNSt6vectorIPK8PropertySaIS2_EE9push_backERKS2_
   }
   {
      G__search_typename
      Memcheck:Leak
      fun:malloc
      fun:G__search_typename
      fun:G__search_typename2
      fun:_ZN4ROOT6Cintex18CINTTypedefBuilder5SetupERKN6Reflex4TypeE
      fun:_ZN4ROOT6Cintex16CINTClassBuilder15Setup_typetableEv
   }
   {
      TCollectionProxyFactory::GenExplicitProxy(ROOT::TCollectionProxyInfo#const=,#TClass*)
      Memcheck:Leak
      fun:_Znwj
      fun:_ZN23TCollectionProxyFactory16GenExplicitProxyERKN4ROOT20TCollectionProxyInfoEP6TClass
      fun:_ZN13TStreamerInfo16GenExplicitProxyERKN4ROOT20TCollectionProxyInfoEP6TClass
      fun:_ZN6TClass18SetCollectionProxyERKN4ROOT20TCollectionProxyInfoE
      fun:_ZN4pool11createClassEN6Reflex4TypeEPN4ROOT17TGenericClassInfoE
   }
   {
      nlhtnsl
      Memcheck:Leak
      fun:calloc
      fun:nlhtnsl
      fun:nlhthnew
      fun:nlhthnewWDup
      fun:nsgblini
   }
   {
      boost::python::objects::py_function::py_function<boost::python::detail::caller<EventStorage::DWError#(EventStorage::DataWriter::*)(unsigned#int),#boost::python::default_call_policies,#boost::mpl::vector3<EventStorage::DWError,#EventStorage::DataWriter=,#unsigned#int>#>#>(boost::python::detail::caller<EventStorage::DWError#(EventStorage::DataWriter::*)(unsigned#int),#boost::python::default_call_policies,#boost::mpl::vector3<EventStorage::DWError,#EventStorage::DataWriter=,#unsigned#int>#>#const=)
      Memcheck:Leak
      fun:_Znwj
      fun:_ZN5boost6python7objects11py_functionC1INS0_6detail6callerIMN12EventStorage10DataWriterEFNS6_7DWErrorEjENS0_21default_call_policiesENS_3mpl7vector3IS8_RS7_jEEEEEERKT_
      fun:_ZN5boost6python6detail17make_function_auxIMN12EventStorage10DataWriterEFNS3_7DWErrorEjENS0_21default_call_policiesENS_3mpl7vector3IS5_RS4_jEEN4mpl_4int_ILi0EEEEENS0_3api6objectET_RKT0_RKT1_RKSt4pairIPKNS1_7keywordESS_ET2_
      fun:_ZN5boost6python13make_functionIMN12EventStorage10DataWriterEFNS2_7DWErrorEjENS0_21default_call_policiesENS0_6detail8keywordsILj0EEENS_3mpl7vector3IS4_RS3_jEEEENS0_3api6objectET_RKT0_RKT1_RKT2_
      fun:_ZN5boost6python6class_IN12EventStorage10DataWriterENS_12noncopyable_11noncopyableENS0_6detail13not_specifiedES7_E8def_implIS3_MS3_FNS2_7DWErrorEjENS6_10def_helperIPKcS7_S7_S7_EEEEvPT_SF_T0_RKT1_z
   }
   {
      G__checkIfOnlyFunction
      Memcheck:Leak
      fun:malloc
      fun:G__checkIfOnlyFunction
      fun:G__loadfile
      fun:G__loadsystemfile
      fun:_ZN5TCint4LoadEPKcb
   }
   {
      PyObject_Malloc
      Memcheck:Leak
      fun:malloc
      fun:PyObject_Malloc
      fun:PyString_FromString
      fun:PyType_Ready
      fun:PyType_Ready
   }
   {
      Reflex::PointerBuilder(Reflex::Type#const=,#std::type_info#const=)
      Memcheck:Leak
      fun:_Znwj
      fun:_ZN6Reflex14PointerBuilderERKNS_4TypeERKSt9type_info
      fun:_ZN6Reflex13TypeDistillerIP10IAlgorithmE3GetEv
      fun:_ZN6Reflex17FunctionDistillerIFP10IAlgorithmSsP11ISvcLocatorEE3GetEv
      fun:_ZN60_GLOBAL__N_.._src_ToyNextPassFilterAlg.cxx_EF105EC1_348EAF1526ToyNextPassFilterAlg_dict5C1Ev
   }
   {
      G__savestring
      Memcheck:Leak
      fun:malloc
      fun:G__savestring
      fun:G__make_ifunctable
      fun:G__define_var
      fun:G__exec_statement
   }
   {
      boost::python::objects::py_function::py_function<boost::python::detail::caller<std::map<eformat::helper::SourceIdentifier,#eformat::ROBFragment<unsigned#int#const*>,#std::less<eformat::helper::SourceIdentifier>,#std::allocator<std::pair<eformat::helper::SourceIdentifier#const,#eformat::ROBFragment<unsigned#int#const*>#>#>#>*#(*)(eformat::FullEventFragment<unsigned#int#const*>#const=),#boost::python::return_value_policy<boost::python::manage_new_object,#boost::python::with_custodian_and_ward_postcall<0u,#1u,#boost::python::default_call_policies>#>,#boost::mpl::vector2<std::map<eformat::helper::SourceIdentifier,#eformat::ROBFragment<unsigned#int#const*>,#std::less<eformat::helper::SourceIdentifier>,#std::allocator<std::pair<eformat::helper::SourceIdentifier#const,#eformat::ROBFragment<unsigned#int#const*>#>#>#>*,#eformat::FullEventFragment<unsigned#int#const*>#const=>#>#>(boost::python::detail::caller<std::map<eformat::helper::SourceIdentifier,#eformat::ROBFragment<unsigned#int#const*>,#std::less<eformat::helper::SourceIdentifier>,#std::allocator<std::pair<eformat::helper::SourceIdentifier#const,#eformat::ROBFragment<unsigned#int#const*>#>#>#>*#(*)(eformat::FullEventFragment<unsigned#int#const*>#const=),#boost::python::return_value_policy<boost::python::manage_new_object,#boost::python::with_custodian_and_ward_postcall<0u,#1u,#boost::python::default_call_policies>#>,#boost::mpl::vector2<std::map<eformat::helper::SourceIdentifier,#eformat::ROBFragment<unsigned#int#const*>,#std::less<eformat::helper::SourceIdentifier>,#std::allocator<std::pair<eformat::helper::SourceIdentifier#const,#eformat::ROBFragment<unsigned#int#const*>#>#>#>*,#eformat::FullEventFragment<unsigned#int#const*>#const=>#>#const=)
      Memcheck:Leak
      fun:_Znwj
      fun:_ZN5boost6python7objects11py_functionC1INS0_6detail6callerIPFPSt3mapIN7eformat6helper16SourceIdentifierENS7_11ROBFragmentIPKjEESt4lessIS9_ESaISt4pairIKS9_SD_EEERKNS7_17FullEventFragmentISC_EEENS0_19return_value_policyINS0_17manage_new_objectENS0_32with_custodian_and_ward_postcallILj0ELj1ENS0_21default_call_policiesEEEEENS_3mpl7vector2ISL_SP_EEEEEERKT_
      fun:_ZN5boost6python6detail17make_function_auxIPFPSt3mapIN7eformat6helper16SourceIdentifierENS4_11ROBFragmentIPKjEESt4lessIS6_ESaISt4pairIKS6_SA_EEERKNS4_17FullEventFragmentIS9_EEENS0_19return_value_policyINS0_17manage_new_objectENS0_32with_custodian_and_ward_postcallILj0ELj1ENS0_21default_call_policiesEEEEENS_3mpl7vector2ISI_SM_EEN4mpl_4int_ILi0EEEEENS0_3api6objectET_RKT0_RKT1_RKSD_IPKNS1_7keywordES1C_ET2_
      fun:_ZN5boost6python13make_functionIPFPSt3mapIN7eformat6helper16SourceIdentifierENS3_11ROBFragmentIPKjEESt4lessIS5_ESaISt4pairIKS5_S9_EEERKNS3_17FullEventFragmentIS8_EEENS0_19return_value_policyINS0_17manage_new_objectENS0_32with_custodian_and_ward_postcallILj0ELj1ENS0_21default_call_policiesEEEEENS0_6detail8keywordsILj0EEENS_3mpl7vector2ISH_SL_EEEENS0_3api6objectET_RKT0_RKT1_RKT2_
      fun:_ZN5boost6python6class_IN7eformat17FullEventFragmentIPKjEENS_10shared_ptrIS6_EENS0_5basesINS2_6HeaderIS5_EEN4mpl_5void_ESD_SD_SD_SD_SD_SD_SD_SD_EENS0_6detail13not_specifiedEE8def_implIS6_PFPSt3mapINS2_6helper16SourceIdentifierENS2_11ROBFragmentIS5_EESt4lessISL_ESaISt4pairIKSL_SN_EEERKS6_ENSF_10def_helperINS0_19return_value_policyINS0_17manage_new_objectENS0_32with_custodian_and_ward_postcallILj0ELj1ENS0_21default_call_policiesEEEEESG_SG_SG_EEEEvPT_PKcT0_RKT1_z
   }
   {
      int#PyROOT::BuildRootClassDict<PyROOT::TScopeAdapter,#PyROOT::TBaseAdapter,#PyROOT::TMemberAdapter>(PyROOT::TScopeAdapter#const=,#_object*)
      Memcheck:Leak
      fun:_Znwj
      fun:_ZN6PyROOT18BuildRootClassDictINS_13TScopeAdapterENS_12TBaseAdapterENS_14TMemberAdapterEEEiRKT_P7_object
      fun:_ZN6PyROOT23MakeRootClassFromStringINS_13TScopeAdapterENS_12TBaseAdapterENS_14TMemberAdapterEEEP7_objectRKSsS5_
      fun:_ZN6PyROOT19BuildRootClassBasesINS_13TScopeAdapterENS_12TBaseAdapterENS_14TMemberAdapterEEEP7_objectRKT_
      fun:_ZN6PyROOT23MakeRootClassFromStringINS_13TScopeAdapterENS_12TBaseAdapterENS_14TMemberAdapterEEEP7_objectRKSsS5_
   }
   {
      boost::python::objects::py_function::py_function<boost::python::detail::caller<void#(*)(std::map<eformat::helper::SourceIdentifier,#eformat::ROBFragment<unsigned#int#const*>,#std::less<eformat::helper::SourceIdentifier>,#std::allocator<std::pair<eformat::helper::SourceIdentifier#const,#eformat::ROBFragment<unsigned#int#const*>#>#>#>=,#_object*,#_object*),#boost::python::default_call_policies,#boost::mpl::vector4<void,#std::map<eformat::helper::SourceIdentifier,#eformat::ROBFragment<unsigned#int#const*>,#std::less<eformat::helper::SourceIdentifier>,#std::allocator<std::pair<eformat::helper::SourceIdentifier#const,#eformat::ROBFragment<unsigned#int#const*>#>#>#>=,#_object*,#_object*>#>#>(boost::python::detail::caller<void#(*)(std::map<eformat::helper::SourceIdentifier,#eformat::ROBFragment<unsigned#int#const*>,#std::less<eformat::helper::SourceIdentifier>,#std::allocator<std::pair<eformat::helper::SourceIdentifier#const,#eformat::ROBFragment<unsigned#int#const*>#>#>#>=,#_object*,#_object*),#boost::python::default_call_policies,#boost::mpl::vector4<void,#std::map<eformat::helper::SourceIdentifier,#eformat::ROBFragment<unsigned#int#const*>,#std::less<eformat::helper::SourceIdentifier>,#std::allocator<std::pair<eformat::helper::SourceIdentifier#const,#eformat::ROBFragment<unsigned#int#const*>#>#>#>=,#_object*,#_object*>#>#const=)
      Memcheck:Leak
      fun:_Znwj
      fun:_ZN5boost6python7objects11py_functionC1INS0_6detail6callerIPFvRSt3mapIN7eformat6helper16SourceIdentifierENS7_11ROBFragmentIPKjEESt4lessIS9_ESaISt4pairIKS9_SD_EEEP7_objectSN_ENS0_21default_call_policiesENS_3mpl7vector4IvSL_SN_SN_EEEEEERKT_
      fun:_ZN5boost6python6detail17make_function_auxIPFvRSt3mapIN7eformat6helper16SourceIdentifierENS4_11ROBFragmentIPKjEESt4lessIS6_ESaISt4pairIKS6_SA_EEEP7_objectSK_ENS0_21default_call_policiesENS_3mpl7vector4IvSI_SK_SK_EEN4mpl_4int_ILi0EEEEENS0_3api6objectET_RKT0_RKT1_RKSD_IPKNS1_7keywordES15_ET2_
      fun:_ZN5boost6python13make_functionIPFvRSt3mapIN7eformat6helper16SourceIdentifierENS3_11ROBFragmentIPKjEESt4lessIS5_ESaISt4pairIKS5_S9_EEEP7_objectSJ_ENS0_21default_call_policiesENS0_6detail8keywordsILj0EEENS_3mpl7vector4IvSH_SJ_SJ_EEEENS0_3api6objectET_RKT0_RKT1_RKT2_
      fun:_ZN5boost6python6class_ISt3mapIN7eformat6helper16SourceIdentifierENS3_11ROBFragmentIPKjEESt4lessIS5_ESaISt4pairIKS5_S9_EEENS0_6detail13not_specifiedESI_SI_E8def_implISG_PFvRSG_P7_objectSN_ENSH_10def_helperIPKcSI_SI_SI_EEEEvPT_SS_T0_RKT1_z
   }
   {
      __static_initialization_and_destruction_0(int,#int)
      Memcheck:Leak
      fun:_Znwj
      fun:_Z41__static_initialization_and_destruction_0ii
      fun:_GLOBAL__I__ZN6TLimit7fgTableE
      obj:/afs/cern.ch/sw/lcg/app/releases/ROOT/5.22.00d/slc4_ia32_gcc34_dbg/root/lib/libHist.so
      obj:/afs/cern.ch/sw/lcg/app/releases/ROOT/5.22.00d/slc4_ia32_gcc34_dbg/root/lib/libHist.so
   }
   {
      PyArena_New
      Memcheck:Leak
      fun:malloc
      fun:PyArena_New
      fun:PyRun_FileExFlags
      fun:PyRun_SimpleFileExFlags
      fun:PyRun_AnyFileExFlags
   }
   {
      ROOT::Cintex::Constructor_stub_with_context(ROOT::Cintex::StubContext_t*,#G__value*,#char#const*,#G__param*,#int)
      Memcheck:Leak
      fun:_Znwj
      fun:_ZN4ROOT6Cintex29Constructor_stub_with_contextEPNS0_13StubContext_tEP8G__valuePKcP8G__parami
      obj:*
      fun:_ZN4Cint11G__CallFunc7ExecuteEPv
      fun:_ZN4Cint11G__CallFunc7ExecIntEPv
   }
   {
      G__loadfile
      Memcheck:Leak
      fun:malloc
      fun:G__loadfile
      fun:G__process_cmd
      fun:_ZN5TCint11ProcessLineEPKcPN12TInterpreter10EErrorCodeE
      fun:_ZN5TCint16ProcessLineSynchEPKcPN12TInterpreter10EErrorCodeE
   }
   {
      boost::python::objects::py_function::py_function<boost::python::detail::caller<bool#(EventStorage::DataWriter::*)(),#boost::python::default_call_policies,#boost::mpl::vector2<bool,#EventStorage::DataWriter=>#>#>(boost::python::detail::caller<bool#(EventStorage::DataWriter::*)(),#boost::python::default_call_policies,#boost::mpl::vector2<bool,#EventStorage::DataWriter=>#>#const=)
      Memcheck:Leak
      fun:_Znwj
      fun:_ZN5boost6python7objects11py_functionC1INS0_6detail6callerIMN12EventStorage10DataWriterEFbvENS0_21default_call_policiesENS_3mpl7vector2IbRS7_EEEEEERKT_
      fun:_ZN5boost6python6detail17make_function_auxIMN12EventStorage10DataWriterEFbvENS0_21default_call_policiesENS_3mpl7vector2IbRS4_EEN4mpl_4int_ILi0EEEEENS0_3api6objectET_RKT0_RKT1_RKSt4pairIPKNS1_7keywordESR_ET2_
      fun:_ZN5boost6python13make_functionIMN12EventStorage10DataWriterEFbvENS0_21default_call_policiesENS0_6detail8keywordsILj0EEENS_3mpl7vector2IbRS3_EEEENS0_3api6objectET_RKT0_RKT1_RKT2_
      fun:_ZN5boost6python6class_IN12EventStorage10DataWriterENS_12noncopyable_11noncopyableENS0_6detail13not_specifiedES7_E8def_implIS3_MS3_FbvENS6_10def_helperIPKcS7_S7_S7_EEEEvPT_SE_T0_RKT1_z
   }
   {
      PyObject_Realloc
      Memcheck:Leak
      fun:realloc
      fun:PyObject_Realloc
      fun:_PyObject_GC_Resize
      fun:PyFrame_New
      fun:PyEval_EvalFrameEx
   }
   {
      boost::python::objects::py_function::py_function<boost::python::detail::caller<unsigned#int#(eformat::helper::u32slice::*)(long)#const,#boost::python::default_call_policies,#boost::mpl::vector3<unsigned#int,#eformat::helper::u32slice=,#long>#>#>(boost::python::detail::caller<unsigned#int#(eformat::helper::u32slice::*)(long)#const,#boost::python::default_call_policies,#boost::mpl::vector3<unsigned#int,#eformat::helper::u32slice=,#long>#>#const=)
      Memcheck:Leak
      fun:_Znwj
      fun:_ZN5boost6python7objects11py_functionC1INS0_6detail6callerIMN7eformat6helper8u32sliceEKFjlENS0_21default_call_policiesENS_3mpl7vector3IjRS8_lEEEEEERKT_
      fun:_ZN5boost6python6detail17make_function_auxIMN7eformat6helper8u32sliceEKFjlENS0_21default_call_policiesENS_3mpl7vector3IjRS5_lEEN4mpl_4int_ILi0EEEEENS0_3api6objectET_RKT0_RKT1_RKSt4pairIPKNS1_7keywordESS_ET2_
      fun:_ZN5boost6python13make_functionIMN7eformat6helper8u32sliceEKFjlENS0_21default_call_policiesENS0_6detail8keywordsILj0EEENS_3mpl7vector3IjRS4_lEEEENS0_3api6objectET_RKT0_RKT1_RKT2_
      fun:_ZN5boost6python6class_IN7eformat6helper8u32sliceENS0_6detail13not_specifiedES6_S6_E8def_implIS4_MS4_KFjlENS5_10def_helperIPKcS6_S6_S6_EEEEvPT_SD_T0_RKT1_z
   }
   {
      __gnu_cxx::new_allocator<std::_Rb_tree_node<std::basic_string<char,#std::char_traits<char>,#std::allocator<char>#>#>#>::allocate(unsigned#int,#void#const*)
      Memcheck:Leak
      fun:_Znwj
      fun:_ZN9__gnu_cxx13new_allocatorISt13_Rb_tree_nodeISsEE8allocateEjPKv
      fun:_ZNSt8_Rb_treeISsSsSt9_IdentityISsESt4lessISsESaISsEE11_M_get_nodeEv
      fun:_ZNSt8_Rb_treeISsSsSt9_IdentityISsESt4lessISsESaISsEE14_M_create_nodeERKSs
      fun:_ZNSt8_Rb_treeISsSsSt9_IdentityISsESt4lessISsESaISsEE9_M_insertEPSt18_Rb_tree_node_baseS7_RKSs
   }
   {
      boost::python::objects::py_function::py_function<boost::python::detail::caller<boost::python::api::object#(*)(std::pair<eformat::helper::SourceIdentifier#const,#eformat::ROBFragment<unsigned#int#const*>#>#const=),#boost::python::default_call_policies,#boost::mpl::vector2<boost::python::api::object,#std::pair<eformat::helper::SourceIdentifier#const,#eformat::ROBFragment<unsigned#int#const*>#>#const=>#>#>(boost::python::detail::caller<boost::python::api::object#(*)(std::pair<eformat::helper::SourceIdentifier#const,#eformat::ROBFragment<unsigned#int#const*>#>#const=),#boost::python::default_call_policies,#boost::mpl::vector2<boost::python::api::object,#std::pair<eformat::helper::SourceIdentifier#const,#eformat::ROBFragment<unsigned#int#const*>#>#const=>#>#const=)
      Memcheck:Leak
      fun:_Znwj
      fun:_ZN5boost6python7objects11py_functionC1INS0_6detail6callerIPFNS0_3api6objectERKSt4pairIKN7eformat6helper16SourceIdentifierENS9_11ROBFragmentIPKjEEEENS0_21default_call_policiesENS_3mpl7vector2IS7_SJ_EEEEEERKT_
      fun:_ZN5boost6python6detail17make_function_auxIPFNS0_3api6objectERKSt4pairIKN7eformat6helper16SourceIdentifierENS6_11ROBFragmentIPKjEEEENS0_21default_call_policiesENS_3mpl7vector2IS4_SG_EEN4mpl_4int_ILi0EEEEES4_T_RKT0_RKT1_RKS5_IPKNS1_7keywordESZ_ET2_
      fun:_ZN5boost6python13make_functionIPFNS0_3api6objectERKSt4pairIKN7eformat6helper16SourceIdentifierENS5_11ROBFragmentIPKjEEEENS0_21default_call_policiesENS0_6detail8keywordsILj0EEENS_3mpl7vector2IS3_SF_EEEES3_T_RKT0_RKT1_RKT2_
      fun:_ZN5boost6python6class_ISt4pairIKN7eformat6helper16SourceIdentifierENS3_11ROBFragmentIPKjEEENS0_6detail13not_specifiedESD_SD_E8def_implISB_PFNS0_3api6objectERKSB_ENSC_10def_helperIPKcSD_SD_SD_EEEEvPT_SO_T0_RKT1_z
   }
   {
      boost::python::objects::py_function::py_function<boost::python::detail::caller<std::basic_string<char,#std::char_traits<char>,#std::allocator<char>#>#(*)(eformat::HeaderMarker#const=),#boost::python::default_call_policies,#boost::mpl::vector2<std::basic_string<char,#std::char_traits<char>,#std::allocator<char>#>,#eformat::HeaderMarker#const=>#>#>(boost::python::detail::caller<std::basic_string<char,#std::char_traits<char>,#std::allocator<char>#>#(*)(eformat::HeaderMarker#const=),#boost::python::default_call_policies,#boost::mpl::vector2<std::basic_string<char,#std::char_traits<char>,#std::allocator<char>#>,#eformat::HeaderMarker#const=>#>#const=)
      Memcheck:Leak
      fun:_Znwj
      fun:_ZN5boost6python7objects11py_functionC1INS0_6detail6callerIPFSsRKN7eformat12HeaderMarkerEENS0_21default_call_policiesENS_3mpl7vector2ISsS9_EEEEEERKT_
      fun:_ZN5boost6python6detail17make_function_auxIPFSsRKN7eformat12HeaderMarkerEENS0_21default_call_policiesENS_3mpl7vector2ISsS6_EEEENS0_3api6objectET_RKT0_RKT1_
      fun:_ZN5boost6python13make_functionIPFSsRKN7eformat12HeaderMarkerEEEENS0_3api6objectET_
      fun:_ZN5boost6python6detail14make_function1IPFSsRKN7eformat12HeaderMarkerEEEENS0_3api6objectET_z
   }
   {
      ROOT::TCollectionProxyInfo::Environ<__gnu_cxx::__normal_iterator<char*,#std::vector<char,#std::allocator<char>#>#>#>::Create()
      Memcheck:Leak
      fun:_Znwj
      fun:_ZN4ROOT20TCollectionProxyInfo7EnvironIN9__gnu_cxx17__normal_iteratorIPcSt6vectorIcSaIcEEEEE6CreateEv
      fun:_ZNK19TGenCollectionProxy7Method06invokeEv
      fun:_ZN19TGenCollectionProxy9PushProxyEPv
      fun:_ZN23TVirtualCollectionProxy8TPushPopC1EPS_Pv
   }
   {
      boost::python::objects::py_function::py_function<boost::python::detail::caller<std::vector<eformat::helper::StreamTag,#std::allocator<eformat::helper::StreamTag>#>#(*)(eformat::write::FullEventFragment#const=),#boost::python::default_call_policies,#boost::mpl::vector2<std::vector<eformat::helper::StreamTag,#std::allocator<eformat::helper::StreamTag>#>,#eformat::write::FullEventFragment#const=>#>#>(boost::python::detail::caller<std::vector<eformat::helper::StreamTag,#std::allocator<eformat::helper::StreamTag>#>#(*)(eformat::write::FullEventFragment#const=),#boost::python::default_call_policies,#boost::mpl::vector2<std::vector<eformat::helper::StreamTag,#std::allocator<eformat::helper::StreamTag>#>,#eformat::write::FullEventFragment#const=>#>#const=)
      Memcheck:Leak
      fun:_Znwj
      fun:_ZN5boost6python7objects11py_functionC1INS0_6detail6callerIPFSt6vectorIN7eformat6helper9StreamTagESaIS9_EERKNS7_5write17FullEventFragmentEENS0_21default_call_policiesENS_3mpl7vector2ISB_SF_EEEEEERKT_
      fun:_ZN5boost6python6detail17make_function_auxIPFSt6vectorIN7eformat6helper9StreamTagESaIS6_EERKNS4_5write17FullEventFragmentEENS0_21default_call_policiesENS_3mpl7vector2IS8_SC_EEN4mpl_4int_ILi0EEEEENS0_3api6objectET_RKT0_RKT1_RKSt4pairIPKNS1_7keywordESY_ET2_
      fun:_ZN5boost6python13make_functionIPFSt6vectorIN7eformat6helper9StreamTagESaIS5_EERKNS3_5write17FullEventFragmentEENS0_21default_call_policiesENS0_6detail8keywordsILj0EEENS_3mpl7vector2IS7_SB_EEEENS0_3api6objectET_RKT0_RKT1_RKT2_
      fun:_ZN5boost6python6class_IN7eformat5write17FullEventFragmentENS0_6detail13not_specifiedES6_S6_E8def_implIS4_PFSt6vectorINS2_6helper9StreamTagESaISB_EERKS4_ENS5_10def_helperIPKcS6_S6_S6_EEEEvPT_SK_T0_RKT1_z
   }
   {
      G__define_type
      Memcheck:Leak
      fun:malloc
      fun:G__define_type
      fun:G__exec_statement
      fun:G__loadfile
      fun:G__include_file
   }
   {
      lfiostd
      Memcheck:Leak
      fun:malloc
      fun:lfiostd
      fun:lfiboot
      fun:lfirist
      fun:lpminitm
   }
   {
      boost::python::objects::py_function::py_function<boost::python::detail::caller<boost::python::api::object#(*)(boost::python::back_reference<std::map<eformat::helper::SourceIdentifier,#eformat::ROBFragment<unsigned#int#const*>,#std::less<eformat::helper::SourceIdentifier>,#std::allocator<std::pair<eformat::helper::SourceIdentifier#const,#eformat::ROBFragment<unsigned#int#const*>#>#>#>=>,#_object*),#boost::python::default_call_policies,#boost::mpl::vector3<boost::python::api::object,#boost::python::back_reference<std::map<eformat::helper::SourceIdentifier,#eformat::ROBFragment<unsigned#int#const*>,#std::less<eformat::helper::SourceIdentifier>,#std::allocator<std::pair<eformat::helper::SourceIdentifier#const,#eformat::ROBFragment<unsigned#int#const*>#>#>#>=>,#_object*>#>#>(boost::python::detail::caller<boost::python::api::object#(*)(boost::python::back_reference<std::map<eformat::helper::SourceIdentifier,#eformat::ROBFragment<unsigned#int#const*>,#std::less<eformat::helper::SourceIdentifier>,#std::allocator<std::pair<eformat::helper::SourceIdentifier#const,#eformat::ROBFragment<unsigned#int#const*>#>#>#>=>,#_object*),#boost::python::default_call_policies,#boost::mpl::vector3<boost::python::api::object,#boost::python::back_reference<std::map<eformat::helper::SourceIdentifier,#eformat::ROBFragment<unsigned#int#const*>,#std::less<eformat::helper::SourceIdentifier>,#std::allocator<std::pair<eformat::helper::SourceIdentifier#const,#eformat::ROBFragment<unsigned#int#const*>#>#>#>=>,#_object*>#>#const=)
      Memcheck:Leak
      fun:_Znwj
      fun:_ZN5boost6python7objects11py_functionC1INS0_6detail6callerIPFNS0_3api6objectENS0_14back_referenceIRSt3mapIN7eformat6helper16SourceIdentifierENSA_11ROBFragmentIPKjEESt4lessISC_ESaISt4pairIKSC_SG_EEEEEP7_objectENS0_21default_call_policiesENS_3mpl7vector3IS7_SP_SR_EEEEEERKT_
      fun:_ZN5boost6python6detail17make_function_auxIPFNS0_3api6objectENS0_14back_referenceIRSt3mapIN7eformat6helper16SourceIdentifierENS7_11ROBFragmentIPKjEESt4lessIS9_ESaISt4pairIKS9_SD_EEEEEP7_objectENS0_21default_call_policiesENS_3mpl7vector3IS4_SM_SO_EEN4mpl_4int_ILi0EEEEES4_T_RKT0_RKT1_RKSG_IPKNS1_7keywordES17_ET2_
      fun:_ZN5boost6python13make_functionIPFNS0_3api6objectENS0_14back_referenceIRSt3mapIN7eformat6helper16SourceIdentifierENS6_11ROBFragmentIPKjEESt4lessIS8_ESaISt4pairIKS8_SC_EEEEEP7_objectENS0_21default_call_policiesENS0_6detail8keywordsILj0EEENS_3mpl7vector3IS3_SL_SN_EEEES3_T_RKT0_RKT1_RKT2_
      fun:_ZN5boost6python6class_ISt3mapIN7eformat6helper16SourceIdentifierENS3_11ROBFragmentIPKjEESt4lessIS5_ESaISt4pairIKS5_S9_EEENS0_6detail13not_specifiedESI_SI_E8def_implISG_PFNS0_3api6objectENS0_14back_referenceIRSG_EEP7_objectENSH_10def_helperIPKcSI_SI_SI_EEEEvPT_SW_T0_RKT1_z
   }
   {
      boost::python::objects::py_function::py_function<boost::python::detail::caller<boost::python::detail::member<unsigned#long#long,#EventStorage::run_parameters_record>,#boost::python::return_value_policy<boost::python::return_by_value,#boost::python::default_call_policies>,#boost::mpl::vector2<unsigned#long#long=,#EventStorage::run_parameters_record=>#>#>(boost::python::detail::caller<boost::python::detail::member<unsigned#long#long,#EventStorage::run_parameters_record>,#boost::python::return_value_policy<boost::python::return_by_value,#boost::python::default_call_policies>,#boost::mpl::vector2<unsigned#long#long=,#EventStorage::run_parameters_record=>#>#const=)
      Memcheck:Leak
      fun:_Znwj
      fun:_ZN5boost6python7objects11py_functionC1INS0_6detail6callerINS4_6memberIyN12EventStorage21run_parameters_recordEEENS0_19return_value_policyINS0_15return_by_valueENS0_21default_call_policiesEEENS_3mpl7vector2IRyRS8_EEEEEERKT_
      fun:_ZN5boost6python6detail17make_function_auxINS1_6memberIyN12EventStorage21run_parameters_recordEEENS0_19return_value_policyINS0_15return_by_valueENS0_21default_call_policiesEEENS_3mpl7vector2IRyRS5_EEEENS0_3api6objectET_RKT0_RKT1_
      fun:_ZN5boost6python6detail22make_function_dispatchINS1_6memberIyN12EventStorage21run_parameters_recordEEENS0_19return_value_policyINS0_15return_by_valueENS0_21default_call_policiesEEENS_3mpl7vector2IRyRS5_EEEENS0_3api6objectET_RKT0_RKT1_N4mpl_5bool_ILb0EEE
      fun:_ZN5boost6python13make_functionINS0_6detail6memberIyN12EventStorage21run_parameters_recordEEENS0_19return_value_policyINS0_15return_by_valueENS0_21default_call_policiesEEENS_3mpl7vector2IRyRS5_EEEENS0_3api6objectET_RKT0_RKT1_
   }
   {
      (anonymous#namespace)::CreateCharExecutor()
      Memcheck:Leak
      fun:_Znwj
      fun:_ZN38_GLOBAL__N__ZN6PyROOT14gExecFactoriesE18CreateCharExecutorEv
      fun:_ZN6PyROOT14CreateExecutorERKSs
      fun:_ZN6PyROOT13TMethodHolderINS_13TScopeAdapterENS_14TMemberAdapterEE13InitExecutor_ERPNS_9TExecutorE
      fun:_ZN6PyROOT13TMethodHolderINS_13TScopeAdapterENS_14TMemberAdapterEE10InitializeEv
   }
   {
      DebugPrint(char#const*,#...)
      Memcheck:Leak
      fun:_Znaj
      fun:_Z10DebugPrintPKcz
      fun:_Z19DefaultErrorHandleribPKcS0_
      fun:_ZN6PyROOT7Utility13ErrMsgHandlerEibPKcS2_
      fun:ErrorHandler
   }
   {
      TStorage::ObjectAlloc(unsigned#int)
      Memcheck:Leak
      fun:_Znwj
      fun:_ZN8TStorage11ObjectAllocEj
      fun:_ZN7TObjectnwEj
      fun:_ZN5TCint23CreateListOfDataMembersEP6TClass
      fun:_ZN6TClass20GetListOfDataMembersEv
   }
   {
      lpmpali
      Memcheck:Leak
      fun:malloc
      fun:lpmpali
      fun:lpminitm
      fun:lpminit
      fun:LhtIntCreate
   }
   {
      Reflex::NamespaceBuilder::NamespaceBuilder(char#const*)
      Memcheck:Leak
      fun:_Znwj
      fun:_ZN6Reflex16NamespaceBuilderC1EPKc
      fun:_Z41__static_initialization_and_destruction_0ii
      fun:_GLOBAL__I__ZN88_GLOBAL__N_.._i686_slc4_gcc34_dbg_dict_GaudiKernel_dictionary_dict.cpp_17E02520_101EBE784nsb0E
      obj:/afs/cern.ch/atlas/offline/external/GAUDI/v20r4p4-LCG56c/GaudiKernel/i686-slc4-gcc34-dbg/libGaudiKernelDict.so
   }
   {
      G__memfunc_next
      Memcheck:Leak
      fun:malloc
      fun:G__memfunc_next
      fun:G__memfunc_setup_imp
      fun:G__memfunc_setup
      fun:G__usermemfunc_setup
   }
   {
      TStreamerInfo::Compile()
      Memcheck:Leak
      fun:_Znaj
      fun:_ZN13TStreamerInfo7CompileEv
      fun:_ZN13TStreamerInfo5BuildEv
      fun:_ZNK6TClass15GetStreamerInfoEi
      fun:_Z24R__GenerateTClassForPairRKSsS0_
   }
   {
      std::vector<boost::detail::adj_list_gen<boost::adjacency_list<boost::vecS,#boost::vecS,#boost::bidirectionalS,#boost::no_property,#boost::property<boost::edge_index_t,#unsigned#int,#boost::property<boost::(anonymous#namespace)::edge_cast_t,#void*#(*)(void*),#boost::no_property>#>,#boost::no_property,#boost::listS>,#boost::vecS,#boost::vecS,#boost::bidirectionalS,#boost::no_property,#boost::property<boost::edge_index_t,#unsigned#int,#boost::property<boost::(anonymous#namespace)::edge_cast_t,#void*#(*)(void*),#boost::no_property>#>,#boost::no_property,#boost::listS>::config::stored_vertex,#std::allocator<boost::detail::adj_list_gen<boost::adjacency_list<boost::vecS,#boost::vecS,#boost::bidirectionalS,#boost::no_property,#boost::property<boost::edge_index_t,#unsigned#int,#boost::property<boost::(anonymous#namespace)::edge_cast_t,#void*#(*)(void*),#boost::no_property>#>,#boost::no_property,#boost::listS>,#boost::vecS,#boost::vecS,#boost::bidirectionalS,#boost::no_property,#boost::property<boost::edge_index_t,#unsigned#int,#boost::property<boost::(anonymous#namespace)::edge_cast_t,#void*#(*)(void*),#boost::no_property>#>,#boost::no_property,#boost::listS>::config::stored_vertex>#>::_M_fill_insert(__gnu_cxx::__normal_iterator<boost::detail::adj_list_gen<boost::adjacency_list<boost::vecS,#boost::vecS,#boost::bidirectionalS,#boost::no_property,#boost::property<boost::edge_index_t,#unsigned#int,#boost::property<boost::(anonymous#namespace)::edge_cast_t,#void*#(*)(void*),#boost::no_property>#>,#boost::no_property,#boost::listS>,#boost::vecS,#boost::vecS,#boost::bidirectionalS,#boost::no_property,#boost::property<boost::edge_index_t,#unsigned#int,#boost::property<boost::(anonymous#namespace)::edge_cast_t,#void*#(*)(void*),#boost::no_property>#>,#boost::no_property,#boost::listS>::config::stored_vertex*,#std::vector<boost::detail::adj_list_gen<boost::adjacency_list<boost::vecS,#boost::vecS,#boost::bidirectionalS,#boost::no_property,#boost::property<boost::edge_index_t,#unsigned#int,#boost::property<boost::(anonymous#namespace)::edge_cast_t,#void*#(*)(void*),#boost::no_property>#>,#boost::no_property,#boost::listS>,#boost::vecS,#boost::vecS,#boost::bidirectionalS,#boost::no_property,#boost::property<boost::edge_index_t,#unsigned#int,#boost::property<boost::(anonymous#namespace)::edge_cast_t,#void*#(*)(void*),#boost::no_property>#>,#boost::no_property,#boost::listS>::config::stored_vertex,#std::allocator<boost::detail::adj_list_gen<boost::adjacency_list<boost::vecS,#boost::vecS,#boost::bidirectionalS,#boost::no_property,#boost::property<boost::edge_index_t,#unsigned#int,#boost::property<boost::(anonymous#namespace)::edge_cast_t,#void*#(*)(void*),#boost::no_property>#>,#boost::no_property,#boost::listS>,#boost::vecS,#boost::vecS,#boost::bidirectionalS,#boost::no_property,#boost::property<boost::edge_index_t,#unsigned#int,#boost::property<boost::(anonymous#namespace)::edge_cast_t,#void*#(*)(void*),#boost::no_property>#>,#boost::no_property,#boost::listS>::config::stored_vertex>#>#>,#unsigned#int,#boost::detail::adj_list_gen<boost::adjacency_list<boost::vecS,#boost::vecS,#boost::bidirectionalS,#boost::no_property,#boost::property<boost::edge_index_t,#unsigned#int,#boost::property<boost::(anonymous#namespace)::edge_cast_t,#void*#(*)(void*),#boost::no_property>#>,#boost::no_property,#boost::listS>,#boost::vecS,#boost::vecS,#boost::bidirectionalS,#boost::no_property,#boost::property<boost::edge_index_t,#unsigned#int,#boost::property<boost::(anonymous#namespace)::edge_cast_t,#void*#(*)(void*),#boost::no_property>#>,#boost::no_property,#boost::listS>::config::stored_vertex#const=)
      Memcheck:Leak
      fun:_Znwj
      fun:_ZNSt6vectorIN5boost6detail12adj_list_genINS0_14adjacency_listINS0_4vecSES4_NS0_14bidirectionalSENS0_11no_propertyENS0_8propertyINS0_12edge_index_tEjNS7_INS0_67_GLOBAL__N_libs_python_src_object_inheritance.cpp_CF14568D_462478FE11edge_cast_tEPFPvSB_ES6_EEEES6_NS0_5listSEEES4_S4_S5_S6_SF_S6_SG_E6config13stored_vertexESaISK_EE14_M_fill_insertEN9__gnu_cxx17__normal_iteratorIPSK_SM_EEjRKSK_
      fun:_ZN5boost67_GLOBAL__N_libs_python_src_object_inheritance.cpp_CF14568D_462478FE11demand_typeENS_6python9type_infoE
      fun:_ZN5boost6python7objects23register_dynamic_id_auxENS0_9type_infoEPFSt4pairIPvS2_ES4_E
      fun:_ZN5boost6python7objects19register_dynamic_idIN12EventStorage10DataWriterEEEvPT_
   }
   {
      boost::python::objects::py_function::py_function<boost::python::detail::caller<unsigned#long#long#(eformat::helper::DetectorMask::*)()#const,#boost::python::default_call_policies,#boost::mpl::vector2<unsigned#long#long,#eformat::helper::DetectorMask=>#>#>(boost::python::detail::caller<unsigned#long#long#(eformat::helper::DetectorMask::*)()#const,#boost::python::default_call_policies,#boost::mpl::vector2<unsigned#long#long,#eformat::helper::DetectorMask=>#>#const=)
      Memcheck:Leak
      fun:_Znwj
      fun:_ZN5boost6python7objects11py_functionC1INS0_6detail6callerIMN7eformat6helper12DetectorMaskEKFyvENS0_21default_call_policiesENS_3mpl7vector2IyRS8_EEEEEERKT_
      fun:_ZN5boost6python6detail17make_function_auxIMN7eformat6helper12DetectorMaskEKFyvENS0_21default_call_policiesENS_3mpl7vector2IyRS5_EEN4mpl_4int_ILi0EEEEENS0_3api6objectET_RKT0_RKT1_RKSt4pairIPKNS1_7keywordESS_ET2_
      fun:_ZN5boost6python13make_functionIMN7eformat6helper12DetectorMaskEKFyvENS0_21default_call_policiesENS0_6detail8keywordsILj0EEENS_3mpl7vector2IyRS4_EEEENS0_3api6objectET_RKT0_RKT1_RKT2_
      fun:_ZN5boost6python6class_IN7eformat6helper12DetectorMaskENS0_6detail13not_specifiedES6_S6_E8def_implIS4_MS4_KFyvENS5_10def_helperIPKcS6_S6_S6_EEEEvPT_SD_T0_RKT1_z
   }
   {
      boost::python::objects::py_function::py_function<boost::python::detail::caller<eformat::helper::u32slice#(*)(eformat::write::FullEventFragment#const=),#boost::python::with_custodian_and_ward_postcall<0u,#1u,#boost::python::default_call_policies>,#boost::mpl::vector2<eformat::helper::u32slice,#eformat::write::FullEventFragment#const=>#>#>(boost::python::detail::caller<eformat::helper::u32slice#(*)(eformat::write::FullEventFragment#const=),#boost::python::with_custodian_and_ward_postcall<0u,#1u,#boost::python::default_call_policies>,#boost::mpl::vector2<eformat::helper::u32slice,#eformat::write::FullEventFragment#const=>#>#const=)
      Memcheck:Leak
      fun:_Znwj
      fun:_ZN5boost6python7objects11py_functionC1INS0_6detail6callerIPFN7eformat6helper8u32sliceERKNS6_5write17FullEventFragmentEENS0_32with_custodian_and_ward_postcallILj0ELj1ENS0_21default_call_policiesEEENS_3mpl7vector2IS8_SC_EEEEEERKT_
      fun:_ZN5boost6python6detail17make_function_auxIPFN7eformat6helper8u32sliceERKNS3_5write17FullEventFragmentEENS0_32with_custodian_and_ward_postcallILj0ELj1ENS0_21default_call_policiesEEENS_3mpl7vector2IS5_S9_EEN4mpl_4int_ILi0EEEEENS0_3api6objectET_RKT0_RKT1_RKSt4pairIPKNS1_7keywordESX_ET2_
      fun:_ZN5boost6python13make_functionIPFN7eformat6helper8u32sliceERKNS2_5write17FullEventFragmentEENS0_32with_custodian_and_ward_postcallILj0ELj1ENS0_21default_call_policiesEEENS0_6detail8keywordsILj0EEENS_3mpl7vector2IS4_S8_EEEENS0_3api6objectET_RKT0_RKT1_RKT2_
      fun:_ZN5boost6python6class_IN7eformat5write17FullEventFragmentENS0_6detail13not_specifiedES6_S6_E8def_implIS4_PFNS2_6helper8u32sliceERKS4_ENS5_10def_helperINS0_32with_custodian_and_ward_postcallILj0ELj1ENS0_21default_call_policiesEEES6_S6_S6_EEEEvPT_PKcT0_RKT1_z
   }
   {
      _nc_doalloc
      Memcheck:Leak
      fun:malloc
      fun:_nc_doalloc
      fun:_nc_tparm_analyze
      fun:tparm
      fun:set_attribute_9
   }
   {
      CMP_ModularReduce
      Memcheck:Cond
      fun:CMP_SubtractInPlace
      fun:CMP_ModularReduce
      fun:Alg_ComputeModQ_GHash
      fun:A_X931RandomGenerateBytes
      fun:ztcr2rnd
   }
   {
      boost::python::objects::py_function::py_function<boost::python::detail::caller<void#(*)(eformat::write::FullEventFragment=,#eformat::ROBFragment<unsigned#int#const*>=),#boost::python::with_custodian_and_ward<1u,#2u,#boost::python::default_call_policies>,#boost::mpl::vector3<void,#eformat::write::FullEventFragment=,#eformat::ROBFragment<unsigned#int#const*>=>#>#>(boost::python::detail::caller<void#(*)(eformat::write::FullEventFragment=,#eformat::ROBFragment<unsigned#int#const*>=),#boost::python::with_custodian_and_ward<1u,#2u,#boost::python::default_call_policies>,#boost::mpl::vector3<void,#eformat::write::FullEventFragment=,#eformat::ROBFragment<unsigned#int#const*>=>#>#const=)
      Memcheck:Leak
      fun:_Znwj
      fun:_ZN5boost6python7objects11py_functionC1INS0_6detail6callerIPFvRN7eformat5write17FullEventFragmentERNS6_11ROBFragmentIPKjEEENS0_23with_custodian_and_wardILj1ELj2ENS0_21default_call_policiesEEENS_3mpl7vector3IvS9_SE_EEEEEERKT_
      fun:_ZN5boost6python6detail17make_function_auxIPFvRN7eformat5write17FullEventFragmentERNS3_11ROBFragmentIPKjEEENS0_23with_custodian_and_wardILj1ELj2ENS0_21default_call_policiesEEENS_3mpl7vector3IvS6_SB_EEN4mpl_4int_ILi0EEEEENS0_3api6objectET_RKT0_RKT1_RKSt4pairIPKNS1_7keywordESZ_ET2_
      fun:_ZN5boost6python13make_functionIPFvRN7eformat5write17FullEventFragmentERNS2_11ROBFragmentIPKjEEENS0_23with_custodian_and_wardILj1ELj2ENS0_21default_call_policiesEEENS0_6detail8keywordsILj0EEENS_3mpl7vector3IvS5_SA_EEEENS0_3api6objectET_RKT0_RKT1_RKT2_
      fun:_ZN5boost6python6class_IN7eformat5write17FullEventFragmentENS0_6detail13not_specifiedES6_S6_E8def_implIS4_PFvRS4_RNS2_11ROBFragmentIPKjEEENS5_10def_helperINS0_23with_custodian_and_wardILj1ELj2ENS0_21default_call_policiesEEES6_S6_S6_EEEEvPT_PKcT0_RKT1_z
   }
   {
      boost::python::objects::py_function::py_function<boost::python::detail::caller<void#(*)(_object*),#boost::python::default_call_policies,#boost::mpl::vector2<void,#_object*>#>#>(boost::python::detail::caller<void#(*)(_object*),#boost::python::default_call_policies,#boost::mpl::vector2<void,#_object*>#>#const=)
      Memcheck:Leak
      fun:_Znwj
      fun:_ZN5boost6python7objects11py_functionC1INS0_6detail6callerIPFvP7_objectENS0_21default_call_policiesENS_3mpl7vector2IvS7_EEEEEERKT_
      fun:_ZN5boost6python6detail17make_function_auxIPFvP7_objectENS0_21default_call_policiesENS_3mpl7vector2IvS4_EEN4mpl_4int_ILi0EEEEENS0_3api6objectET_RKT0_RKT1_RKSt4pairIPKNS1_7keywordESQ_ET2_
      fun:_ZN5boost6python6detail27make_keyword_range_functionIPFvP7_objectENS0_21default_call_policiesEEENS0_3api6objectET_RKT0_RKSt4pairIPKNS1_7keywordESH_E
      fun:_ZN5boost6python6detail30make_keyword_range_constructorINS_3mpl10joint_viewINS1_5drop1INS1_9type_listINS0_8optionalIjN4mpl_5void_ES9_S9_S9_S9_S9_S9_S9_S9_S9_S9_S9_S9_S9_EES9_S9_S9_S9_S9_S9_S9_S9_S9_S9_S9_S9_S9_S9_S9_S9_EEEESA_EENS8_10integral_cIlLl0EEENS0_7objects12value_holderIN7eformat6helper7VersionEEENS0_21default_call_policiesEEENS0_3api6objectERKT2_RKSt4pairIPKNS1_7keywordESV_EPT1_PT_PT0_
   }
   {
      boost::python::objects::py_function::py_function<boost::python::detail::caller<unsigned#short#(eformat::helper::Version::*)()#const,#boost::python::default_call_policies,#boost::mpl::vector2<unsigned#short,#eformat::helper::Version=>#>#>(boost::python::detail::caller<unsigned#short#(eformat::helper::Version::*)()#const,#boost::python::default_call_policies,#boost::mpl::vector2<unsigned#short,#eformat::helper::Version=>#>#const=)
      Memcheck:Leak
      fun:_Znwj
      fun:_ZN5boost6python7objects11py_functionC1INS0_6detail6callerIMN7eformat6helper7VersionEKFtvENS0_21default_call_policiesENS_3mpl7vector2ItRS8_EEEEEERKT_
      fun:_ZN5boost6python6detail17make_function_auxIMN7eformat6helper7VersionEKFtvENS0_21default_call_policiesENS_3mpl7vector2ItRS5_EEN4mpl_4int_ILi0EEEEENS0_3api6objectET_RKT0_RKT1_RKSt4pairIPKNS1_7keywordESS_ET2_
      fun:_ZN5boost6python13make_functionIMN7eformat6helper7VersionEKFtvENS0_21default_call_policiesENS0_6detail8keywordsILj0EEENS_3mpl7vector2ItRS4_EEEENS0_3api6objectET_RKT0_RKT1_RKT2_
      fun:_ZN5boost6python6class_IN7eformat6helper7VersionENS0_6detail13not_specifiedES6_S6_E8def_implIS4_MS4_KFtvENS5_10def_helperIPKcS6_S6_S6_EEEEvPT_SD_T0_RKT1_z
   }
   {
      Reflex::ClassBuilderImpl::AddDataMember(char#const*,#Reflex::Type#const=,#unsigned#int,#unsigned#int)
      Memcheck:Leak
      fun:_Znwj
      fun:_ZN6Reflex16ClassBuilderImpl13AddDataMemberEPKcRKNS_4TypeEjj
      fun:_ZN6Reflex13ClassBuilderTI11UIntDbArrayE13AddDataMemberERKNS_4TypeEPKcjj
      fun:_Z23__initdbarraydictionaryIj11UIntDbArrayEvPT_PT0_RKSsS6_
      fun:_ZN50_GLOBAL__N_.._src_DbTypeInfo.cpp_9D2164D3_4B6BDF3A6__initC1Ev
   }
   {
      boost::python::objects::py_function::py_function<boost::python::detail::caller<bool#(*)(eformat::FullEventFragment<unsigned#int#const*>=),#boost::python::default_call_policies,#boost::mpl::vector2<bool,#eformat::FullEventFragment<unsigned#int#const*>=>#>#>(boost::python::detail::caller<bool#(*)(eformat::FullEventFragment<unsigned#int#const*>=),#boost::python::default_call_policies,#boost::mpl::vector2<bool,#eformat::FullEventFragment<unsigned#int#const*>=>#>#const=)
      Memcheck:Leak
      fun:_Znwj
      fun:_ZN5boost6python7objects11py_functionC1INS0_6detail6callerIPFbRN7eformat17FullEventFragmentIPKjEEENS0_21default_call_policiesENS_3mpl7vector2IbSB_EEEEEERKT_
      fun:_ZN5boost6python6detail17make_function_auxIPFbRN7eformat17FullEventFragmentIPKjEEENS0_21default_call_policiesENS_3mpl7vector2IbS8_EEN4mpl_4int_ILi0EEEEENS0_3api6objectET_RKT0_RKT1_RKSt4pairIPKNS1_7keywordESU_ET2_
      fun:_ZN5boost6python6detail27make_keyword_range_functionIPFbRN7eformat17FullEventFragmentIPKjEEENS0_21default_call_policiesENS_3mpl7vector2IbS8_EEEENS0_3api6objectET_RKT0_RKSt4pairIPKNS1_7keywordESO_ERKT1_
      fun:_ZN5boost6python6detail14name_space_defIPFbRN7eformat17FullEventFragmentIPKjEEENS0_21default_call_policiesENS0_6class_IS7_NS_10shared_ptrIS7_EENS0_5basesINS3_6HeaderIS6_EEN4mpl_5void_ESJ_SJ_SJ_SJ_SJ_SJ_SJ_SJ_EENS1_13not_specifiedEEEEEvRT1_PKcT_RKSt4pairIPKNS1_7keywordESV_ERKT0_SQ_PNS0_7objects10class_baseE
   }
   {
      Reflex::CFTGenerator<Reflex::Pushback<std::vector<Property#const*,#std::allocator<Property#const*>#>#>#>::Generate()
      Memcheck:Leak
      fun:_Znwj
      fun:_ZN6Reflex12CFTGeneratorINS_8PushbackISt6vectorIPK8PropertySaIS5_EEEEE8GenerateEv
      fun:_ZN6Reflex5ProxyISt6vectorIPK8PropertySaIS4_EEE8GenerateEv
      fun:_ZN84_GLOBAL__N_.._i686_slc4_gcc34_dbg_dict_GaudiPython_kernel_dict.cpp_9D2164D3_B5DBB98A11method_x470EPvS0_RKSt6vectorIS0_SaIS0_EES0_
      fun:_ZNK6Reflex14FunctionMember6InvokeEPNS_6ObjectERKSt6vectorIPvSaIS4_EE
   }
   {
      sltskjadd
      Memcheck:Leak
      fun:malloc
      fun:sltskjadd
      fun:sltskminit
      fun:sltsini
      fun:slxmxinit
   }
   {
      boost::python::objects::py_function::py_function<boost::python::detail::caller<eformat::ROBFragment<unsigned#int#const*>#(*)(eformat::FullEventFragment<unsigned#int#const*>#const=,#eformat::helper::SourceIdentifier#const=),#boost::python::with_custodian_and_ward_postcall<0u,#1u,#boost::python::default_call_policies>,#boost::mpl::vector3<eformat::ROBFragment<unsigned#int#const*>,#eformat::FullEventFragment<unsigned#int#const*>#const=,#eformat::helper::SourceIdentifier#const=>#>#>(boost::python::detail::caller<eformat::ROBFragment<unsigned#int#const*>#(*)(eformat::FullEventFragment<unsigned#int#const*>#const=,#eformat::helper::SourceIdentifier#const=),#boost::python::with_custodian_and_ward_postcall<0u,#1u,#boost::python::default_call_policies>,#boost::mpl::vector3<eformat::ROBFragment<unsigned#int#const*>,#eformat::FullEventFragment<unsigned#int#const*>#const=,#eformat::helper::SourceIdentifier#const=>#>#const=)
      Memcheck:Leak
      fun:_Znwj
      fun:_ZN5boost6python7objects11py_functionC1INS0_6detail6callerIPFN7eformat11ROBFragmentIPKjEERKNS6_17FullEventFragmentIS9_EERKNS6_6helper16SourceIdentifierEENS0_32with_custodian_and_ward_postcallILj0ELj1ENS0_21default_call_policiesEEENS_3mpl7vector3ISA_SE_SI_EEEEEERKT_
      fun:_ZN5boost6python6detail17make_function_auxIPFN7eformat11ROBFragmentIPKjEERKNS3_17FullEventFragmentIS6_EERKNS3_6helper16SourceIdentifierEENS0_32with_custodian_and_ward_postcallILj0ELj1ENS0_21default_call_policiesEEENS_3mpl7vector3IS7_SB_SF_EEN4mpl_4int_ILi0EEEEENS0_3api6objectET_RKT0_RKT1_RKSt4pairIPKNS1_7keywordES13_ET2_
      fun:_ZN5boost6python13make_functionIPFN7eformat11ROBFragmentIPKjEERKNS2_17FullEventFragmentIS5_EERKNS2_6helper16SourceIdentifierEENS0_32with_custodian_and_ward_postcallILj0ELj1ENS0_21default_call_policiesEEENS0_6detail8keywordsILj0EEENS_3mpl7vector3IS6_SA_SE_EEEENS0_3api6objectET_RKT0_RKT1_RKT2_
      fun:_ZN5boost6python6class_IN7eformat17FullEventFragmentIPKjEENS_10shared_ptrIS6_EENS0_5basesINS2_6HeaderIS5_EEN4mpl_5void_ESD_SD_SD_SD_SD_SD_SD_SD_EENS0_6detail13not_specifiedEE8def_implIS6_PFNS2_11ROBFragmentIS5_EERKS6_RKNS2_6helper16SourceIdentifierEENSF_10def_helperINS0_32with_custodian_and_ward_postcallILj0ELj1ENS0_21default_call_policiesEEESG_SG_SG_EEEEvPT_PKcT0_RKT1_z
   }
   {
      boost::python::objects::py_function::py_function<boost::python::detail::caller<std::basic_string<char,#std::char_traits<char>,#std::allocator<char>#>#(eformat::helper::SourceIdentifier::*)()#const,#boost::python::default_call_policies,#boost::mpl::vector2<std::basic_string<char,#std::char_traits<char>,#std::allocator<char>#>,#eformat::helper::SourceIdentifier=>#>#>(boost::python::detail::caller<std::basic_string<char,#std::char_traits<char>,#std::allocator<char>#>#(eformat::helper::SourceIdentifier::*)()#const,#boost::python::default_call_policies,#boost::mpl::vector2<std::basic_string<char,#std::char_traits<char>,#std::allocator<char>#>,#eformat::helper::SourceIdentifier=>#>#const=)
      Memcheck:Leak
      fun:_Znwj
      fun:_ZN5boost6python7objects11py_functionC1INS0_6detail6callerIMN7eformat6helper16SourceIdentifierEKFSsvENS0_21default_call_policiesENS_3mpl7vector2ISsRS8_EEEEEERKT_
      fun:_ZN5boost6python6detail17make_function_auxIMN7eformat6helper16SourceIdentifierEKFSsvENS0_21default_call_policiesENS_3mpl7vector2ISsRS5_EEN4mpl_4int_ILi0EEEEENS0_3api6objectET_RKT0_RKT1_RKSt4pairIPKNS1_7keywordESS_ET2_
      fun:_ZN5boost6python13make_functionIMN7eformat6helper16SourceIdentifierEKFSsvENS0_21default_call_policiesENS0_6detail8keywordsILj0EEENS_3mpl7vector2ISsRS4_EEEENS0_3api6objectET_RKT0_RKT1_RKT2_
      fun:_ZN5boost6python6class_IN7eformat6helper16SourceIdentifierENS0_6detail13not_specifiedES6_S6_E8def_implIS4_MS4_KFSsvENS5_10def_helperIPKcS6_S6_S6_EEEEvPT_SD_T0_RKT1_z
   }
   {
      nlhthcreate
      Memcheck:Leak
      fun:calloc
      fun:nlhthcreate
      fun:nlhtbnew
      fun:nsgbliuc
      fun:nsgblini
   }
   {
      boost::python::objects::py_function::py_function<boost::python::detail::caller<void#(*)(_object*,#std::basic_string<char,#std::char_traits<char>,#std::allocator<char>#>#const=,#eformat::TagType#const=,#bool),#boost::python::default_call_policies,#boost::mpl::vector5<void,#_object*,#std::basic_string<char,#std::char_traits<char>,#std::allocator<char>#>#const=,#eformat::TagType#const=,#bool>#>#>(boost::python::detail::caller<void#(*)(_object*,#std::basic_string<char,#std::char_traits<char>,#std::allocator<char>#>#const=,#eformat::TagType#const=,#bool),#boost::python::default_call_policies,#boost::mpl::vector5<void,#_object*,#std::basic_string<char,#std::char_traits<char>,#std::allocator<char>#>#const=,#eformat::TagType#const=,#bool>#>#const=)
      Memcheck:Leak
      fun:_Znwj
      fun:_ZN5boost6python7objects11py_functionC1INS0_6detail6callerIPFvP7_objectRKSsRKN7eformat7TagTypeEbENS0_21default_call_policiesENS_3mpl7vector5IvS7_S9_SD_bEEEEEERKT_
      fun:_ZN5boost6python6detail17make_function_auxIPFvP7_objectRKSsRKN7eformat7TagTypeEbENS0_21default_call_policiesENS_3mpl7vector5IvS4_S6_SA_bEEN4mpl_4int_ILi0EEEEENS0_3api6objectET_RKT0_RKT1_RKSt4pairIPKNS1_7keywordESW_ET2_
      fun:_ZN5boost6python6detail27make_keyword_range_functionIPFvP7_objectRKSsRKN7eformat7TagTypeEbENS0_21default_call_policiesEEENS0_3api6objectET_RKT0_RKSt4pairIPKNS1_7keywordESN_E
      fun:_ZN5boost6python6detail30make_keyword_range_constructorINS_3mpl7vector3IRKSsRKN7eformat7TagTypeEbEENS3_4sizeISB_EENS0_7objects12value_holderINS7_6helper9StreamTagEEENS0_21default_call_policiesEEENS0_3api6objectERKT2_RKSt4pairIPKNS1_7keywordESS_EPT1_PT_PT0_
   }
   {
      void#Property::declareUpdateHandler<ApplicationMgr>(void#(ApplicationMgr::*)(Property=),#ApplicationMgr*)
      Memcheck:Leak
      fun:_Znwj
      fun:_ZN8Property20declareUpdateHandlerI14ApplicationMgrEEvMT_FvRS_EPS2_
      fun:_ZN14ApplicationMgrC1EP10IInterface
      fun:_ZN69_GLOBAL__N_.._src_ApplicationMgr_ApplicationMgr.cpp_9D2164D3_9BE5AFB07FactoryI14ApplicationMgrFP10IInterfaceS3_EE4FuncEPvS6_RKSt6vectorIS6_SaIS6_EES6_
      fun:_ZNK6Reflex14FunctionMember6InvokeERKNS_6ObjectEPS1_RKSt6vectorIPvSaIS6_EE
   }
   {
      nldsinit
      Memcheck:Leak
      fun:malloc
      fun:nldsinit
      fun:nlstddt_do_alter_trace
      fun:nlstdggo
      fun:nlstdgg
   }
   {
      Reflex::FunctionTypeBuilder(Reflex::Type#const=,#Reflex::Type#const=,#Reflex::Type#const=,#Reflex::Type#const=,#Reflex::Type#const=,#Reflex::Type#const=,#Reflex::Type#const=)
      Memcheck:Leak
      fun:_Znwj
      fun:_ZN6Reflex19FunctionTypeBuilderERKNS_4TypeES2_S2_S2_S2_S2_S2_
      fun:_ZN84_GLOBAL__N_.._i686_slc4_gcc34_dbg_dict_GaudiPython_kernel_dict.cpp_9D2164D3_B5DBB98A34__GaudiPython__TupleDecorator_dictEv
      fun:_ZN84_GLOBAL__N_.._i686_slc4_gcc34_dbg_dict_GaudiPython_kernel_dict.cpp_9D2164D3_B5DBB98A84_GLOBAL__N_.._i686_slc4_gcc34_dbg_dict_GaudiPython_kernel_dict.cpp_9D2164D3_B5DBB98A12DictionariesC1Ev
      fun:_Z41__static_initialization_and_destruction_0ii
   }
   {
      boost::python::objects::py_function::py_function<boost::python::detail::caller<void#(*)(_object*,#eformat::SubDetector,#unsigned#short,#unsigned#char),#boost::python::default_call_policies,#boost::mpl::vector5<void,#_object*,#eformat::SubDetector,#unsigned#short,#unsigned#char>#>#>(boost::python::detail::caller<void#(*)(_object*,#eformat::SubDetector,#unsigned#short,#unsigned#char),#boost::python::default_call_policies,#boost::mpl::vector5<void,#_object*,#eformat::SubDetector,#unsigned#short,#unsigned#char>#>#const=)
      Memcheck:Leak
      fun:_Znwj
      fun:_ZN5boost6python7objects11py_functionC1INS0_6detail6callerIPFvP7_objectN7eformat11SubDetectorEthENS0_21default_call_policiesENS_3mpl7vector5IvS7_S9_thEEEEEERKT_
      fun:_ZN5boost6python6detail17make_function_auxIPFvP7_objectN7eformat11SubDetectorEthENS0_21default_call_policiesENS_3mpl7vector5IvS4_S6_thEEN4mpl_4int_ILi0EEEEENS0_3api6objectET_RKT0_RKT1_RKSt4pairIPKNS1_7keywordESS_ET2_
      fun:_ZN5boost6python6detail27make_keyword_range_functionIPFvP7_objectN7eformat11SubDetectorEthENS0_21default_call_policiesEEENS0_3api6objectET_RKT0_RKSt4pairIPKNS1_7keywordESJ_E
      fun:_ZN5boost6python6detail30make_keyword_range_constructorINS_3mpl10joint_viewINS1_5drop1INS1_9type_listIN7eformat11SubDetectorEtNS0_8optionalIhN4mpl_5void_ESB_SB_SB_SB_SB_SB_SB_SB_SB_SB_SB_SB_SB_EESB_SB_SB_SB_SB_SB_SB_SB_SB_SB_SB_SB_SB_SB_EEEESC_EENS3_4sizeISF_EENS0_7objects12value_holderINS7_6helper16SourceIdentifierEEENS0_21default_call_policiesEEENS0_3api6objectERKT2_RKSt4pairIPKNS1_7keywordESW_EPT1_PT_PT0_
   }
   {
      Reflex::FunctionTypeBuilder(Reflex::Type#const=,#Reflex::Type#const=,#Reflex::Type#const=,#Reflex::Type#const=)
      Memcheck:Leak
      fun:_Znwj
      fun:_ZN6Reflex19FunctionTypeBuilderERKNS_4TypeES2_S2_S2_
      fun:_ZN60_GLOBAL__N__ZN4cool6PyCool7Helpers10IObjectPtrEPNS_7IObjectE32__cool__InvalidChannelRange_dictEv
      fun:_ZN60_GLOBAL__N__ZN4cool6PyCool7Helpers10IObjectPtrEPNS_7IObjectE60_GLOBAL__N__ZN4cool6PyCool7Helpers10IObjectPtrEPNS_7IObjectE12DictionariesC1Ev
      fun:_Z41__static_initialization_and_destruction_0ii
   }
   {
      __gnu_cxx::new_allocator<Reflex::TypeTemplate>::allocate(unsigned#int,#void#const*)
      Memcheck:Leak
      fun:_Znwj
      fun:_ZN9__gnu_cxx13new_allocatorIN6Reflex12TypeTemplateEE8allocateEjPKv
      fun:_ZNSt12_Vector_baseIN6Reflex12TypeTemplateESaIS1_EE11_M_allocateEj
      fun:_ZNSt6vectorIN6Reflex12TypeTemplateESaIS1_EE13_M_insert_auxEN9__gnu_cxx17__normal_iteratorIPS1_S3_EERKS1_
      fun:_ZNSt6vectorIN6Reflex12TypeTemplateESaIS1_EE9push_backERKS1_
   }
   {
      expand_dynamic_string_token
      Memcheck:Leak
      fun:malloc
      fun:expand_dynamic_string_token
      fun:_dl_map_object
      fun:dl_open_worker
      fun:_dl_catch_error
   }
   {
      __gnu_cxx::new_allocator<std::_Rb_tree_node<std::pair<std::basic_string<char,#std::char_traits<char>,#std::allocator<char>#>#const,#ers::Issue*#(*)(ers::Context#const=)>#>#>::allocate(unsigned#int,#void#const*)
      Memcheck:Leak
      fun:_Znwj
      fun:_ZN9__gnu_cxx13new_allocatorISt13_Rb_tree_nodeISt4pairIKSsPFPN3ers5IssueERKNS4_7ContextEEEEE8allocateEjPKv
      fun:_ZNSt8_Rb_treeISsSt4pairIKSsPFPN3ers5IssueERKNS2_7ContextEEESt10_Select1stISA_ESt4lessISsESaISA_EE11_M_get_nodeEv
      fun:_ZNSt8_Rb_treeISsSt4pairIKSsPFPN3ers5IssueERKNS2_7ContextEEESt10_Select1stISA_ESt4lessISsESaISA_EE14_M_create_nodeERKSA_
      fun:_ZNSt8_Rb_treeISsSt4pairIKSsPFPN3ers5IssueERKNS2_7ContextEEESt10_Select1stISA_ESt4lessISsESaISA_EE9_M_insertEPSt18_Rb_tree_node_baseSI_RKSA_
   }
   {
      PyROOT::CreateExecutor(std::basic_string<char,#std::char_traits<char>,#std::allocator<char>#>#const=)
      Memcheck:Leak
      fun:_Znwj
      fun:_ZN6PyROOT14CreateExecutorERKSs
      fun:_ZN6PyROOT13TMethodHolderINS_13TScopeAdapterENS_14TMemberAdapterEE13InitExecutor_ERPNS_9TExecutorE
      fun:_ZN6PyROOT13TMethodHolderINS_13TScopeAdapterENS_14TMemberAdapterEE10InitializeEv
      fun:_ZN6PyROOT18TClassMethodHolderINS_13TScopeAdapterENS_14TMemberAdapterEEclEPNS_11ObjectProxyEP7_objectS7_
   }
   {
      lpmpapb
      Memcheck:Leak
      fun:malloc
      fun:lpmpapb
      fun:lpmpali
      fun:lpmloadpkg
      fun:lfvLoadPkg
   }
   {
      (anonymous#namespace)::CreateUIntConverter(long)
      Memcheck:Leak
      fun:_Znwj
      fun:_ZN38_GLOBAL__N__ZN6PyROOT14gConvFactoriesE19CreateUIntConverterEl
      fun:_ZN6PyROOT15CreateConverterERKSsl
      fun:_ZN6PyROOT13PropertyProxy3SetEP11TDataMember
      fun:_ZN6PyROOT17PropertyProxy_NewINS_14TMemberAdapterEEEPNS_13PropertyProxyERKT_
   }
   {
      (anonymous#namespace)::CreateLongLongExecutor()
      Memcheck:Leak
      fun:_Znwj
      fun:_ZN38_GLOBAL__N__ZN6PyROOT14gExecFactoriesE22CreateLongLongExecutorEv
      fun:_ZN6PyROOT14CreateExecutorERKSs
      fun:_ZN6PyROOT13TMethodHolderINS_13TScopeAdapterENS_14TMemberAdapterEE13InitExecutor_ERPNS_9TExecutorE
      fun:_ZN6PyROOT13TMethodHolderINS_13TScopeAdapterENS_14TMemberAdapterEE10InitializeEv
   }
   {
      ROOT::TCollectionProxyInfo::Environ<__gnu_cxx::__normal_iterator<float*,#std::vector<float,#std::allocator<float>#>#>#>::Create()
      Memcheck:Leak
      fun:_Znwj
      fun:_ZN4ROOT20TCollectionProxyInfo7EnvironIN9__gnu_cxx17__normal_iteratorIPfSt6vectorIfSaIfEEEEE6CreateEv
      fun:_ZNK19TGenCollectionProxy7Method06invokeEv
      fun:_ZN19TGenCollectionProxy9PushProxyEPv
      fun:_ZN23TVirtualCollectionProxy8TPushPopC1EPS_Pv
   }
   {
      boost::python::objects::py_function::py_function<boost::python::detail::caller<eformat::helper::u32slice#(*)(eformat::write::ROBFragment#const=),#boost::python::with_custodian_and_ward_postcall<0u,#1u,#boost::python::default_call_policies>,#boost::mpl::vector2<eformat::helper::u32slice,#eformat::write::ROBFragment#const=>#>#>(boost::python::detail::caller<eformat::helper::u32slice#(*)(eformat::write::ROBFragment#const=),#boost::python::with_custodian_and_ward_postcall<0u,#1u,#boost::python::default_call_policies>,#boost::mpl::vector2<eformat::helper::u32slice,#eformat::write::ROBFragment#const=>#>#const=)
      Memcheck:Leak
      fun:_Znwj
      fun:_ZN5boost6python7objects11py_functionC1INS0_6detail6callerIPFN7eformat6helper8u32sliceERKNS6_5write11ROBFragmentEENS0_32with_custodian_and_ward_postcallILj0ELj1ENS0_21default_call_policiesEEENS_3mpl7vector2IS8_SC_EEEEEERKT_
      fun:_ZN5boost6python6detail17make_function_auxIPFN7eformat6helper8u32sliceERKNS3_5write11ROBFragmentEENS0_32with_custodian_and_ward_postcallILj0ELj1ENS0_21default_call_policiesEEENS_3mpl7vector2IS5_S9_EEN4mpl_4int_ILi0EEEEENS0_3api6objectET_RKT0_RKT1_RKSt4pairIPKNS1_7keywordESX_ET2_
      fun:_ZN5boost6python13make_functionIPFN7eformat6helper8u32sliceERKNS2_5write11ROBFragmentEENS0_32with_custodian_and_ward_postcallILj0ELj1ENS0_21default_call_policiesEEENS0_6detail8keywordsILj0EEENS_3mpl7vector2IS4_S8_EEEENS0_3api6objectET_RKT0_RKT1_RKT2_
      fun:_ZN5boost6python6class_IN7eformat5write11ROBFragmentENS0_6detail13not_specifiedES6_S6_E8def_implIS4_PFNS2_6helper8u32sliceERKS4_ENS5_10def_helperINS0_32with_custodian_and_ward_postcallILj0ELj1ENS0_21default_call_policiesEEES6_S6_S6_EEEEvPT_PKcT0_RKT1_z
   }
   {
      (anonymous#namespace)::CreatePyObjectConverter(long)
      Memcheck:Leak
      fun:_Znwj
      fun:_ZN38_GLOBAL__N__ZN6PyROOT14gConvFactoriesE23CreatePyObjectConverterEl
      fun:_ZN6PyROOT15CreateConverterERKSsl
      fun:_ZN6PyROOT13TMethodHolderINS_13TScopeAdapterENS_14TMemberAdapterEE13InitCallFunc_Ev
      fun:_ZN6PyROOT13TMethodHolderINS_13TScopeAdapterENS_14TMemberAdapterEE10InitializeEv
   }
   {
      boost::python::objects::py_function::py_function<boost::python::detail::caller<eformat::helper::u32slice#(*)(eformat::helper::u32slice#const=,#boost::python::slice#const=),#boost::python::with_custodian_and_ward_postcall<0u,#1u,#boost::python::default_call_policies>,#boost::mpl::vector3<eformat::helper::u32slice,#eformat::helper::u32slice#const=,#boost::python::slice#const=>#>#>(boost::python::detail::caller<eformat::helper::u32slice#(*)(eformat::helper::u32slice#const=,#boost::python::slice#const=),#boost::python::with_custodian_and_ward_postcall<0u,#1u,#boost::python::default_call_policies>,#boost::mpl::vector3<eformat::helper::u32slice,#eformat::helper::u32slice#const=,#boost::python::slice#const=>#>#const=)
      Memcheck:Leak
      fun:_Znwj
      fun:_ZN5boost6python7objects11py_functionC1INS0_6detail6callerIPFN7eformat6helper8u32sliceERKS8_RKNS0_5sliceEENS0_32with_custodian_and_ward_postcallILj0ELj1ENS0_21default_call_policiesEEENS_3mpl7vector3IS8_SA_SD_EEEEEERKT_
      fun:_ZN5boost6python6detail17make_function_auxIPFN7eformat6helper8u32sliceERKS5_RKNS0_5sliceEENS0_32with_custodian_and_ward_postcallILj0ELj1ENS0_21default_call_policiesEEENS_3mpl7vector3IS5_S7_SA_EEN4mpl_4int_ILi0EEEEENS0_3api6objectET_RKT0_RKT1_RKSt4pairIPKNS1_7keywordESY_ET2_
      fun:_ZN5boost6python13make_functionIPFN7eformat6helper8u32sliceERKS4_RKNS0_5sliceEENS0_32with_custodian_and_ward_postcallILj0ELj1ENS0_21default_call_policiesEEENS0_6detail8keywordsILj0EEENS_3mpl7vector3IS4_S6_S9_EEEENS0_3api6objectET_RKT0_RKT1_RKT2_
      fun:_ZN5boost6python6class_IN7eformat6helper8u32sliceENS0_6detail13not_specifiedES6_S6_E8def_implIS4_PFS4_RKS4_RKNS0_5sliceEENS5_10def_helperINS0_32with_custodian_and_ward_postcallILj0ELj1ENS0_21default_call_policiesEEES6_S6_S6_EEEEvPT_PKcT0_RKT1_z
   }
   {
      boost::python::objects::py_function::py_function<boost::python::detail::caller<bool#(*)(eformat::ROBFragment<unsigned#int#const*>=,#unsigned#short),#boost::python::default_call_policies,#boost::mpl::vector3<bool,#eformat::ROBFragment<unsigned#int#const*>=,#unsigned#short>#>#>(boost::python::detail::caller<bool#(*)(eformat::ROBFragment<unsigned#int#const*>=,#unsigned#short),#boost::python::default_call_policies,#boost::mpl::vector3<bool,#eformat::ROBFragment<unsigned#int#const*>=,#unsigned#short>#>#const=)
      Memcheck:Leak
      fun:_Znwj
      fun:_ZN5boost6python7objects11py_functionC1INS0_6detail6callerIPFbRN7eformat11ROBFragmentIPKjEEtENS0_21default_call_policiesENS_3mpl7vector3IbSB_tEEEEEERKT_
      fun:_ZN5boost6python6detail17make_function_auxIPFbRN7eformat11ROBFragmentIPKjEEtENS0_21default_call_policiesENS_3mpl7vector3IbS8_tEEN4mpl_4int_ILi0EEEEENS0_3api6objectET_RKT0_RKT1_RKSt4pairIPKNS1_7keywordESU_ET2_
      fun:_ZN5boost6python6detail27make_keyword_range_functionIPFbRN7eformat11ROBFragmentIPKjEEtENS0_21default_call_policiesENS_3mpl7vector3IbS8_tEEEENS0_3api6objectET_RKT0_RKSt4pairIPKNS1_7keywordESO_ERKT1_
      fun:_ZN5boost6python6detail14name_space_defIPFbRN7eformat11ROBFragmentIPKjEEtENS0_21default_call_policiesENS0_6class_IS7_NS0_5basesINS3_6HeaderIS6_EEN4mpl_5void_ESH_SH_SH_SH_SH_SH_SH_SH_EENS1_13not_specifiedESJ_EEEEvRT1_PKcT_RKSt4pairIPKNS1_7keywordEST_ERKT0_SO_PNS0_7objects10class_baseE
   }
   {
      Reflex::FunctionTypeBuilder(Reflex::Type#const=,#Reflex::Type#const=,#Reflex::Type#const=,#Reflex::Type#const=)
      Memcheck:Leak
      fun:_Znwj
      fun:_ZN6Reflex19FunctionTypeBuilderERKNS_4TypeES2_S2_S2_
      fun:_Z41__static_initialization_and_destruction_0ii
      fun:_GLOBAL__I__ZN21T_AthenaRootConverterIN5CLHEP12HepGenMatrixE15OldHepGenMatrixE12CopyOldToNewERKS2_RS1_
      obj:/afs/cern.ch/atlas/software/builds/nightlies/devval/AtlasCore/rel_5/Database/AtlasSealCLHEP/i686-slc4-gcc34-dbg/libAtlasSealCLHEPDict.so
   }
   {
      __gnu_cxx::new_allocator<G__CintSlHandle>::allocate(unsigned#int,#void#const*)
      Memcheck:Leak
      fun:_Znwj
      fun:_ZN9__gnu_cxx13new_allocatorI15G__CintSlHandleE8allocateEjPKv
      fun:_ZNSt12_Vector_baseI15G__CintSlHandleSaIS0_EE11_M_allocateEj
      fun:_ZNSt6vectorI15G__CintSlHandleSaIS0_EE13_M_insert_auxEN9__gnu_cxx17__normal_iteratorIPS0_S2_EERKS0_
      fun:_ZNSt6vectorI15G__CintSlHandleSaIS0_EE9push_backERKS0_
   }
   {
      nlnvmal
      Memcheck:Leak
      fun:malloc
      fun:nlnvmal
      fun:nlnvgst
      fun:nlnvpbi
      fun:nlnvpds
   }
   {
      PyROOT::MethodProxy::MethodInfo_t::MethodInfo_t()
      Memcheck:Leak
      fun:_Znwj
      fun:_ZN6PyROOT11MethodProxy12MethodInfo_tC1Ev
      fun:_ZN6PyROOT64_GLOBAL__N_bindings_pyroot_src_MethodProxy.cxx_17E02520_1BE785DB6mp_newEP11_typeobjectP7_objectS4_
      fun:_ZN6PyROOT15MethodProxy_NewERKSsRSt6vectorIPNS_10PyCallableESaIS4_EE
      fun:_ZN6PyROOT18BuildRootClassDictINS_13TScopeAdapterENS_12TBaseAdapterENS_14TMemberAdapterEEEiRKT_P7_object
   }
   {
      Reflex::Environ<__gnu_cxx::__normal_iterator<std::vector<float,#std::allocator<float>#>*,#std::vector<std::vector<float,#std::allocator<float>#>,#std::allocator<std::vector<float,#std::allocator<float>#>#>#>#>#>::Create()
      Memcheck:Leak
      fun:_Znwj
      fun:_ZN6Reflex7EnvironIN9__gnu_cxx17__normal_iteratorIPSt6vectorIfSaIfEES3_IS5_SaIS5_EEEEE6CreateEv
      fun:_ZNK19TGenCollectionProxy7Method06invokeEv
      fun:_ZN19TGenCollectionProxy9PushProxyEPv
      fun:_ZN23TVirtualCollectionProxy8TPushPopC1EPS_Pv
   }
   {
      G__make_ifunctable
      Memcheck:Leak
      fun:malloc
      fun:G__make_ifunctable
      fun:G__define_var
      fun:G__exec_statement
      fun:G__loadfile
   }
   {
      boost::python::objects::py_function::py_function<boost::python::detail::caller<void#(eformat::helper::DetectorMask::*)(eformat::SubDetector),#boost::python::default_call_policies,#boost::mpl::vector3<void,#eformat::helper::DetectorMask=,#eformat::SubDetector>#>#>(boost::python::detail::caller<void#(eformat::helper::DetectorMask::*)(eformat::SubDetector),#boost::python::default_call_policies,#boost::mpl::vector3<void,#eformat::helper::DetectorMask=,#eformat::SubDetector>#>#const=)
      Memcheck:Leak
      fun:_Znwj
      fun:_ZN5boost6python7objects11py_functionC1INS0_6detail6callerIMN7eformat6helper12DetectorMaskEFvNS6_11SubDetectorEENS0_21default_call_policiesENS_3mpl7vector3IvRS8_S9_EEEEEERKT_
      fun:_ZN5boost6python6detail17make_function_auxIMN7eformat6helper12DetectorMaskEFvNS3_11SubDetectorEENS0_21default_call_policiesENS_3mpl7vector3IvRS5_S6_EEN4mpl_4int_ILi0EEEEENS0_3api6objectET_RKT0_RKT1_RKSt4pairIPKNS1_7keywordEST_ET2_
      fun:_ZN5boost6python13make_functionIMN7eformat6helper12DetectorMaskEFvNS2_11SubDetectorEENS0_21default_call_policiesENS0_6detail8keywordsILj0EEENS_3mpl7vector3IvRS4_S5_EEEENS0_3api6objectET_RKT0_RKT1_RKT2_
      fun:_ZN5boost6python6class_IN7eformat6helper12DetectorMaskENS0_6detail13not_specifiedES6_S6_E8def_implIS4_MS4_FvNS2_11SubDetectorEENS5_10def_helperIPKcS6_S6_S6_EEEEvPT_SE_T0_RKT1_z
   }
   {
      boost::python::objects::py_function::py_function<boost::python::detail::caller<void#(*)(_object*,#std::basic_string<char,#std::char_traits<char>,#std::allocator<char>#>,#unsigned#int,#std::basic_string<char,#std::char_traits<char>,#std::allocator<char>#>,#std::basic_string<char,#std::char_traits<char>,#std::allocator<char>#>,#unsigned#int,#std::basic_string<char,#std::char_traits<char>,#std::allocator<char>#>,#std::basic_string<char,#std::char_traits<char>,#std::allocator<char>#>,#std::basic_string<char,#std::char_traits<char>,#std::allocator<char>#>,#unsigned#int),#boost::python::default_call_policies,#boost::mpl::vector11<void,#_object*,#std::basic_string<char,#std::char_traits<char>,#std::allocator<char>#>,#unsigned#int,#std::basic_string<char,#std::char_traits<char>,#std::allocator<char>#>,#std::basic_string<char,#std::char_traits<char>,#std::allocator<char>#>,#unsigned#int,#std::basic_string<char,#std::char_traits<char>,#std::allocator<char>#>,#std::basic_string<char,#std::char_traits<char>,#std::allocator<char>#>,#std::basic_string<char,#std::char_traits<char>,#std::allocator<char>#>,#unsigned#int>#>#>(boost::python::detail::caller<void#(*)(_object*,#std::basic_string<char,#std::char_traits<char>,#std::allocator<char>#>,#unsigned#int,#std::basic_string<char,#std::char_traits<char>,#std::allocator<char>#>,#std::basic_string<char,#std::char_traits<char>,#std::allocator<char>#>,#unsigned#int,#std::basic_string<char,#std::char_traits<char>,#std::allocator<char>#>,#std::basic_string<char,#std::char_traits<char>,#std::allocator<char>#>,#std::basic_string<char,#std::char_traits<char>,#std::allocator<char>#>,#unsigned#int),#boost::python::default_call_policies,#boost::mpl::vector11<void,#_object*,#std::basic_string<char,#std::char_traits<char>,#std::allocator<char>#>,#unsigned#int,#std::basic_string<char,#std::char_traits<char>,#std::allocator<char>#>,#std::basic_string<char,#std::char_traits<char>,#std::allocator<char>#>,#unsigned#int,#std::basic_string<char,#std::char_traits<char>,#std::allocator<char>#>,#std::basic_string<char,#std::char_traits<char>,#std::allocator<char>#>,#std::basic_string<char,#std::char_traits<char>,#std::allocator<char>#>,#unsigned#int>#>#const=)
      Memcheck:Leak
      fun:_Znwj
      fun:_ZN5boost6python7objects11py_functionC1INS0_6detail6callerIPFvP7_objectSsjSsSsjSsSsSsjENS0_21default_call_policiesENS_3mpl8vector11IvS7_SsjSsSsjSsSsSsjEEEEEERKT_
      fun:_ZN5boost6python6detail17make_function_auxIPFvP7_objectSsjSsSsjSsSsSsjENS0_21default_call_policiesENS_3mpl8vector11IvS4_SsjSsSsjSsSsSsjEEN4mpl_4int_ILi0EEEEENS0_3api6objectET_RKT0_RKT1_RKSt4pairIPKNS1_7keywordESQ_ET2_
      fun:_ZN5boost6python6detail27make_keyword_range_functionIPFvP7_objectSsjSsSsjSsSsSsjENS0_21default_call_policiesEEENS0_3api6objectET_RKT0_RKSt4pairIPKNS1_7keywordESH_E
      fun:_ZN5boost6python6detail30make_keyword_range_constructorINS_3mpl10joint_viewINS1_5drop1INS1_9type_listISsjSsSsjSsNS0_8optionalISsSsjSsN4mpl_5void_ES9_S9_S9_S9_S9_S9_S9_S9_S9_S9_EES9_S9_S9_S9_S9_S9_S9_S9_S9_S9_EEEESA_EENS8_10integral_cIlLl9EEENS0_7objects12value_holderIN3daq11RawFileNameEEENS0_21default_call_policiesEEENS0_3api6objectERKT2_RKSt4pairIPKNS1_7keywordESU_EPT1_PT_PT0_
   }
   {
      boost::python::objects::py_function::py_function<boost::python::detail::caller<unsigned#char#(eformat::FullEventFragment<unsigned#int#const*>::*)()#const,#boost::python::default_call_policies,#boost::mpl::vector2<unsigned#char,#eformat::FullEventFragment<unsigned#int#const*>=>#>#>(boost::python::detail::caller<unsigned#char#(eformat::FullEventFragment<unsigned#int#const*>::*)()#const,#boost::python::default_call_policies,#boost::mpl::vector2<unsigned#char,#eformat::FullEventFragment<unsigned#int#const*>=>#>#const=)
      Memcheck:Leak
      fun:_Znwj
      fun:_ZN5boost6python7objects11py_functionC1INS0_6detail6callerIMN7eformat17FullEventFragmentIPKjEEKFhvENS0_21default_call_policiesENS_3mpl7vector2IhRSA_EEEEEERKT_
      fun:_ZN5boost6python6detail17make_function_auxIMN7eformat17FullEventFragmentIPKjEEKFhvENS0_21default_call_policiesENS_3mpl7vector2IhRS7_EEN4mpl_4int_ILi0EEEEENS0_3api6objectET_RKT0_RKT1_RKSt4pairIPKNS1_7keywordESU_ET2_
      fun:_ZN5boost6python13make_functionIMN7eformat17FullEventFragmentIPKjEEKFhvENS0_21default_call_policiesENS0_6detail8keywordsILj0EEENS_3mpl7vector2IhRS6_EEEENS0_3api6objectET_RKT0_RKT1_RKT2_
      fun:_ZN5boost6python6class_IN7eformat17FullEventFragmentIPKjEENS_10shared_ptrIS6_EENS0_5basesINS2_6HeaderIS5_EEN4mpl_5void_ESD_SD_SD_SD_SD_SD_SD_SD_EENS0_6detail13not_specifiedEE8def_implIS6_MS6_KFhvENSF_10def_helperIPKcSG_SG_SG_EEEEvPT_SN_T0_RKT1_z
   }
   {
      boost::python::handle<_object>#boost::python::objects::make_function_handle<boost::python::tuple#(*)(boost::python::api::object)>(boost::python::tuple#(*)(boost::python::api::object))
      Memcheck:Leak
      fun:_Znwj
      fun:_ZN5boost6python7objects20make_function_handleIPFNS0_5tupleENS0_3api6objectEEEENS0_6handleI7_objectEET_
      fun:_ZN5boost6python3api23object_base_initializerIPFNS0_5tupleENS1_6objectEEEEP7_objectRKT_
      fun:_ZN5boost6python29make_instance_reduce_functionEv
      fun:_ZN5boost6python7objects41_GLOBAL__N__ZN5boost6python7self_ns4selfE9new_classEPKcjPKNS0_9type_infoES4_
   }
   {
      boost::python::objects::py_function::py_function<boost::python::detail::caller<void#(daq::RawFileName::*)(std::basic_string<char,#std::char_traits<char>,#std::allocator<char>#>,#unsigned#int,#std::basic_string<char,#std::char_traits<char>,#std::allocator<char>#>,#std::basic_string<char,#std::char_traits<char>,#std::allocator<char>#>,#unsigned#int,#std::basic_string<char,#std::char_traits<char>,#std::allocator<char>#>,#std::basic_string<char,#std::char_traits<char>,#std::allocator<char>#>,#std::basic_string<char,#std::char_traits<char>,#std::allocator<char>#>),#boost::python::default_call_policies,#boost::mpl::vector10<void,#daq::RawFileName=,#std::basic_string<char,#std::char_traits<char>,#std::allocator<char>#>,#unsigned#int,#std::basic_string<char,#std::char_traits<char>,#std::allocator<char>#>,#std::basic_string<char,#std::char_traits<char>,#std::allocator<char>#>,#unsigned#int,#std::basic_string<char,#std::char_traits<char>,#std::allocator<char>#>,#std::basic_string<char,#std::char_traits<char>,#std::allocator<char>#>,#std::basic_string<char,#std::char_traits<char>,#std::allocator<char>#>#>#>#>(boost::python::detail::caller<void#(daq::RawFileName::*)(std::basic_string<char,#std::char_traits<char>,#std::allocator<char>#>,#unsigned#int,#std::basic_string<char,#std::char_traits<char>,#std::allocator<char>#>,#std::basic_string<char,#std::char_traits<char>,#std::allocator<char>#>,#unsigned#int,#std::basic_string<char,#std::char_traits<char>,#std::allocator<char>#>,#std::basic_string<char,#std::char_traits<char>,#std::allocator<char>#>,#std::basic_string<char,#std::char_traits<char>,#std::allocator<char>#>),#boost::python::default_call_policies,#boost::mpl::vector10<void,#daq::RawFileName=,#std::basic_string<char,#std::char_traits<char>,#std::allocator<char>#>,#unsigned#int,#std::basic_string<char,#std::char_traits<char>,#std::allocator<char>#>,#std::basic_string<char,#std::char_traits<char>,#std::allocator<char>#>,#unsigned#int,#std::basic_string<char,#std::char_traits<char>,#std::allocator<char>#>,#std::basic_string<char,#std::char_traits<char>,#std::allocator<char>#>,#std::basic_string<char,#std::char_traits<char>,#std::allocator<char>#>#>#>#const=)
      Memcheck:Leak
      fun:_Znwj
      fun:_ZN5boost6python7objects11py_functionC1INS0_6detail6callerIMN3daq11RawFileNameEFvSsjSsSsjSsSsSsENS0_21default_call_policiesENS_3mpl8vector10IvRS7_SsjSsSsjSsSsSsEEEEEERKT_
      fun:_ZN5boost6python6detail17make_function_auxIMN3daq11RawFileNameEFvSsjSsSsjSsSsSsENS0_21default_call_policiesENS_3mpl8vector10IvRS4_SsjSsSsjSsSsSsEEN4mpl_4int_ILi0EEEEENS0_3api6objectET_RKT0_RKT1_RKSt4pairIPKNS1_7keywordESR_ET2_
      fun:_ZN5boost6python13make_functionIMN3daq11RawFileNameEFvSsjSsSsjSsSsSsENS0_21default_call_policiesENS0_6detail8keywordsILj0EEENS_3mpl8vector10IvRS3_SsjSsSsjSsSsSsEEEENS0_3api6objectET_RKT0_RKT1_RKT2_
      fun:_ZN5boost6python6class_IN3daq11RawFileNameENS0_6detail13not_specifiedES5_S5_E8def_implIS3_MS3_FvSsjSsSsjSsSsSsENS4_10def_helperIPKcS5_S5_S5_EEEEvPT_SC_T0_RKT1_z
   }
   {
      PyInterpreterState_New
      Memcheck:Leak
      fun:malloc
      fun:PyInterpreterState_New
      fun:Py_InitializeEx
      fun:Py_Initialize
      fun:Py_Main
   }
   {
      Reflex::FunctionTypeBuilder(Reflex::Type#const=,#Reflex::Type#const=,#Reflex::Type#const=,#Reflex::Type#const=,#Reflex::Type#const=,#Reflex::Type#const=,#Reflex::Type#const=,#Reflex::Type#const=,#Reflex::Type#const=,#Reflex::Type#const=,#Reflex::Type#const=,#Reflex::Type#const=,#Reflex::Type#const=)
      Memcheck:Leak
      fun:_Znwj
      fun:_ZN6Reflex19FunctionTypeBuilderERKNS_4TypeES2_S2_S2_S2_S2_S2_S2_S2_S2_S2_S2_S2_
      fun:_ZN103_GLOBAL__N_.._i686_slc4_gcc34_dbg_dict_CaloConditions_CaloConditionsDict_gen_rflx.cpp_9D2164D3_1F6E479917__CaloEMFrac_dictEv
      fun:_ZN103_GLOBAL__N_.._i686_slc4_gcc34_dbg_dict_CaloConditions_CaloConditionsDict_gen_rflx.cpp_9D2164D3_1F6E4799103_GLOBAL__N_.._i686_slc4_gcc34_dbg_dict_CaloConditions_CaloConditionsDict_gen_rflx.cpp_9D2164D3_1F6E479912DictionariesC1Ev
      fun:_Z41__static_initialization_and_destruction_0ii
   }
   {
      TCint::CreateListOfMethods(TClass*)
      Memcheck:Leak
      fun:_Znwj
      fun:_ZN5TCint19CreateListOfMethodsEP6TClass
      fun:_ZN6TClass16GetListOfMethodsEv
      fun:_ZNK6PyROOT13TScopeAdapter18FunctionMemberSizeEv
      fun:_ZN6PyROOT23MakeRootClassFromStringINS_13TScopeAdapterENS_12TBaseAdapterENS_14TMemberAdapterEEEP7_objectRKSsS5_
   }
   {
      PyThread_allocate_lock
      Memcheck:Leak
      fun:malloc
      fun:PyThread_allocate_lock
      fun:PyThread_create_key
      fun:_PyGILState_Init
      fun:Py_InitializeEx
   }
   {
      Reflex::FunctionMemberTemplateInstance::FunctionMemberTemplateInstance(char#const*,#Reflex::Type#const=,#void#(*)(void*,#void*,#std::vector<void*,#std::allocator<void*>#>#const=,#void*),#void*,#char#const*,#unsigned#int,#Reflex::Scope#const=)
      Memcheck:Leak
      fun:_Znwj
      fun:_ZN6Reflex30FunctionMemberTemplateInstanceC1EPKcRKNS_4TypeEPFvPvS6_RKSt6vectorIS6_SaIS6_EES6_ES6_S2_jRKNS_5ScopeE
      fun:_ZN6Reflex15FunctionBuilderC1ERKNS_4TypeEPKcPFvPvS6_RKSt6vectorIS6_SaIS6_EES6_ES6_S5_h
      fun:_ZN88_GLOBAL__N_.._i686_slc4_gcc34_dbg_dict_GaudiKernel_dictionary_dict.cpp_17E02520_101EBE7888_GLOBAL__N_.._i686_slc4_gcc34_dbg_dict_GaudiKernel_dictionary_dict.cpp_17E02520_101EBE7812DictionariesC1Ev
      fun:_Z41__static_initialization_and_destruction_0ii
   }
   {
      TGenCollectionProxy::InitializeEx()
      Memcheck:Leak
      fun:_Znwj
      fun:_ZN19TGenCollectionProxy12InitializeExEv
      fun:_ZNK19TGenCollectionProxy10InitializeEv
      fun:_ZN19TGenCollectionProxy13GetValueClassEv
      fun:_ZN14TBuildRealData7InspectEP6TClassPKcS3_PKv
   }
   {
      __gnu_cxx::new_allocator<std::_Rb_tree_node<std::pair<std::type_info#const*#const,#SG::BaseInfoBaseImpl::info>#>#>::allocate(unsigned#int,#void#const*)
      Memcheck:Leak
      fun:_Znwj
      fun:_ZN9__gnu_cxx13new_allocatorISt13_Rb_tree_nodeISt4pairIKPKSt9type_infoN2SG16BaseInfoBaseImpl4infoEEEE8allocateEjPKv
      fun:_ZNSt8_Rb_treeIPKSt9type_infoSt4pairIKS2_N2SG16BaseInfoBaseImpl4infoEESt10_Select1stIS8_ESt4lessIS2_ESaIS8_EE11_M_get_nodeEv
      fun:_ZNSt8_Rb_treeIPKSt9type_infoSt4pairIKS2_N2SG16BaseInfoBaseImpl4infoEESt10_Select1stIS8_ESt4lessIS2_ESaIS8_EE14_M_create_nodeERKS8_
      fun:_ZNSt8_Rb_treeIPKSt9type_infoSt4pairIKS2_N2SG16BaseInfoBaseImpl4infoEESt10_Select1stIS8_ESt4lessIS2_ESaIS8_EE9_M_insertEPSt18_Rb_tree_node_baseSG_RKS8_
   }
   {
      lpmpali
      Memcheck:Leak
      fun:malloc
      fun:lpmpali
      fun:lpmloadpkg
      fun:lfvLoadPkg
      fun:lfvSetShlMode
   }
   {
      TStringRef::GetRep(int,#int)
      Memcheck:Leak
      fun:_Znaj
      fun:_ZN10TStringRef6GetRepEii
      fun:_ZN7TString7ReplaceEiiPKci
      fun:_ZN7TStringaSEPKc
      fun:_ZN6TNamed7SetNameEPKc
   }
   {
      TCollectionProxyFactory::GenExplicitClassStreamer(ROOT::TCollectionProxyInfo#const=,#TClass*)
      Memcheck:Leak
      fun:_Znwj
      fun:_ZN23TCollectionProxyFactory24GenExplicitClassStreamerERKN4ROOT20TCollectionProxyInfoEP6TClass
      fun:_ZN4pool11createClassEN6Reflex4TypeEPN4ROOT17TGenericClassInfoE
      fun:_ZN4ROOT6Cintex21ROOTClassEnhancerInfo15Stub_DictionaryEPv
      obj:*
   }
   {
      boost::python::objects::py_function::py_function<boost::python::detail::caller<void#(*)(eformat::write::ROBFragment=,#eformat::helper::u32list#const=),#boost::python::with_custodian_and_ward<1u,#2u,#boost::python::default_call_policies>,#boost::mpl::vector3<void,#eformat::write::ROBFragment=,#eformat::helper::u32list#const=>#>#>(boost::python::detail::caller<void#(*)(eformat::write::ROBFragment=,#eformat::helper::u32list#const=),#boost::python::with_custodian_and_ward<1u,#2u,#boost::python::default_call_policies>,#boost::mpl::vector3<void,#eformat::write::ROBFragment=,#eformat::helper::u32list#const=>#>#const=)
      Memcheck:Leak
      fun:_Znwj
      fun:_ZN5boost6python7objects11py_functionC1INS0_6detail6callerIPFvRN7eformat5write11ROBFragmentERKNS6_6helper7u32listEENS0_23with_custodian_and_wardILj1ELj2ENS0_21default_call_policiesEEENS_3mpl7vector3IvS9_SD_EEEEEERKT_
      fun:_ZN5boost6python6detail17make_function_auxIPFvRN7eformat5write11ROBFragmentERKNS3_6helper7u32listEENS0_23with_custodian_and_wardILj1ELj2ENS0_21default_call_policiesEEENS_3mpl7vector3IvS6_SA_EEN4mpl_4int_ILi0EEEEENS0_3api6objectET_RKT0_RKT1_RKSt4pairIPKNS1_7keywordESY_ET2_
      fun:_ZN5boost6python13make_functionIPFvRN7eformat5write11ROBFragmentERKNS2_6helper7u32listEENS0_23with_custodian_and_wardILj1ELj2ENS0_21default_call_policiesEEENS0_6detail8keywordsILj0EEENS_3mpl7vector3IvS5_S9_EEEENS0_3api6objectET_RKT0_RKT1_RKT2_
      fun:_ZN5boost6python6class_IN7eformat5write11ROBFragmentENS0_6detail13not_specifiedES6_S6_E8def_implIS4_PFvRS4_RKNS2_6helper7u32listEENS5_10def_helperINS0_23with_custodian_and_wardILj1ELj2ENS0_21default_call_policiesEEES6_S6_S6_EEEEvPT_PKcT0_RKT1_z
   }
   {
      boost::python::objects::py_function::py_function<boost::python::detail::caller<boost::python::list#(*)(eformat::helper::u32slice#const=,#boost::python::slice#const=),#boost::python::default_call_policies,#boost::mpl::vector3<boost::python::list,#eformat::helper::u32slice#const=,#boost::python::slice#const=>#>#>(boost::python::detail::caller<boost::python::list#(*)(eformat::helper::u32slice#const=,#boost::python::slice#const=),#boost::python::default_call_policies,#boost::mpl::vector3<boost::python::list,#eformat::helper::u32slice#const=,#boost::python::slice#const=>#>#const=)
      Memcheck:Leak
      fun:_Znwj
      fun:_ZN5boost6python7objects11py_functionC1INS0_6detail6callerIPFNS0_4listERKN7eformat6helper8u32sliceERKNS0_5sliceEENS0_21default_call_policiesENS_3mpl7vector3IS6_SB_SE_EEEEEERKT_
      fun:_ZN5boost6python6detail17make_function_auxIPFNS0_4listERKN7eformat6helper8u32sliceERKNS0_5sliceEENS0_21default_call_policiesENS_3mpl7vector3IS3_S8_SB_EEN4mpl_4int_ILi0EEEEENS0_3api6objectET_RKT0_RKT1_RKSt4pairIPKNS1_7keywordESX_ET2_
      fun:_ZN5boost6python13make_functionIPFNS0_4listERKN7eformat6helper8u32sliceERKNS0_5sliceEENS0_21default_call_policiesENS0_6detail8keywordsILj0EEENS_3mpl7vector3IS2_S7_SA_EEEENS0_3api6objectET_RKT0_RKT1_RKT2_
      fun:_ZN5boost6python6class_IN7eformat6helper8u32sliceENS0_6detail13not_specifiedES6_S6_E8def_implIS4_PFNS0_4listERKS4_RKNS0_5sliceEENS5_10def_helperIPKcS6_S6_S6_EEEEvPT_SJ_T0_RKT1_z
   }
   {
      boost::python::objects::py_function::py_function<boost::python::detail::caller<void#(eformat::write::ROBFragment::*)(eformat::write::ROBFragment#const=),#boost::python::with_custodian_and_ward<1u,#2u,#boost::python::default_call_policies>,#boost::mpl::vector3<void,#eformat::write::ROBFragment=,#eformat::write::ROBFragment#const=>#>#>(boost::python::detail::caller<void#(eformat::write::ROBFragment::*)(eformat::write::ROBFragment#const=),#boost::python::with_custodian_and_ward<1u,#2u,#boost::python::default_call_policies>,#boost::mpl::vector3<void,#eformat::write::ROBFragment=,#eformat::write::ROBFragment#const=>#>#const=)
      Memcheck:Leak
      fun:_Znwj
      fun:_ZN5boost6python7objects11py_functionC1INS0_6detail6callerIMN7eformat5write11ROBFragmentEFvRKS8_ENS0_23with_custodian_and_wardILj1ELj2ENS0_21default_call_policiesEEENS_3mpl7vector3IvRS8_SA_EEEEEERKT_
      fun:_ZN5boost6python6detail17make_function_auxIMN7eformat5write11ROBFragmentEFvRKS5_ENS0_23with_custodian_and_wardILj1ELj2ENS0_21default_call_policiesEEENS_3mpl7vector3IvRS5_S7_EEN4mpl_4int_ILi0EEEEENS0_3api6objectET_RKT0_RKT1_RKSt4pairIPKNS1_7keywordESW_ET2_
      fun:_ZN5boost6python13make_functionIMN7eformat5write11ROBFragmentEFvRKS4_ENS0_23with_custodian_and_wardILj1ELj2ENS0_21default_call_policiesEEENS0_6detail8keywordsILj0EEENS_3mpl7vector3IvRS4_S6_EEEENS0_3api6objectET_RKT0_RKT1_RKT2_
      fun:_ZN5boost6python6class_IN7eformat5write11ROBFragmentENS0_6detail13not_specifiedES6_S6_E8def_implIS4_MS4_FvRKS4_ENS5_10def_helperINS0_23with_custodian_and_wardILj1ELj2ENS0_21default_call_policiesEEES6_S6_S6_EEEEvPT_PKcT0_RKT1_z
   }
   {
      boost::python::objects::py_function::py_function<boost::python::detail::caller<void#(*)(eformat::write::ROBFragment=,#eformat::helper::u32slice#const=),#boost::python::with_custodian_and_ward<1u,#2u,#boost::python::default_call_policies>,#boost::mpl::vector3<void,#eformat::write::ROBFragment=,#eformat::helper::u32slice#const=>#>#>(boost::python::detail::caller<void#(*)(eformat::write::ROBFragment=,#eformat::helper::u32slice#const=),#boost::python::with_custodian_and_ward<1u,#2u,#boost::python::default_call_policies>,#boost::mpl::vector3<void,#eformat::write::ROBFragment=,#eformat::helper::u32slice#const=>#>#const=)
      Memcheck:Leak
      fun:_Znwj
      fun:_ZN5boost6python7objects11py_functionC1INS0_6detail6callerIPFvRN7eformat5write11ROBFragmentERKNS6_6helper8u32sliceEENS0_23with_custodian_and_wardILj1ELj2ENS0_21default_call_policiesEEENS_3mpl7vector3IvS9_SD_EEEEEERKT_
      fun:_ZN5boost6python6detail17make_function_auxIPFvRN7eformat5write11ROBFragmentERKNS3_6helper8u32sliceEENS0_23with_custodian_and_wardILj1ELj2ENS0_21default_call_policiesEEENS_3mpl7vector3IvS6_SA_EEN4mpl_4int_ILi0EEEEENS0_3api6objectET_RKT0_RKT1_RKSt4pairIPKNS1_7keywordESY_ET2_
      fun:_ZN5boost6python13make_functionIPFvRN7eformat5write11ROBFragmentERKNS2_6helper8u32sliceEENS0_23with_custodian_and_wardILj1ELj2ENS0_21default_call_policiesEEENS0_6detail8keywordsILj0EEENS_3mpl7vector3IvS5_S9_EEEENS0_3api6objectET_RKT0_RKT1_RKT2_
      fun:_ZN5boost6python6class_IN7eformat5write11ROBFragmentENS0_6detail13not_specifiedES6_S6_E8def_implIS4_PFvRS4_RKNS2_6helper8u32sliceEENS5_10def_helperINS0_23with_custodian_and_wardILj1ELj2ENS0_21default_call_policiesEEES6_S6_S6_EEEEvPT_PKcT0_RKT1_z
   }
   {
      boost::python::objects::py_function::py_function<boost::python::detail::caller<void#(*)(std::vector<eformat::helper::StreamTag,#std::allocator<eformat::helper::StreamTag>#>=,#_object*),#boost::python::default_call_policies,#boost::mpl::vector3<void,#std::vector<eformat::helper::StreamTag,#std::allocator<eformat::helper::StreamTag>#>=,#_object*>#>#>(boost::python::detail::caller<void#(*)(std::vector<eformat::helper::StreamTag,#std::allocator<eformat::helper::StreamTag>#>=,#_object*),#boost::python::default_call_policies,#boost::mpl::vector3<void,#std::vector<eformat::helper::StreamTag,#std::allocator<eformat::helper::StreamTag>#>=,#_object*>#>#const=)
      Memcheck:Leak
      fun:_Znwj
      fun:_ZN5boost6python7objects11py_functionC1INS0_6detail6callerIPFvRSt6vectorIN7eformat6helper9StreamTagESaIS9_EEP7_objectENS0_21default_call_policiesENS_3mpl7vector3IvSC_SE_EEEEEERKT_
      fun:_ZN5boost6python6detail17make_function_auxIPFvRSt6vectorIN7eformat6helper9StreamTagESaIS6_EEP7_objectENS0_21default_call_policiesENS_3mpl7vector3IvS9_SB_EEN4mpl_4int_ILi0EEEEENS0_3api6objectET_RKT0_RKT1_RKSt4pairIPKNS1_7keywordESX_ET2_
      fun:_ZN5boost6python13make_functionIPFvRSt6vectorIN7eformat6helper9StreamTagESaIS5_EEP7_objectENS0_21default_call_policiesENS0_6detail8keywordsILj0EEENS_3mpl7vector3IvS8_SA_EEEENS0_3api6objectET_RKT0_RKT1_RKT2_
      fun:_ZN5boost6python6class_ISt6vectorIN7eformat6helper9StreamTagESaIS5_EENS0_6detail13not_specifiedES9_S9_E8def_implIS7_PFvRS7_P7_objectENS8_10def_helperIPKcS9_S9_S9_EEEEvPT_SJ_T0_RKT1_z
   }
   {
      __gnu_cxx::new_allocator<ROOT::Cintex::StubContext_t*>::allocate(unsigned#int,#void#const*)
      Memcheck:Leak
      fun:_Znwj
      fun:_ZN9__gnu_cxx13new_allocatorIPN4ROOT6Cintex13StubContext_tEE8allocateEjPKv
      fun:_ZNSt12_Vector_baseIPN4ROOT6Cintex13StubContext_tESaIS3_EE11_M_allocateEj
      fun:_ZNSt6vectorIPN4ROOT6Cintex13StubContext_tESaIS3_EE13_M_insert_auxEN9__gnu_cxx17__normal_iteratorIPS3_S5_EERKS3_
      fun:_ZNSt6vectorIPN4ROOT6Cintex13StubContext_tESaIS3_EE9push_backERKS3_
   }
   {
      boost::python::objects::py_function::py_function<boost::python::detail::caller<boost::python::objects::detail::py_iter_<std::map<eformat::helper::SourceIdentifier,#eformat::ROBFragment<unsigned#int#const*>,#std::less<eformat::helper::SourceIdentifier>,#std::allocator<std::pair<eformat::helper::SourceIdentifier#const,#eformat::ROBFragment<unsigned#int#const*>#>#>#>,#std::_Rb_tree_iterator<std::pair<eformat::helper::SourceIdentifier#const,#eformat::ROBFragment<unsigned#int#const*>#>#>,#boost::_bi::protected_bind_t<boost::_bi::bind_t<std::_Rb_tree_iterator<std::pair<eformat::helper::SourceIdentifier#const,#eformat::ROBFragment<unsigned#int#const*>#>#>,#std::_Rb_tree_iterator<std::pair<eformat::helper::SourceIdentifier#const,#eformat::ROBFragment<unsigned#int#const*>#>#>#(*)(std::map<eformat::helper::SourceIdentifier,#eformat::ROBFragment<unsigned#int#const*>,#std::less<eformat::helper::SourceIdentifier>,#std::allocator<std::pair<eformat::helper::SourceIdentifier#const,#eformat::ROBFragment<unsigned#int#const*>#>#>#>=),#boost::_bi::list1<boost::arg<1>#(*)()>#>#>,#boost::_bi::protected_bind_t<boost::_bi::bind_t<std::_Rb_tree_iterator<std::pair<eformat::helper::SourceIdentifier#const,#eformat::ROBFragment<unsigned#int#const*>#>#>,#std::_Rb_tree_iterator<std::pair<eformat::helper::SourceIdentifier#const,#eformat::ROBFragment<unsigned#int#const*>#>#>#(*)(std::map<eformat::helper::SourceIdentifier,#eformat::ROBFragment<unsigned#int#const*>,#std::less<eformat::helper::SourceIdentifier>,#std::allocator<std::pair<eformat::helper::SourceIdentifier#const,#eformat::ROBFragment<unsigned#int#const*>#>#>#>=),#boost::_bi::list1<boost::arg<1>#(*)()>#>#>,#boost::python::return_internal_reference<1u,#boost::python::default_call_policies>#>,#boost::python::default_call_policies,#boost::mpl::vector2<boost::python::objects::iterator_range<boost::python::return_internal_reference<1u,#boost::python::default_call_policies>,#std::_Rb_tree_iterator<std::pair<eformat::helper::SourceIdentifier#const,#eformat::ROBFragment<unsigned#int#const*>#>#>#>,#boost::python::back_reference<std::map<eformat::helper::SourceIdentifier,#eformat::ROBFragment<unsigned#int#const*>,#std::less<eformat::helper::SourceIdentifier>,#std::allocator<std::pair<eformat::helper::SourceIdentifier#const,#eformat::ROBFragment<unsigned#int#const*>#>#>#>=>#>#>#>(boost::python::detail::caller<boost::python::objects::detail::py_iter_<std::map<eformat::helper::SourceIdentifier,#eformat::ROBFragment<unsigned#int#const*>,#std::less<eformat::helper::SourceIdentifier>,#std::allocator<std::pair<eformat::helper::SourceIdentifier#const,#eformat::ROBFragment<unsigned#int#const*>#>#>#>,#std::_Rb_tree_iterator<std::pair<eformat::helper::SourceIdentifier#const,#eformat::ROBFragment<unsigned#int#const*>#>#>,#boost::_bi::protected_bind_t<boost::_bi::bind_t<std::_Rb_tree_iterator<std::pair<eformat::helper::SourceIdentifier#const,#eformat::ROBFragment<unsigned#int#const*>#>#>,#std::_Rb_tree_iterator<std::pair<eformat::helper::SourceIdentifier#const,#eformat::ROBFragment<unsigned#int#const*>#>#>#(*)(std::map<eformat::helper::SourceIdentifier,#eformat::ROBFragment<unsigned#int#const*>,#std::less<eformat::helper::SourceIdentifier>,#std::allocator<std::pair<eformat::helper::SourceIdentifier#const,#eformat::ROBFragment<unsigned#int#const*>#>#>#>=),#boost::_bi::list1<boost::arg<1>#(*)()>#>#>,#boost::_bi::protected_bind_t<boost::_bi::bind_t<std::_Rb_tree_iterator<std::pair<eformat::helper::SourceIdentifier#const,#eformat::ROBFragment<unsigned#int#const*>#>#>,#std::_Rb_tree_iterator<std::pair<eformat::helper::SourceIdentifier#const,#eformat::ROBFragment<unsigned#int#const*>#>#>#(*)(std::map<eformat::helper::SourceIdentifier,#eformat::ROBFragment<unsigned#int#const*>,#std::less<eformat::helper::SourceIdentifier>,#std::allocator<std::pair<eformat::helper::SourceIdentifier#const,#eformat::ROBFragment<unsigned#int#const*>#>#>#>=),#boost::_bi::list1<boost::arg<1>#(*)()>#>#>,#boost::python::return_internal_reference<1u,#boost::python::default_call_policies>#>,#boost::python::default_call_policies,#boost::mpl::vector2<boost::python::objects::iterator_range<boost::python::return_internal_reference<1u,#boost::python::default_call_policies>,#std::_Rb_tree_iterator<std::pair<eformat::helper::SourceIdentifier#const,#eformat::ROBFragment<unsigned#int#const*>#>#>#>,#boost::python::back_reference<std::map<eformat::helper::SourceIdentifier,#eformat::ROBFragment<unsigned#int#const*>,#std::less<eformat::helper::SourceIdentifier>,#std::allocator<std::pair<eformat::helper::SourceIdentifier#const,#eformat::ROBFragment<unsigned#int#const*>#>#>#>=>#>#>#const=)
      Memcheck:Leak
      fun:_Znwj
      fun:_ZN5boost6python7objects11py_functionC1INS0_6detail6callerINS1_6detail8py_iter_ISt3mapIN7eformat6helper16SourceIdentifierENS9_11ROBFragmentIPKjEESt4lessISB_ESaISt4pairIKSB_SF_EEESt17_Rb_tree_iteratorISK_ENS_3_bi16protected_bind_tINSP_6bind_tISO_PFSO_RSM_ENSP_5list1IPFNS_3argILi1EEEvEEEEEEES12_NS0_25return_internal_referenceILj1ENS0_21default_call_policiesEEEEES14_NS_3mpl7vector2INS1_14iterator_rangeIS15_SO_EENS0_14back_referenceISS_EEEEEEEERKT_
      fun:_ZN5boost6python6detail17make_function_auxINS0_7objects6detail8py_iter_ISt3mapIN7eformat6helper16SourceIdentifierENS7_11ROBFragmentIPKjEESt4lessIS9_ESaISt4pairIKS9_SD_EEESt17_Rb_tree_iteratorISI_ENS_3_bi16protected_bind_tINSN_6bind_tISM_PFSM_RSK_ENSN_5list1IPFNS_3argILi1EEEvEEEEEEES10_NS0_25return_internal_referenceILj1ENS0_21default_call_policiesEEEEES12_NS_3mpl7vector2INS3_14iterator_rangeIS13_SM_EENS0_14back_referenceISQ_EEEEEENS0_3api6objectET_RKT0_RKT1_
      fun:_ZN5boost6python6detail22make_function_dispatchINS0_7objects6detail8py_iter_ISt3mapIN7eformat6helper16SourceIdentifierENS7_11ROBFragmentIPKjEESt4lessIS9_ESaISt4pairIKS9_SD_EEESt17_Rb_tree_iteratorISI_ENS_3_bi16protected_bind_tINSN_6bind_tISM_PFSM_RSK_ENSN_5list1IPFNS_3argILi1EEEvEEEEEEES10_NS0_25return_internal_referenceILj1ENS0_21default_call_policiesEEEEES12_NS_3mpl7vector2INS3_14iterator_rangeIS13_SM_EENS0_14back_referenceISQ_EEEEEENS0_3api6objectET_RKT0_RKT1_N4mpl_5bool_ILb0EEE
      fun:_ZN5boost6python13make_functionINS0_7objects6detail8py_iter_ISt3mapIN7eformat6helper16SourceIdentifierENS6_11ROBFragmentIPKjEESt4lessIS8_ESaISt4pairIKS8_SC_EEESt17_Rb_tree_iteratorISH_ENS_3_bi16protected_bind_tINSM_6bind_tISL_PFSL_RSJ_ENSM_5list1IPFNS_3argILi1EEEvEEEEEEESZ_NS0_25return_internal_referenceILj1ENS0_21default_call_policiesEEEEES11_NS_3mpl7vector2INS2_14iterator_rangeIS12_SL_EENS0_14back_referenceISP_EEEEEENS0_3api6objectET_RKT0_RKT1_
   }
   {
      Reflex::FunctionBuilder::FunctionBuilder(Reflex::Type#const=,#char#const*,#void#(*)(void*,#void*,#std::vector<void*,#std::allocator<void*>#>#const=,#void*),#void*,#char#const*,#unsigned#char)
      Memcheck:Leak
      fun:_Znwj
      fun:_ZN6Reflex15FunctionBuilderC1ERKNS_4TypeEPKcPFvPvS6_RKSt6vectorIS6_SaIS6_EES6_ES6_S5_h
      fun:_ZN88_GLOBAL__N_.._i686_slc4_gcc34_dbg_dict_GaudiKernel_dictionary_dict.cpp_17E02520_101EBE7888_GLOBAL__N_.._i686_slc4_gcc34_dbg_dict_GaudiKernel_dictionary_dict.cpp_17E02520_101EBE7812DictionariesC1Ev
      fun:_Z41__static_initialization_and_destruction_0ii
      fun:_GLOBAL__I__ZN88_GLOBAL__N_.._i686_slc4_gcc34_dbg_dict_GaudiKernel_dictionary_dict.cpp_17E02520_101EBE784nsb0E
   }
   {
      Reflex::Environ<__gnu_cxx::__normal_iterator<CaloClusterMomentContainer_p1::ClusterMoment_p*,#std::vector<CaloClusterMomentContainer_p1::ClusterMoment_p,#std::allocator<CaloClusterMomentContainer_p1::ClusterMoment_p>#>#>#>::Create()
      Memcheck:Leak
      fun:_Znwj
      fun:_ZN6Reflex7EnvironIN9__gnu_cxx17__normal_iteratorIPN29CaloClusterMomentContainer_p115ClusterMoment_pESt6vectorIS4_SaIS4_EEEEE6CreateEv
      fun:_ZNK19TGenCollectionProxy7Method06invokeEv
      fun:_ZN19TGenCollectionProxy9PushProxyEPv
      fun:_ZN23TVirtualCollectionProxy8TPushPopC1EPS_Pv
   }
   {
      (anonymous#namespace)::CreateSTLStringExecutor()
      Memcheck:Leak
      fun:_Znwj
      fun:_ZN38_GLOBAL__N__ZN6PyROOT14gExecFactoriesE23CreateSTLStringExecutorEv
      fun:_ZN6PyROOT14CreateExecutorERKSs
      fun:_ZN6PyROOT13TMethodHolderINS_13TScopeAdapterENS_14TMemberAdapterEE13InitExecutor_ERPNS_9TExecutorE
      fun:_ZN6PyROOT13TMethodHolderINS_13TScopeAdapterENS_14TMemberAdapterEE10InitializeEv
   }
   {
      Reflex::FunctionTypeBuilder(Reflex::Type#const=,#Reflex::Type#const=,#Reflex::Type#const=,#Reflex::Type#const=,#Reflex::Type#const=,#Reflex::Type#const=,#Reflex::Type#const=,#Reflex::Type#const=,#Reflex::Type#const=,#Reflex::Type#const=,#Reflex::Type#const=,#Reflex::Type#const=,#Reflex::Type#const=,#Reflex::Type#const=,#Reflex::Type#const=,#Reflex::Type#const=)
      Memcheck:Leak
      fun:_Znwj
      fun:_ZN6Reflex19FunctionTypeBuilderERKNS_4TypeES2_S2_S2_S2_S2_S2_S2_S2_S2_S2_S2_S2_S2_S2_S2_
      fun:_ZN84_GLOBAL__N_.._i686_slc4_gcc34_dbg_dict_GaudiPython_kernel_dict.cpp_9D2164D3_B5DBB98A34__GaudiHistos_GaudiAlgorithm__dictEv
      fun:_ZN84_GLOBAL__N_.._i686_slc4_gcc34_dbg_dict_GaudiPython_kernel_dict.cpp_9D2164D3_B5DBB98A84_GLOBAL__N_.._i686_slc4_gcc34_dbg_dict_GaudiPython_kernel_dict.cpp_9D2164D3_B5DBB98A12DictionariesC1Ev
      fun:_Z41__static_initialization_and_destruction_0ii
   }
   {
      __gnu_cxx::new_allocator<__gnu_cxx::_Hashtable_node<std::pair<std::basic_string<char,#std::char_traits<char>,#std::allocator<char>#>#const*#const,#Reflex::Scope>#>*>::allocate(unsigned#int,#void#const*)
      Memcheck:Leak
      fun:_Znwj
      fun:_ZN9__gnu_cxx13new_allocatorIPNS_15_Hashtable_nodeISt4pairIKPKSsN6Reflex5ScopeEEEEE8allocateEjPKv
      fun:_ZNSt12_Vector_baseIPN9__gnu_cxx15_Hashtable_nodeISt4pairIKPKSsN6Reflex5ScopeEEEESaISA_EE11_M_allocateEj
      fun:_ZNSt6vectorIPN9__gnu_cxx15_Hashtable_nodeISt4pairIKPKSsN6Reflex5ScopeEEEESaISA_EE20_M_allocate_and_copyIPSA_EESE_jT_SF_
      fun:_ZNSt6vectorIPN9__gnu_cxx15_Hashtable_nodeISt4pairIKPKSsN6Reflex5ScopeEEEESaISA_EE7reserveEj
   }
   {
      nngsini_init_streams
      Memcheck:Leak
      fun:calloc
      fun:nngsini_init_streams
      fun:nncpcin_maybe_init
      fun:nnfgiinit
      fun:nnfgauto
   }
   {
      ers::StreamManager::instance()
      Memcheck:Leak
      fun:_Znwj
      fun:_ZN3ers13StreamManager8instanceEv
      fun:_ZN3ers16SingletonCreatorINS_13StreamManagerEEC1Ev
      fun:_Z41__static_initialization_and_destruction_0ii
      fun:_GLOBAL__I__ZN53_GLOBAL__N_.._src_StreamManager.cxx_9D2164D3_3CA30E1520ers_NoValue_instanceE
   }
   {
      (anonymous#namespace)::CreateSTLStringConverter(long)
      Memcheck:Leak
      fun:_Znwj
      fun:_ZN38_GLOBAL__N__ZN6PyROOT14gConvFactoriesE24CreateSTLStringConverterEl
      fun:_ZN6PyROOT15CreateConverterERKSsl
      fun:_ZN6PyROOT13TMethodHolderINS_13TScopeAdapterENS_14TMemberAdapterEE13InitCallFunc_Ev
      fun:_ZN6PyROOT13TMethodHolderINS_13TScopeAdapterENS_14TMemberAdapterEE10InitializeEv
   }
   {
      boost::python::objects::py_function::py_function<boost::python::detail::caller<void#(*)(_object*,#eformat::write::FullEventFragment#const=),#boost::python::default_call_policies,#boost::mpl::vector3<void,#_object*,#eformat::write::FullEventFragment#const=>#>#>(boost::python::detail::caller<void#(*)(_object*,#eformat::write::FullEventFragment#const=),#boost::python::default_call_policies,#boost::mpl::vector3<void,#_object*,#eformat::write::FullEventFragment#const=>#>#const=)
      Memcheck:Leak
      fun:_Znwj
      fun:_ZN5boost6python7objects11py_functionC1INS0_6detail6callerIPFvP7_objectRKN7eformat5write17FullEventFragmentEENS0_21default_call_policiesENS_3mpl7vector3IvS7_SC_EEEEEERKT_
      fun:_ZN5boost6python6detail17make_function_auxIPFvP7_objectRKN7eformat5write17FullEventFragmentEENS0_21default_call_policiesENS_3mpl7vector3IvS4_S9_EEN4mpl_4int_ILi0EEEEENS0_3api6objectET_RKT0_RKT1_RKSt4pairIPKNS1_7keywordESV_ET2_
      fun:_ZN5boost6python6detail27make_keyword_range_functionIPFvP7_objectRKN7eformat5write17FullEventFragmentEENS0_21default_call_policiesEEENS0_3api6objectET_RKT0_RKSt4pairIPKNS1_7keywordESM_E
      fun:_ZN5boost6python6detail30make_keyword_range_constructorINS_3mpl7vector1IRKN7eformat5write17FullEventFragmentEEENS3_4sizeISA_EENS0_7objects12value_holderIS7_EENS0_21default_call_policiesEEENS0_3api6objectERKT2_RKSt4pairIPKNS1_7keywordESP_EPT1_PT_PT0_
   }
   {
      boost::python::objects::py_function::py_function<boost::python::detail::caller<unsigned#int#(eformat::helper::Status::*)()#const,#boost::python::default_call_policies,#boost::mpl::vector2<unsigned#int,#eformat::helper::Status=>#>#>(boost::python::detail::caller<unsigned#int#(eformat::helper::Status::*)()#const,#boost::python::default_call_policies,#boost::mpl::vector2<unsigned#int,#eformat::helper::Status=>#>#const=)
      Memcheck:Leak
      fun:_Znwj
      fun:_ZN5boost6python7objects11py_functionC1INS0_6detail6callerIMN7eformat6helper6StatusEKFjvENS0_21default_call_policiesENS_3mpl7vector2IjRS8_EEEEEERKT_
      fun:_ZN5boost6python6detail17make_function_auxIMN7eformat6helper6StatusEKFjvENS0_21default_call_policiesENS_3mpl7vector2IjRS5_EEN4mpl_4int_ILi0EEEEENS0_3api6objectET_RKT0_RKT1_RKSt4pairIPKNS1_7keywordESS_ET2_
      fun:_ZN5boost6python13make_functionIMN7eformat6helper6StatusEKFjvENS0_21default_call_policiesENS0_6detail8keywordsILj0EEENS_3mpl7vector2IjRS4_EEEENS0_3api6objectET_RKT0_RKT1_RKT2_
      fun:_ZN5boost6python6class_IN7eformat6helper6StatusENS0_6detail13not_specifiedES6_S6_E8def_implIS4_MS4_KFjvENS5_10def_helperIPKcS6_S6_S6_EEEEvPT_SD_T0_RKT1_z
   }
   {
      PyROOT::CreateConverter(std::basic_string<char,#std::char_traits<char>,#std::allocator<char>#>#const=,#long)
      Memcheck:Leak
      fun:_Znwj
      fun:_ZN6PyROOT15CreateConverterERKSsl
      fun:_ZN6PyROOT13PropertyProxy3SetEP11TDataMember
      fun:_ZN6PyROOT17PropertyProxy_NewINS_14TMemberAdapterEEEPNS_13PropertyProxyERKT_
      fun:_ZN6PyROOT18BuildRootClassDictINS_13TScopeAdapterENS_12TBaseAdapterENS_14TMemberAdapterEEEiRKT_P7_object
   }
   {
      TCint::CreateListOfMethodArgs(TFunction*)
      Memcheck:Leak
      fun:_Znwj
      fun:_ZN5TCint22CreateListOfMethodArgsEP9TFunction
      fun:_ZN9TFunction19GetListOfMethodArgsEv
      fun:_ZNK6PyROOT14TMemberAdapter19FunctionParameterAtEj
      fun:_ZN6PyROOT13TMethodHolderINS_13TScopeAdapterENS_14TMemberAdapterEE13InitCallFunc_Ev
   }
   {
      boost::python::objects::function_handle_impl(boost::python::objects::py_function#const=)
      Memcheck:Leak
      fun:_Znwj
      fun:_ZN5boost6python7objects20function_handle_implERKNS1_11py_functionE
      fun:_ZN5boost6python7objects20make_function_handleIPFNS0_5tupleENS0_3api6objectEEEENS0_6handleI7_objectEET_
      fun:_ZN5boost6python3api23object_base_initializerIPFNS0_5tupleENS1_6objectEEEEP7_objectRKT_
      fun:_ZN5boost6python29make_instance_reduce_functionEv
   }
   {
      Reflex::PropertyListImpl::AddProperty(unsigned#int,#Reflex::Any#const=)
      Memcheck:Leak
      fun:_Znwj
      fun:_ZN6Reflex16PropertyListImpl11AddPropertyEjRKNS_3AnyE
      fun:_ZN6Reflex16PropertyListImpl11AddPropertyERKSsRKNS_3AnyE
      fun:_ZN6Reflex16PropertyListImpl11AddPropertyERKSsPKc
      fun:_ZNK6Reflex12PropertyList11AddPropertyERKSsPKc
   }
   {
      G__store_dictposition
      Memcheck:Leak
      fun:malloc
      fun:G__store_dictposition
      fun:G__register_sharedlib
      fun:G__RegisterLibrary
      fun:G__add_setup_func
   }
   {
      G__params::operator[](int)
      Memcheck:Leak
      fun:malloc
      fun:_ZN9G__paramsixEi
      fun:G__memfunc_setup_imp
      fun:G__memfunc_setup
      fun:G__usermemfunc_setup
   }
   {
      _dl_map_object_from_fd
      Memcheck:Leak
      fun:malloc
      fun:_dl_map_object_from_fd
      fun:_dl_map_object
      fun:openaux
      fun:_dl_catch_error
   }
   {
      boost::python::objects::py_function::py_function<boost::python::detail::caller<boost::python::api::object#(*)(boost::python::back_reference<std::vector<eformat::helper::StreamTag,#std::allocator<eformat::helper::StreamTag>#>=>,#_object*),#boost::python::default_call_policies,#boost::mpl::vector3<boost::python::api::object,#boost::python::back_reference<std::vector<eformat::helper::StreamTag,#std::allocator<eformat::helper::StreamTag>#>=>,#_object*>#>#>(boost::python::detail::caller<boost::python::api::object#(*)(boost::python::back_reference<std::vector<eformat::helper::StreamTag,#std::allocator<eformat::helper::StreamTag>#>=>,#_object*),#boost::python::default_call_policies,#boost::mpl::vector3<boost::python::api::object,#boost::python::back_reference<std::vector<eformat::helper::StreamTag,#std::allocator<eformat::helper::StreamTag>#>=>,#_object*>#>#const=)
      Memcheck:Leak
      fun:_Znwj
      fun:_ZN5boost6python7objects11py_functionC1INS0_6detail6callerIPFNS0_3api6objectENS0_14back_referenceIRSt6vectorIN7eformat6helper9StreamTagESaISC_EEEEP7_objectENS0_21default_call_policiesENS_3mpl7vector3IS7_SG_SI_EEEEEERKT_
      fun:_ZN5boost6python6detail17make_function_auxIPFNS0_3api6objectENS0_14back_referenceIRSt6vectorIN7eformat6helper9StreamTagESaIS9_EEEEP7_objectENS0_21default_call_policiesENS_3mpl7vector3IS4_SD_SF_EEN4mpl_4int_ILi0EEEEES4_T_RKT0_RKT1_RKSt4pairIPKNS1_7keywordESZ_ET2_
      fun:_ZN5boost6python13make_functionIPFNS0_3api6objectENS0_14back_referenceIRSt6vectorIN7eformat6helper9StreamTagESaIS8_EEEEP7_objectENS0_21default_call_policiesENS0_6detail8keywordsILj0EEENS_3mpl7vector3IS3_SC_SE_EEEES3_T_RKT0_RKT1_RKT2_
      fun:_ZN5boost6python6class_ISt6vectorIN7eformat6helper9StreamTagESaIS5_EENS0_6detail13not_specifiedES9_S9_E8def_implIS7_PFNS0_3api6objectENS0_14back_referenceIRS7_EEP7_objectENS8_10def_helperIPKcS9_S9_S9_EEEEvPT_SN_T0_RKT1_z
   }
   {
      TCint::CreateListOfBaseClasses(TClass*)
      Memcheck:Leak
      fun:_Znwj
      fun:_ZN5TCint23CreateListOfBaseClassesEP6TClass
      fun:_ZN6TClass14GetListOfBasesEv
      fun:_ZN6TClass12GetBaseClassEPKS_
      fun:_ZNK6TClass12InheritsFromEPKS_
   }
   {
      __gnu_cxx::new_allocator<Reflex::Any>::allocate(unsigned#int,#void#const*)
      Memcheck:Leak
      fun:_Znwj
      fun:_ZN9__gnu_cxx13new_allocatorIN6Reflex3AnyEE8allocateEjPKv
      fun:_ZNSt12_Vector_baseIN6Reflex3AnyESaIS1_EE11_M_allocateEj
      fun:_ZNSt6vectorIN6Reflex3AnyESaIS1_EE14_M_fill_insertEN9__gnu_cxx17__normal_iteratorIPS1_S3_EEjRKS1_
      fun:_ZNSt6vectorIN6Reflex3AnyESaIS1_EE6insertEN9__gnu_cxx17__normal_iteratorIPS1_S3_EEjRKS1_
   }
   {
      Reflex::PointerBuilder(Reflex::Type#const=,#std::type_info#const=)
      Memcheck:Leak
      fun:_Znwj
      fun:_ZN6Reflex14PointerBuilderERKNS_4TypeERKSt9type_info
      fun:_Z41__static_initialization_and_destruction_0ii
      fun:_GLOBAL__I__ZN91_GLOBAL__N_.._i686_slc4_gcc34_dbg_dict_LArTools_LArToolsDict_gen_rflx.cpp_9D2164D3_C1DA6BFE4nsb0E
      obj:/afs/cern.ch/atlas/software/builds/nightlies/devval/AtlasConditions/rel_5/LArCalorimeter/LArTools/i686-slc4-gcc34-dbg/libLArToolsDict.so
   }
   {
      PyStructSequence_InitType
      Memcheck:Leak
      fun:malloc
      fun:PyStructSequence_InitType
      fun:initposix
      fun:init_builtin
      fun:load_module
   }
   {
      TGuiFactory::CreateApplicationImp(char#const*,#int*,#char**)
      Memcheck:Leak
      fun:_Znwj
      fun:_ZN11TGuiFactory20CreateApplicationImpEPKcPiPPc
      fun:_ZN12TApplication18InitializeGraphicsEv
      fun:_ZN12TApplicationC2EPKcPiPPcPvi
      fun:_ZN6PyROOT18TPyROOTApplicationC1EPKcPiPPcb
   }
   {
      G__tagtable_setup
      Memcheck:Leak
      fun:_Znwj
      fun:G__tagtable_setup
      fun:G__cpp_setup_tagtableG__stream
      fun:G__cpp_setupG__stream
      fun:G__pragma
   }
   {
      slpmadp
      Memcheck:Leak
      fun:malloc
      fun:slpmadp
      fun:lpmapd
      fun:lfvLoadPkg
      fun:lfvSetShlMode
   }
   {
      Reflex::MemberBase::MemberBase(char#const*,#Reflex::Type#const=,#Reflex::TYPE,#unsigned#int)
      Memcheck:Leak
      fun:_Znwj
      fun:_ZN6Reflex10MemberBaseC2EPKcRKNS_4TypeENS_4TYPEEj
      fun:_ZN6Reflex14FunctionMemberC1EPKcRKNS_4TypeEPFvPvS6_RKSt6vectorIS6_SaIS6_EES6_ES6_S2_jNS_4TYPEE
      fun:_ZN6Reflex15FunctionBuilderC1ERKNS_4TypeEPKcPFvPvS6_RKSt6vectorIS6_SaIS6_EES6_ES6_S5_h
      fun:_ZN55_GLOBAL__N_.._src_AlgErrorAuditor.cpp_9D2164D3_171EDA8522AlgErrorAuditor_dict12C1Ev
   }
   {
      Reflex::ArrayBuilder(Reflex::Type#const=,#unsigned#int,#std::type_info#const=)
      Memcheck:Leak
      fun:_Znwj
      fun:_ZN6Reflex12ArrayBuilderERKNS_4TypeEjRKSt9type_info
      fun:_Z41__static_initialization_and_destruction_0ii
      fun:_GLOBAL__I__ZN21T_AthenaRootConverterIN5CLHEP12HepGenMatrixE15OldHepGenMatrixE12CopyOldToNewERKS2_RS1_
      obj:/afs/cern.ch/atlas/software/builds/nightlies/devval/AtlasCore/rel_5/Database/AtlasSealCLHEP/i686-slc4-gcc34-dbg/libAtlasSealCLHEPDict.so
   }
   {
      sltsmxi
      Memcheck:Leak
      fun:malloc
      fun:sltsmxi
      fun:lwemmxi
      fun:lwemist
      fun:lpminitm
   }
   {
      boost::python::objects::py_function::py_function<boost::python::detail::caller<unsigned#int#(eformat::helper::u32list::*)()#const,#boost::python::default_call_policies,#boost::mpl::vector2<unsigned#int,#eformat::helper::u32list=>#>#>(boost::python::detail::caller<unsigned#int#(eformat::helper::u32list::*)()#const,#boost::python::default_call_policies,#boost::mpl::vector2<unsigned#int,#eformat::helper::u32list=>#>#const=)
      Memcheck:Leak
      fun:_Znwj
      fun:_ZN5boost6python7objects11py_functionC1INS0_6detail6callerIMN7eformat6helper7u32listEKFjvENS0_21default_call_policiesENS_3mpl7vector2IjRS8_EEEEEERKT_
      fun:_ZN5boost6python6detail17make_function_auxIMN7eformat6helper7u32listEKFjvENS0_21default_call_policiesENS_3mpl7vector2IjRS5_EEN4mpl_4int_ILi0EEEEENS0_3api6objectET_RKT0_RKT1_RKSt4pairIPKNS1_7keywordESS_ET2_
      fun:_ZN5boost6python13make_functionIMN7eformat6helper7u32listEKFjvENS0_21default_call_policiesENS0_6detail8keywordsILj0EEENS_3mpl7vector2IjRS4_EEEENS0_3api6objectET_RKT0_RKT1_RKT2_
      fun:_ZN5boost6python6class_IN7eformat6helper7u32listENS0_6detail13not_specifiedES6_S6_E8def_implIS4_MS4_KFjvENS5_10def_helperIPKcS6_S6_S6_EEEEvPT_SD_T0_RKT1_z
   }
   {
      Reflex::FunctionBuilder::FunctionBuilder(Reflex::Type#const=,#char#const*,#void#(*)(void*,#void*,#std::vector<void*,#std::allocator<void*>#>#const=,#void*),#void*,#char#const*,#unsigned#char)
      Memcheck:Leak
      fun:_Znwj
      fun:_ZN6Reflex15FunctionBuilderC1ERKNS_4TypeEPKcPFvPvS6_RKSt6vectorIS6_SaIS6_EES6_ES6_S5_h
      fun:_ZN61_GLOBAL__N_.._src_ToyNextPassFilterTool.cxx_EF105EC1_6DFCE1AD27ToyNextPassFilterTool_dict5C1Ev
      fun:_Z41__static_initialization_and_destruction_0ii
      fun:_GLOBAL__I__ZN61_GLOBAL__N_.._src_ToyNextPassFilterTool.cxx_EF105EC1_6DFCE1AD29s_ToyNextPassFilterTool_dict5E
   }
   {
      boost::python::objects::py_function::py_function<boost::python::detail::caller<bool#(*)(eformat::ROBFragment<unsigned#int#const*>=),#boost::python::default_call_policies,#boost::mpl::vector2<bool,#eformat::ROBFragment<unsigned#int#const*>=>#>#>(boost::python::detail::caller<bool#(*)(eformat::ROBFragment<unsigned#int#const*>=),#boost::python::default_call_policies,#boost::mpl::vector2<bool,#eformat::ROBFragment<unsigned#int#const*>=>#>#const=)
      Memcheck:Leak
      fun:_Znwj
      fun:_ZN5boost6python7objects11py_functionC1INS0_6detail6callerIPFbRN7eformat11ROBFragmentIPKjEEENS0_21default_call_policiesENS_3mpl7vector2IbSB_EEEEEERKT_
      fun:_ZN5boost6python6detail17make_function_auxIPFbRN7eformat11ROBFragmentIPKjEEENS0_21default_call_policiesENS_3mpl7vector2IbS8_EEN4mpl_4int_ILi0EEEEENS0_3api6objectET_RKT0_RKT1_RKSt4pairIPKNS1_7keywordESU_ET2_
      fun:_ZN5boost6python6detail27make_keyword_range_functionIPFbRN7eformat11ROBFragmentIPKjEEENS0_21default_call_policiesENS_3mpl7vector2IbS8_EEEENS0_3api6objectET_RKT0_RKSt4pairIPKNS1_7keywordESO_ERKT1_
      fun:_ZN5boost6python6detail14name_space_defIPFbRN7eformat11ROBFragmentIPKjEEENS0_21default_call_policiesENS0_6class_IS7_NS0_5basesINS3_6HeaderIS6_EEN4mpl_5void_ESH_SH_SH_SH_SH_SH_SH_SH_EENS1_13not_specifiedESJ_EEEEvRT1_PKcT_RKSt4pairIPKNS1_7keywordEST_ERKT0_SO_PNS0_7objects10class_baseE
   }
   {
      boost::python::objects::py_function::py_function<boost::python::detail::caller<eformat::helper::u32slice#(*)(eformat::FullEventFragment<unsigned#int#const*>#const=),#boost::python::default_call_policies,#boost::mpl::vector2<eformat::helper::u32slice,#eformat::FullEventFragment<unsigned#int#const*>#const=>#>#>(boost::python::detail::caller<eformat::helper::u32slice#(*)(eformat::FullEventFragment<unsigned#int#const*>#const=),#boost::python::default_call_policies,#boost::mpl::vector2<eformat::helper::u32slice,#eformat::FullEventFragment<unsigned#int#const*>#const=>#>#const=)
      Memcheck:Leak
      fun:_Znwj
      fun:_ZN5boost6python7objects11py_functionC1INS0_6detail6callerIPFN7eformat6helper8u32sliceERKNS6_17FullEventFragmentIPKjEEENS0_21default_call_policiesENS_3mpl7vector2IS8_SE_EEEEEERKT_
      fun:_ZN5boost6python6detail17make_function_auxIPFN7eformat6helper8u32sliceERKNS3_17FullEventFragmentIPKjEEENS0_21default_call_policiesENS_3mpl7vector2IS5_SB_EEN4mpl_4int_ILi0EEEEENS0_3api6objectET_RKT0_RKT1_RKSt4pairIPKNS1_7keywordESX_ET2_
      fun:_ZN5boost6python13make_functionIPFN7eformat6helper8u32sliceERKNS2_17FullEventFragmentIPKjEEENS0_21default_call_policiesENS0_6detail8keywordsILj0EEENS_3mpl7vector2IS4_SA_EEEENS0_3api6objectET_RKT0_RKT1_RKT2_
      fun:_ZN5boost6python6class_IN7eformat17FullEventFragmentIPKjEENS_10shared_ptrIS6_EENS0_5basesINS2_6HeaderIS5_EEN4mpl_5void_ESD_SD_SD_SD_SD_SD_SD_SD_EENS0_6detail13not_specifiedEE8def_implIS6_PFNS2_6helper8u32sliceERKS6_ENSF_10def_helperIPKcSG_SG_SG_EEEEvPT_SR_T0_RKT1_z
   }
   {
      boost::python::objects::py_function::py_function<boost::python::detail::caller<unsigned#char#(eformat::write::FullEventFragment::*)()#const,#boost::python::default_call_policies,#boost::mpl::vector2<unsigned#char,#eformat::write::FullEventFragment=>#>#>(boost::python::detail::caller<unsigned#char#(eformat::write::FullEventFragment::*)()#const,#boost::python::default_call_policies,#boost::mpl::vector2<unsigned#char,#eformat::write::FullEventFragment=>#>#const=)
      Memcheck:Leak
      fun:_Znwj
      fun:_ZN5boost6python7objects11py_functionC1INS0_6detail6callerIMN7eformat5write17FullEventFragmentEKFhvENS0_21default_call_policiesENS_3mpl7vector2IhRS8_EEEEEERKT_
      fun:_ZN5boost6python6detail17make_function_auxIMN7eformat5write17FullEventFragmentEKFhvENS0_21default_call_policiesENS_3mpl7vector2IhRS5_EEN4mpl_4int_ILi0EEEEENS0_3api6objectET_RKT0_RKT1_RKSt4pairIPKNS1_7keywordESS_ET2_
      fun:_ZN5boost6python13make_functionIMN7eformat5write17FullEventFragmentEKFhvENS0_21default_call_policiesENS0_6detail8keywordsILj0EEENS_3mpl7vector2IhRS4_EEEENS0_3api6objectET_RKT0_RKT1_RKT2_
      fun:_ZN5boost6python6class_IN7eformat5write17FullEventFragmentENS0_6detail13not_specifiedES6_S6_E8def_implIS4_MS4_KFhvENS5_10def_helperIPKcS6_S6_S6_EEEEvPT_SD_T0_RKT1_z
   }
   {
      ROOT::TCollectionProxyInfo*#ROOT::TCollectionProxyInfo::Generate<ROOT::TCollectionProxyInfo::Pushback<std::vector<ROOT::Fit::ParameterSettings,#std::allocator<ROOT::Fit::ParameterSettings>#>#>#>(ROOT::TCollectionProxyInfo::Pushback<std::vector<ROOT::Fit::ParameterSettings,#std::allocator<ROOT::Fit::ParameterSettings>#>#>#const=)
      Memcheck:Leak
      fun:_Znwj
      fun:_ZN4ROOT20TCollectionProxyInfo8GenerateINS0_8PushbackISt6vectorINS_3Fit17ParameterSettingsESaIS5_EEEEEEPS0_RKT_
      fun:_ZN4ROOT25GenerateInitInstanceLocalEPKSt6vectorINS_3Fit17ParameterSettingsESaIS2_EE
      fun:_Z41__static_initialization_and_destruction_0ii
      fun:_GLOBAL__I__ZN4ROOT20GenerateInitInstanceEPKNS_3Fit11DataOptionsE
   }
   {
      TBits::TBits(unsigned#int)
      Memcheck:Leak
      fun:_Znaj
      fun:_ZN5TBitsC1Ej
      fun:_ZN12TProcessUUIDC1Ev
      fun:_ZN5TROOTC1EPKcS1_PPFvvE
      fun:_ZN4ROOT7GetROOTEv
   }
   {
      __gnu_cxx::new_allocator<__gnu_cxx::_Hashtable_node<std::pair<char#const*#const,#Reflex::TypeName*>#>#>::allocate(unsigned#int,#void#const*)
      Memcheck:Leak
      fun:_Znwj
      fun:_ZN9__gnu_cxx13new_allocatorINS_15_Hashtable_nodeISt4pairIKPKcPN6Reflex8TypeNameEEEEE8allocateEjPKv
      fun:_ZN9__gnu_cxx9hashtableISt4pairIKPKcPN6Reflex8TypeNameEES3_NS_4hashIS3_EESt10_Select1stIS8_ESt8equal_toIS3_ESaIS7_EE11_M_get_nodeEv
      fun:_ZN9__gnu_cxx9hashtableISt4pairIKPKcPN6Reflex8TypeNameEES3_NS_4hashIS3_EESt10_Select1stIS8_ESt8equal_toIS3_ESaIS7_EE11_M_new_nodeERKS8_
      fun:_ZN9__gnu_cxx9hashtableISt4pairIKPKcPN6Reflex8TypeNameEES3_NS_4hashIS3_EESt10_Select1stIS8_ESt8equal_toIS3_ESaIS7_EE14find_or_insertERKS8_
   }
   {
      __gnu_cxx::new_allocator<std::_List_node<Reflex::ICallback*>#>::allocate(unsigned#int,#void#const*)
      Memcheck:Leak
      fun:_Znwj
      fun:_ZN9__gnu_cxx13new_allocatorISt10_List_nodeIPN6Reflex9ICallbackEEE8allocateEjPKv
      fun:_ZNSt10_List_baseIPN6Reflex9ICallbackESaIS2_EE11_M_get_nodeEv
      fun:_ZNSt4listIPN6Reflex9ICallbackESaIS2_EE14_M_create_nodeERKS2_
      fun:_ZNSt4listIPN6Reflex9ICallbackESaIS2_EE9_M_insertESt14_List_iteratorIS2_ERKS2_
   }
   {
      G__add_setup_func
      Memcheck:Leak
      fun:realloc
      fun:G__add_setup_func
      fun:_ZN23G__cpp_setup_initG__NetC1Ev
      fun:_Z41__static_initialization_and_destruction_0ii
      fun:_GLOBAL__I__ZN4ROOT20GenerateInitInstanceEPK8TMessage
   }
   {
      G__createtemplatefunc
      Memcheck:Leak
      fun:malloc
      fun:G__createtemplatefunc
      fun:G__declare_template
      fun:G__exec_statement
      fun:G__loadfile
   }
   {
      ROOT::TCollectionProxyInfo*#ROOT::TCollectionProxyInfo::Generate<ROOT::TCollectionProxyInfo::Pushback<std::vector<unsigned#char,#std::allocator<unsigned#char>#>#>#>(ROOT::TCollectionProxyInfo::Pushback<std::vector<unsigned#char,#std::allocator<unsigned#char>#>#>#const=)
      Memcheck:Leak
      fun:_Znwj
      fun:_ZN4ROOT20TCollectionProxyInfo8GenerateINS0_8PushbackISt6vectorIhSaIhEEEEEEPS0_RKT_
      fun:_ZN4ROOT25GenerateInitInstanceLocalEPKSt6vectorIhSaIhEE
      fun:_Z41__static_initialization_and_destruction_0ii
      fun:_GLOBAL__I_G__set_cpp_environmentrootcint_vector
   }
   {
      Reflex::ScopeBase::ScopeBase(char#const*,#Reflex::TYPE)
      Memcheck:Leak
      fun:_Znwj
      fun:_ZN6Reflex9ScopeBaseC2EPKcNS_4TYPEE
      fun:_ZN6Reflex5ClassC1EPKcjRKSt9type_infojNS_4TYPEE
      fun:_ZN6Reflex16ClassBuilderImplC1EPKcRKSt9type_infojjNS_4TYPEE
      fun:_ZN6Reflex13ClassBuilderTIN4ROOT6Cintex6CintexEEC1EPKcjNS_4TYPEE
   }
   {
      boost::python::objects::function_object(boost::python::objects::py_function#const=,#std::pair<boost::python::detail::keyword#const*,#boost::python::detail::keyword#const*>#const=)
      Memcheck:Leak
      fun:_Znwj
      fun:_ZN5boost6python7objects15function_objectERKNS1_11py_functionERKSt4pairIPKNS0_6detail7keywordES9_E
      fun:_ZN5boost6python7objects15function_objectERKNS1_11py_functionE
      fun:_ZN5boost6python6detail17make_function_auxINS0_7objects14iterator_rangeINS0_25return_internal_referenceILj1ENS0_21default_call_policiesEEEN9__gnu_cxx17__normal_iteratorIPN7eformat6helper9StreamTagESt6vectorISC_SaISC_EEEEE4nextES7_NS_3mpl7vector2IRSC_RSI_EEEENS0_3api6objectET_RKT0_RKT1_
      fun:_ZN5boost6python6detail22make_function_dispatchINS0_7objects14iterator_rangeINS0_25return_internal_referenceILj1ENS0_21default_call_policiesEEEN9__gnu_cxx17__normal_iteratorIPN7eformat6helper9StreamTagESt6vectorISC_SaISC_EEEEE4nextES7_NS_3mpl7vector2IRSC_RSI_EEEENS0_3api6objectET_RKT0_RKT1_N4mpl_5bool_ILb0EEE
   }
   {
      kpu8lgn
      Memcheck:Cond
      fun:kzsrepw
      fun:kpu8lgn
      fun:kpuauthxa
      fun:kpuauth
      fun:OCISessionBegin
   }
   {
      lempint
      Memcheck:Leak
      fun:calloc
      fun:lempint
      fun:lemrist
      fun:lpminitm
      fun:lpminit
   }
   {
      slpmadp
      Memcheck:Leak
      fun:malloc
      fun:slpmadp
      fun:slpmini
      fun:lpmrist
      fun:lpminitm
   }
   {
      _dl_lookup_symbol_x
      Memcheck:Leak
      fun:realloc
      fun:_dl_lookup_symbol_x
      fun:fixup
      fun:_dl_runtime_resolve
      fun:_ZN5coral12OracleAccess5QueryC1ERKNS0_18ISessionPropertiesE
   }
   {
      boost::python::objects::py_function::py_function<boost::python::detail::caller<eformat::helper::u32list#(*)(eformat::helper::u32list#const=,#eformat::CheckSum#const=),#boost::python::default_call_policies,#boost::mpl::vector3<eformat::helper::u32list,#eformat::helper::u32list#const=,#eformat::CheckSum#const=>#>#>(boost::python::detail::caller<eformat::helper::u32list#(*)(eformat::helper::u32list#const=,#eformat::CheckSum#const=),#boost::python::default_call_policies,#boost::mpl::vector3<eformat::helper::u32list,#eformat::helper::u32list#const=,#eformat::CheckSum#const=>#>#const=)
      Memcheck:Leak
      fun:_Znwj
      fun:_ZN5boost6python7objects11py_functionC1INS0_6detail6callerIPFN7eformat6helper7u32listERKS8_RKNS6_8CheckSumEENS0_21default_call_policiesENS_3mpl7vector3IS8_SA_SD_EEEEEERKT_
      fun:_ZN5boost6python6detail17make_function_auxIPFN7eformat6helper7u32listERKS5_RKNS3_8CheckSumEENS0_21default_call_policiesENS_3mpl7vector3IS5_S7_SA_EEN4mpl_4int_ILi0EEEEENS0_3api6objectET_RKT0_RKT1_RKSt4pairIPKNS1_7keywordESW_ET2_
      fun:_ZN5boost6python6detail27make_keyword_range_functionIPFN7eformat6helper7u32listERKS5_RKNS3_8CheckSumEENS0_21default_call_policiesEEENS0_3api6objectET_RKT0_RKSt4pairIPKNS1_7keywordESN_E
      fun:_ZN5boost6python6detail14name_space_defIPFN7eformat6helper7u32listERKS5_RKNS3_8CheckSumEENS0_21default_call_policiesEEEvRNS0_3api6objectEPKcT_RKSt4pairIPKNS1_7keywordESN_ERKT0_SI_z
   }
   {
      ntgbuini
      Memcheck:Leak
      fun:calloc
      fun:ntgbuini
      fun:nsgblini
      fun:nngsini_init_streams
      fun:nncpcin_maybe_init
   }
   {
      Reflex::Environ<std::_Bit_iterator>::Create()
      Memcheck:Leak
      fun:_Znwj
      fun:_ZN6Reflex7EnvironISt13_Bit_iteratorE6CreateEv
      fun:_ZNK19TGenCollectionProxy7Method06invokeEv
      fun:_ZN19TGenCollectionProxy9PushProxyEPv
      fun:_ZN23TVirtualCollectionProxy8TPushPopC1EPS_Pv
   }
   {
      nsgblini
      Memcheck:Leak
      fun:malloc
      fun:nsgblini
      fun:nngsini_init_streams
      fun:nncpcin_maybe_init
      fun:nnfgiinit
   }
   {
      boost::python::objects::py_function::py_function<boost::python::detail::caller<bool#(EventStorage::DataReader::*)(),#boost::python::default_call_policies,#boost::mpl::vector2<bool,#EventStorage::DataReader=>#>#>(boost::python::detail::caller<bool#(EventStorage::DataReader::*)(),#boost::python::default_call_policies,#boost::mpl::vector2<bool,#EventStorage::DataReader=>#>#const=)
      Memcheck:Leak
      fun:_Znwj
      fun:_ZN5boost6python7objects11py_functionC1INS0_6detail6callerIMN12EventStorage10DataReaderEFbvENS0_21default_call_policiesENS_3mpl7vector2IbRS7_EEEEEERKT_
      fun:_ZN5boost6python6detail17make_function_auxIMN12EventStorage10DataReaderEFbvENS0_21default_call_policiesENS_3mpl7vector2IbRS4_EEN4mpl_4int_ILi0EEEEENS0_3api6objectET_RKT0_RKT1_RKSt4pairIPKNS1_7keywordESR_ET2_
      fun:_ZN5boost6python13make_functionIMN12EventStorage10DataReaderEFbvENS0_21default_call_policiesENS0_6detail8keywordsILj0EEENS_3mpl7vector2IbRS3_EEEENS0_3api6objectET_RKT0_RKT1_RKT2_
      fun:_ZN5boost6python6class_IN12EventStorage10DataReaderENS_10shared_ptrIS3_EENS_12noncopyable_11noncopyableENS0_6detail13not_specifiedEE8def_implIS3_MS3_FbvENS8_10def_helperIPKcS9_S9_S9_EEEEvPT_SG_T0_RKT1_z
   }
   {
      boost::python::objects::py_function::py_function<boost::python::detail::caller<void#(eformat::write::FullEventFragment::*)(unsigned#int),#boost::python::default_call_policies,#boost::mpl::vector3<void,#eformat::write::FullEventFragment=,#unsigned#int>#>#>(boost::python::detail::caller<void#(eformat::write::FullEventFragment::*)(unsigned#int),#boost::python::default_call_policies,#boost::mpl::vector3<void,#eformat::write::FullEventFragment=,#unsigned#int>#>#const=)
      Memcheck:Leak
      fun:_Znwj
      fun:_ZN5boost6python7objects11py_functionC1INS0_6detail6callerIMN7eformat5write17FullEventFragmentEFvjENS0_21default_call_policiesENS_3mpl7vector3IvRS8_jEEEEEERKT_
      fun:_ZN5boost6python6detail17make_function_auxIMN7eformat5write17FullEventFragmentEFvjENS0_21default_call_policiesENS_3mpl7vector3IvRS5_jEEN4mpl_4int_ILi0EEEEENS0_3api6objectET_RKT0_RKT1_RKSt4pairIPKNS1_7keywordESS_ET2_
      fun:_ZN5boost6python13make_functionIMN7eformat5write17FullEventFragmentEFvjENS0_21default_call_policiesENS0_6detail8keywordsILj0EEENS_3mpl7vector3IvRS4_jEEEENS0_3api6objectET_RKT0_RKT1_RKT2_
      fun:_ZN5boost6python6class_IN7eformat5write17FullEventFragmentENS0_6detail13not_specifiedES6_S6_E8def_implIS4_MS4_FvjENS5_10def_helperIPKcS6_S6_S6_EEEEvPT_SD_T0_RKT1_z
   }
   {
      TCint::SetClassInfo(TClass*,#bool)
      Memcheck:Leak
      fun:_Znwj
      fun:_ZN5TCint12SetClassInfoEP6TClassb
      fun:_ZN6TClass4InitEPKcsPKSt9type_infoP16TVirtualIsAProxyPFvPvR16TMemberInspectorPcES1_S1_iib
      fun:_ZN6TClassC1EPKcsRKSt9type_infoP16TVirtualIsAProxyPFvPvR16TMemberInspectorPcES1_S1_iib
      fun:_ZN4ROOT11CreateClassEPKcsRKSt9type_infoP16TVirtualIsAProxyPFvPvR16TMemberInspectorPcES1_S1_ii
   }
   {
      Reflex::FunctionTypeBuilder(Reflex::Type#const=,#Reflex::Type#const=,#Reflex::Type#const=)
      Memcheck:Leak
      fun:_Znwj
      fun:_ZN6Reflex19FunctionTypeBuilderERKNS_4TypeES2_S2_
      fun:_ZN84_GLOBAL__N_.._i686_slc4_gcc34_dbg_dict_GaudiPython_kernel_dict.cpp_9D2164D3_B5DBB98A27__std__list_IServicep__dictEv
      fun:_ZN84_GLOBAL__N_.._i686_slc4_gcc34_dbg_dict_GaudiPython_kernel_dict.cpp_9D2164D3_B5DBB98A84_GLOBAL__N_.._i686_slc4_gcc34_dbg_dict_GaudiPython_kernel_dict.cpp_9D2164D3_B5DBB98A12DictionariesC1Ev
      fun:_Z41__static_initialization_and_destruction_0ii
   }
   {
      G__loadfile_tmpfile
      Memcheck:Leak
      fun:malloc
      fun:G__loadfile_tmpfile
      fun:G__load_text
      fun:_ZNK5TCint8LoadTextEPKc
      fun:_ZN8TQObject13LoadRQ_OBJECTEv
   }
   {
      boost::python::objects::py_function::py_function<boost::python::detail::caller<bool#(daq::RawFileName::*)(),#boost::python::default_call_policies,#boost::mpl::vector2<bool,#daq::RawFileName=>#>#>(boost::python::detail::caller<bool#(daq::RawFileName::*)(),#boost::python::default_call_policies,#boost::mpl::vector2<bool,#daq::RawFileName=>#>#const=)
      Memcheck:Leak
      fun:_Znwj
      fun:_ZN5boost6python7objects11py_functionC1INS0_6detail6callerIMN3daq11RawFileNameEFbvENS0_21default_call_policiesENS_3mpl7vector2IbRS7_EEEEEERKT_
      fun:_ZN5boost6python6detail17make_function_auxIMN3daq11RawFileNameEFbvENS0_21default_call_policiesENS_3mpl7vector2IbRS4_EEN4mpl_4int_ILi0EEEEENS0_3api6objectET_RKT0_RKT1_RKSt4pairIPKNS1_7keywordESR_ET2_
      fun:_ZN5boost6python13make_functionIMN3daq11RawFileNameEFbvENS0_21default_call_policiesENS0_6detail8keywordsILj0EEENS_3mpl7vector2IbRS3_EEEENS0_3api6objectET_RKT0_RKT1_RKT2_
      fun:_ZN5boost6python6class_IN3daq11RawFileNameENS0_6detail13not_specifiedES5_S5_E8def_implIS3_MS3_FbvENS4_10def_helperIPKcS5_S5_S5_EEEEvPT_SC_T0_RKT1_z
   }
   {
      ROOT::TCollectionProxyInfo*#ROOT::TCollectionProxyInfo::Generate<ROOT::TCollectionProxyInfo::Pushback<std::vector<TString,#std::allocator<TString>#>#>#>(ROOT::TCollectionProxyInfo::Pushback<std::vector<TString,#std::allocator<TString>#>#>#const=)
      Memcheck:Leak
      fun:_Znwj
      fun:_ZN4ROOT20TCollectionProxyInfo8GenerateINS0_8PushbackISt6vectorI7TStringSaIS4_EEEEEEPS0_RKT_
      fun:_ZN4ROOT25GenerateInitInstanceLocalEPKSt6vectorI7TStringSaIS1_EE
      fun:_Z41__static_initialization_and_destruction_0ii
      fun:_GLOBAL__I__ZN4ROOT20GenerateInitInstanceEPK21SetWindowAttributes_t
   }
   {
      boost::python::objects::py_function::py_function<boost::python::detail::caller<void#(*)(eformat::write::ROBFragment=,#eformat::helper::u32slice=),#boost::python::with_custodian_and_ward<1u,#2u,#boost::python::default_call_policies>,#boost::mpl::vector3<void,#eformat::write::ROBFragment=,#eformat::helper::u32slice=>#>#>(boost::python::detail::caller<void#(*)(eformat::write::ROBFragment=,#eformat::helper::u32slice=),#boost::python::with_custodian_and_ward<1u,#2u,#boost::python::default_call_policies>,#boost::mpl::vector3<void,#eformat::write::ROBFragment=,#eformat::helper::u32slice=>#>#const=)
      Memcheck:Leak
      fun:_Znwj
      fun:_ZN5boost6python7objects11py_functionC1INS0_6detail6callerIPFvRN7eformat5write11ROBFragmentERNS6_6helper8u32sliceEENS0_23with_custodian_and_wardILj1ELj2ENS0_21default_call_policiesEEENS_3mpl7vector3IvS9_SC_EEEEEERKT_
      fun:_ZN5boost6python6detail17make_function_auxIPFvRN7eformat5write11ROBFragmentERNS3_6helper8u32sliceEENS0_23with_custodian_and_wardILj1ELj2ENS0_21default_call_policiesEEENS_3mpl7vector3IvS6_S9_EEN4mpl_4int_ILi0EEEEENS0_3api6objectET_RKT0_RKT1_RKSt4pairIPKNS1_7keywordESX_ET2_
      fun:_ZN5boost6python13make_functionIPFvRN7eformat5write11ROBFragmentERNS2_6helper8u32sliceEENS0_23with_custodian_and_wardILj1ELj2ENS0_21default_call_policiesEEENS0_6detail8keywordsILj0EEENS_3mpl7vector3IvS5_S8_EEEENS0_3api6objectET_RKT0_RKT1_RKT2_
      fun:_ZN5boost6python6class_IN7eformat5write11ROBFragmentENS0_6detail13not_specifiedES6_S6_E8def_implIS4_PFvRS4_RNS2_6helper8u32sliceEENS5_10def_helperINS0_23with_custodian_and_wardILj1ELj2ENS0_21default_call_policiesEEES6_S6_S6_EEEEvPT_PKcT0_RKT1_z
   }
   {
      ExpatCoreParser::do_start(char#const*,#char#const**)
      Memcheck:Leak
      fun:_Znwj
      fun:_ZN15ExpatCoreParser8do_startEPKcPS1_
      fun:_ZN15ExpatCoreParser5startEPvPKcPS2_
      fun:doContent
      fun:externalEntityContentProcessor
   }
   {
      Reflex::FunctionTypeBuilder(Reflex::Type#const=,#Reflex::Type#const=,#Reflex::Type#const=,#Reflex::Type#const=,#Reflex::Type#const=,#Reflex::Type#const=,#Reflex::Type#const=,#Reflex::Type#const=,#Reflex::Type#const=,#Reflex::Type#const=,#Reflex::Type#const=,#Reflex::Type#const=,#Reflex::Type#const=,#Reflex::Type#const=)
      Memcheck:Leak
      fun:_Znwj
      fun:_ZN6Reflex19FunctionTypeBuilderERKNS_4TypeES2_S2_S2_S2_S2_S2_S2_S2_S2_S2_S2_S2_S2_
      fun:_ZN84_GLOBAL__N_.._i686_slc4_gcc34_dbg_dict_GaudiPython_kernel_dict.cpp_9D2164D3_B5DBB98A34__GaudiPython__HistoDecorator_dictEv
      fun:_ZN84_GLOBAL__N_.._i686_slc4_gcc34_dbg_dict_GaudiPython_kernel_dict.cpp_9D2164D3_B5DBB98A84_GLOBAL__N_.._i686_slc4_gcc34_dbg_dict_GaudiPython_kernel_dict.cpp_9D2164D3_B5DBB98A12DictionariesC1Ev
      fun:_Z41__static_initialization_and_destruction_0ii
   }
   {
      fdopen@@GLIBC_2.1
      Memcheck:Leak
      fun:malloc
      fun:fdopen@@GLIBC_2.1
      fun:posix_fdopen
      fun:PyCFunction_Call
      fun:PyEval_EvalFrameEx
   }
   {
      Property*#PropertyMgr::declareProperty<std::basic_string<char,#std::char_traits<char>,#std::allocator<char>#>#>(std::basic_string<char,#std::char_traits<char>,#std::allocator<char>#>#const=,#std::basic_string<char,#std::char_traits<char>,#std::allocator<char>#>=,#std::basic_string<char,#std::char_traits<char>,#std::allocator<char>#>#const=)
      Memcheck:Leak
      fun:_Znwj
      fun:_ZN11PropertyMgr15declarePropertyISsEEP8PropertyRKSsRT_S4_
      fun:_ZN14ApplicationMgrC1EP10IInterface
      fun:_ZN69_GLOBAL__N_.._src_ApplicationMgr_ApplicationMgr.cpp_9D2164D3_9BE5AFB07FactoryI14ApplicationMgrFP10IInterfaceS3_EE4FuncEPvS6_RKSt6vectorIS6_SaIS6_EES6_
      fun:_ZNK6Reflex14FunctionMember6InvokeERKNS_6ObjectEPS1_RKSt6vectorIPvSaIS6_EE
   }
   {
      boost::python::objects::py_function::py_function<boost::python::detail::caller<bool#(eformat::helper::DetectorMask::*)(eformat::SubDetector)#const,#boost::python::default_call_policies,#boost::mpl::vector3<bool,#eformat::helper::DetectorMask=,#eformat::SubDetector>#>#>(boost::python::detail::caller<bool#(eformat::helper::DetectorMask::*)(eformat::SubDetector)#const,#boost::python::default_call_policies,#boost::mpl::vector3<bool,#eformat::helper::DetectorMask=,#eformat::SubDetector>#>#const=)
      Memcheck:Leak
      fun:_Znwj
      fun:_ZN5boost6python7objects11py_functionC1INS0_6detail6callerIMN7eformat6helper12DetectorMaskEKFbNS6_11SubDetectorEENS0_21default_call_policiesENS_3mpl7vector3IbRS8_S9_EEEEEERKT_
      fun:_ZN5boost6python6detail17make_function_auxIMN7eformat6helper12DetectorMaskEKFbNS3_11SubDetectorEENS0_21default_call_policiesENS_3mpl7vector3IbRS5_S6_EEN4mpl_4int_ILi0EEEEENS0_3api6objectET_RKT0_RKT1_RKSt4pairIPKNS1_7keywordEST_ET2_
      fun:_ZN5boost6python13make_functionIMN7eformat6helper12DetectorMaskEKFbNS2_11SubDetectorEENS0_21default_call_policiesENS0_6detail8keywordsILj0EEENS_3mpl7vector3IbRS4_S5_EEEENS0_3api6objectET_RKT0_RKT1_RKT2_
      fun:_ZN5boost6python6class_IN7eformat6helper12DetectorMaskENS0_6detail13not_specifiedES6_S6_E8def_implIS4_MS4_KFbNS2_11SubDetectorEENS5_10def_helperIPKcS6_S6_S6_EEEEvPT_SE_T0_RKT1_z
   }
   {
      boost::python::objects::py_function::py_function<boost::python::detail::caller<void#(*)(eformat::write::FullEventFragment=,#eformat::helper::SourceIdentifier=),#boost::python::default_call_policies,#boost::mpl::vector3<void,#eformat::write::FullEventFragment=,#eformat::helper::SourceIdentifier=>#>#>(boost::python::detail::caller<void#(*)(eformat::write::FullEventFragment=,#eformat::helper::SourceIdentifier=),#boost::python::default_call_policies,#boost::mpl::vector3<void,#eformat::write::FullEventFragment=,#eformat::helper::SourceIdentifier=>#>#const=)
      Memcheck:Leak
      fun:_Znwj
      fun:_ZN5boost6python7objects11py_functionC1INS0_6detail6callerIPFvRN7eformat5write17FullEventFragmentERNS6_6helper16SourceIdentifierEENS0_21default_call_policiesENS_3mpl7vector3IvS9_SC_EEEEEERKT_
      fun:_ZN5boost6python6detail17make_function_auxIPFvRN7eformat5write17FullEventFragmentERNS3_6helper16SourceIdentifierEENS0_21default_call_policiesENS_3mpl7vector3IvS6_S9_EEN4mpl_4int_ILi0EEEEENS0_3api6objectET_RKT0_RKT1_RKSt4pairIPKNS1_7keywordESV_ET2_
      fun:_ZN5boost6python13make_functionIPFvRN7eformat5write17FullEventFragmentERNS2_6helper16SourceIdentifierEENS0_21default_call_policiesENS0_6detail8keywordsILj0EEENS_3mpl7vector3IvS5_S8_EEEENS0_3api6objectET_RKT0_RKT1_RKT2_
      fun:_ZN5boost6python6class_IN7eformat5write17FullEventFragmentENS0_6detail13not_specifiedES6_S6_E8def_implIS4_PFvRS4_RNS2_6helper16SourceIdentifierEENS5_10def_helperIPKcS6_S6_S6_EEEEvPT_SH_T0_RKT1_z
   }
   {
      Service::Service(std::basic_string<char,#std::char_traits<char>,#std::allocator<char>#>#const=,#ISvcLocator*)
      Memcheck:Leak
      fun:_Znwj
      fun:_ZN7ServiceC2ERKSsP11ISvcLocator
      fun:_ZN10MessageSvcC1ERKSsP11ISvcLocator
      fun:_ZN10SvcFactoryI10MessageSvcE6createERKSsP11ISvcLocator
      fun:_ZN61_GLOBAL__N_.._src_MessageSvc_MessageSvc.cpp_9D2164D3_E48091907FactoryI10MessageSvcFP8IServiceSsP11ISvcLocatorEE4FuncEPvS8_RKSt6vectorIS8_SaIS8_EES8_
   }
   {
      Reflex::Environ<__gnu_cxx::__normal_iterator<LArOnOffId_P::LArOnOffId_P_t*,#std::vector<LArOnOffId_P::LArOnOffId_P_t,#std::allocator<LArOnOffId_P::LArOnOffId_P_t>#>#>#>::Create()
      Memcheck:Leak
      fun:_Znwj
      fun:_ZN6Reflex7EnvironIN9__gnu_cxx17__normal_iteratorIPN12LArOnOffId_P14LArOnOffId_P_tESt6vectorIS4_SaIS4_EEEEE6CreateEv
      fun:_ZNK19TGenCollectionProxy7Method06invokeEv
      fun:_ZN19TGenCollectionProxy9PushProxyEPv
      fun:_ZN23TVirtualCollectionProxy8TPushPopC1EPS_Pv
   }
   {
      Reflex::MemberBase::MemberBase(char#const*,#Reflex::Type#const=,#Reflex::TYPE,#unsigned#int)
      Memcheck:Leak
      fun:_Znwj
      fun:_ZN6Reflex10MemberBaseC2EPKcRKNS_4TypeENS_4TYPEEj
      fun:_ZN6Reflex14FunctionMemberC1EPKcRKNS_4TypeEPFvPvS6_RKSt6vectorIS6_SaIS6_EES6_ES6_S2_jNS_4TYPEE
      fun:_ZN6Reflex16ClassBuilderImpl17AddFunctionMemberEPKcRKNS_4TypeEPFvPvS6_RKSt6vectorIS6_SaIS6_EES6_ES6_S2_j
      fun:_ZN6Reflex13ClassBuilderTIN4ROOT6Cintex6CintexEE17AddFunctionMemberERKNS_4TypeEPKcPFvPvSA_RKSt6vectorISA_SaISA_EESA_ESA_S9_j
   }
   {
      Cint::G__ClassInfo::CheckValidRootInfo()
      Memcheck:Leak
      fun:malloc
      fun:_ZN4Cint12G__ClassInfo18CheckValidRootInfoEv
      fun:_ZN4Cint12G__ClassInfo10SetVersionEi
      fun:_ZN4ROOT6Cintex21ROOTClassEnhancerInfo19Default_CreateClassEN6Reflex4TypeEPNS_17TGenericClassInfoE
      fun:_ZN4ROOT6Cintex21ROOTClassEnhancerInfo15Stub_DictionaryEPv
   }
   {
      ztvo5pe
      Memcheck:Value4
      fun:ztucbtx
      fun:ztvo5pe
      fun:kzsrepw
      fun:kpu8lgn
      fun:kpuauthxa
   }
   {
      Reflex::Any::Holder<ConverterID>::Clone()#const
      Memcheck:Leak
      fun:_Znwj
      fun:_ZNK6Reflex3Any6HolderI11ConverterIDE5CloneEv
      fun:_ZN6Reflex3AnyC1ERKS0_
      fun:_ZN6Reflex3AnyaSERKS0_
      fun:_ZN6Reflex16PropertyListImpl11AddPropertyEjRKNS_3AnyE
   }
   {
      __gnu_cxx::new_allocator<std::_Rb_tree_node<std::pair<Reflex::Type#const,#ROOT::Cintex::CINTClassBuilder*>#>#>::allocate(unsigned#int,#void#const*)
      Memcheck:Leak
      fun:_Znwj
      fun:_ZN9__gnu_cxx13new_allocatorISt13_Rb_tree_nodeISt4pairIKN6Reflex4TypeEPN4ROOT6Cintex16CINTClassBuilderEEEE8allocateEjPKv
      fun:_ZNSt8_Rb_treeIN6Reflex4TypeESt4pairIKS1_PN4ROOT6Cintex16CINTClassBuilderEESt10_Select1stIS8_ESt4lessIS1_ESaIS8_EE11_M_get_nodeEv
      fun:_ZNSt8_Rb_treeIN6Reflex4TypeESt4pairIKS1_PN4ROOT6Cintex16CINTClassBuilderEESt10_Select1stIS8_ESt4lessIS1_ESaIS8_EE14_M_create_nodeERKS8_
      fun:_ZNSt8_Rb_treeIN6Reflex4TypeESt4pairIKS1_PN4ROOT6Cintex16CINTClassBuilderEESt10_Select1stIS8_ESt4lessIS1_ESaIS8_EE9_M_insertEPSt18_Rb_tree_node_baseSG_RKS8_
   }
   {
      TCint::UpdateListOfGlobals()
      Memcheck:Leak
      fun:_Znwj
      fun:_ZN5TCint19UpdateListOfGlobalsEv
      fun:_ZN5TROOT16GetListOfGlobalsEb
      fun:_ZN11TDataMemberC1EPvP6TClass
      fun:_ZN5TCint23CreateListOfDataMembersEP6TClass
   }
   {
      boost::python::objects::py_function::py_function<boost::python::detail::caller<EventStorage::DRError#(EventStorage::DataReader::*)(),#boost::python::default_call_policies,#boost::mpl::vector2<EventStorage::DRError,#EventStorage::DataReader=>#>#>(boost::python::detail::caller<EventStorage::DRError#(EventStorage::DataReader::*)(),#boost::python::default_call_policies,#boost::mpl::vector2<EventStorage::DRError,#EventStorage::DataReader=>#>#const=)
      Memcheck:Leak
      fun:_Znwj
      fun:_ZN5boost6python7objects11py_functionC1INS0_6detail6callerIMN12EventStorage10DataReaderEFNS6_7DRErrorEvENS0_21default_call_policiesENS_3mpl7vector2IS8_RS7_EEEEEERKT_
      fun:_ZN5boost6python6detail17make_function_auxIMN12EventStorage10DataReaderEFNS3_7DRErrorEvENS0_21default_call_policiesENS_3mpl7vector2IS5_RS4_EEN4mpl_4int_ILi0EEEEENS0_3api6objectET_RKT0_RKT1_RKSt4pairIPKNS1_7keywordESS_ET2_
      fun:_ZN5boost6python13make_functionIMN12EventStorage10DataReaderEFNS2_7DRErrorEvENS0_21default_call_policiesENS0_6detail8keywordsILj0EEENS_3mpl7vector2IS4_RS3_EEEENS0_3api6objectET_RKT0_RKT1_RKT2_
      fun:_ZN5boost6python6class_IN12EventStorage10DataReaderENS_10shared_ptrIS3_EENS_12noncopyable_11noncopyableENS0_6detail13not_specifiedEE8def_implIS3_MS3_FNS2_7DRErrorEvENS8_10def_helperIPKcS9_S9_S9_EEEEvPT_SH_T0_RKT1_z
   }
   {
      Property*#PropertyMgr::declareProperty<bool>(std::basic_string<char,#std::char_traits<char>,#std::allocator<char>#>#const=,#bool=,#std::basic_string<char,#std::char_traits<char>,#std::allocator<char>#>#const=)
      Memcheck:Leak
      fun:_Znwj
      fun:_ZN11PropertyMgr15declarePropertyIbEEP8PropertyRKSsRT_S4_
      fun:_ZN14ApplicationMgrC1EP10IInterface
      fun:_ZN69_GLOBAL__N_.._src_ApplicationMgr_ApplicationMgr.cpp_9D2164D3_9BE5AFB07FactoryI14ApplicationMgrFP10IInterfaceS3_EE4FuncEPvS6_RKSt6vectorIS6_SaIS6_EES6_
      fun:_ZNK6Reflex14FunctionMember6InvokeERKNS_6ObjectEPS1_RKSt6vectorIPvSaIS6_EE
   }
   {
      lpmrist
      Memcheck:Leak
      fun:malloc
      fun:lpmrist
      fun:lpminitm
      fun:lpminit
      fun:LhtIntCreate
   }
   {
      boost::python::objects::py_function::py_function<boost::python::detail::caller<void#(*)(_object*,#eformat::helper::u32slice#const=),#boost::python::with_custodian_and_ward<1u,#2u,#boost::python::default_call_policies>,#boost::mpl::vector3<void,#_object*,#eformat::helper::u32slice#const=>#>#>(boost::python::detail::caller<void#(*)(_object*,#eformat::helper::u32slice#const=),#boost::python::with_custodian_and_ward<1u,#2u,#boost::python::default_call_policies>,#boost::mpl::vector3<void,#_object*,#eformat::helper::u32slice#const=>#>#const=)
      Memcheck:Leak
      fun:_Znwj
      fun:_ZN5boost6python7objects11py_functionC1INS0_6detail6callerIPFvP7_objectRKN7eformat6helper8u32sliceEENS0_23with_custodian_and_wardILj1ELj2ENS0_21default_call_policiesEEENS_3mpl7vector3IvS7_SC_EEEEEERKT_
      fun:_ZN5boost6python6detail17make_function_auxIPFvP7_objectRKN7eformat6helper8u32sliceEENS0_23with_custodian_and_wardILj1ELj2ENS0_21default_call_policiesEEENS_3mpl7vector3IvS4_S9_EEN4mpl_4int_ILi0EEEEENS0_3api6objectET_RKT0_RKT1_RKSt4pairIPKNS1_7keywordESX_ET2_
      fun:_ZN5boost6python6detail27make_keyword_range_functionIPFvP7_objectRKN7eformat6helper8u32sliceEENS0_23with_custodian_and_wardILj1ELj2ENS0_21default_call_policiesEEEEENS0_3api6objectET_RKT0_RKSt4pairIPKNS1_7keywordESO_E
      fun:_ZN5boost6python6detail30make_keyword_range_constructorINS_3mpl7vector1IRKN7eformat6helper8u32sliceEEENS3_4sizeISA_EENS0_7objects14pointer_holderINS_10shared_ptrINS5_17FullEventFragmentIPKjEEEESJ_EENS0_23with_custodian_and_wardILj1ELj2ENS0_21default_call_policiesEEEEENS0_3api6objectERKT2_RKSt4pairIPKNS1_7keywordESX_EPT1_PT_PT0_
   }
   {
      std::vector<boost::detail::sei_<unsigned#int,#std::_List_iterator<boost::list_edge<unsigned#int,#boost::property<boost::edge_index_t,#unsigned#int,#boost::property<boost::(anonymous#namespace)::edge_cast_t,#void*#(*)(void*),#boost::no_property>#>#>#>,#boost::property<boost::edge_index_t,#unsigned#int,#boost::property<boost::(anonymous#namespace)::edge_cast_t,#void*#(*)(void*),#boost::no_property>#>#>,#std::allocator<boost::detail::sei_<unsigned#int,#std::_List_iterator<boost::list_edge<unsigned#int,#boost::property<boost::edge_index_t,#unsigned#int,#boost::property<boost::(anonymous#namespace)::edge_cast_t,#void*#(*)(void*),#boost::no_property>#>#>#>,#boost::property<boost::edge_index_t,#unsigned#int,#boost::property<boost::(anonymous#namespace)::edge_cast_t,#void*#(*)(void*),#boost::no_property>#>#>#>#>::vector(std::vector<boost::detail::sei_<unsigned#int,#std::_List_iterator<boost::list_edge<unsigned#int,#boost::property<boost::edge_index_t,#unsigned#int,#boost::property<boost::(anonymous#namespace)::edge_cast_t,#void*#(*)(void*),#boost::no_property>#>#>#>,#boost::property<boost::edge_index_t,#unsigned#int,#boost::property<boost::(anonymous#namespace)::edge_cast_t,#void*#(*)(void*),#boost::no_property>#>#>,#std::allocator<boost::detail::sei_<unsigned#int,#std::_List_iterator<boost::list_edge<unsigned#int,#boost::property<boost::edge_index_t,#unsigned#int,#boost::property<boost::(anonymous#namespace)::edge_cast_t,#void*#(*)(void*),#boost::no_property>#>#>#>,#boost::property<boost::edge_index_t,#unsigned#int,#boost::property<boost::(anonymous#namespace)::edge_cast_t,#void*#(*)(void*),#boost::no_property>#>#>#>#>#const=)
      Memcheck:Leak
      fun:_Znwj
      fun:_ZNSt6vectorIN5boost6detail4sei_IjSt14_List_iteratorINS0_9list_edgeIjNS0_8propertyINS0_12edge_index_tEjNS5_INS0_67_GLOBAL__N_libs_python_src_object_inheritance.cpp_CF14568D_462478FE11edge_cast_tEPFPvS9_ENS0_11no_propertyEEEEEEEESE_EESaISH_EEC1ERKSJ_
      fun:_ZNSt6vectorIN5boost6detail12adj_list_genINS0_14adjacency_listINS0_4vecSES4_NS0_14bidirectionalSENS0_11no_propertyENS0_8propertyINS0_12edge_index_tEjNS7_INS0_67_GLOBAL__N_libs_python_src_object_inheritance.cpp_CF14568D_462478FE11edge_cast_tEPFPvSB_ES6_EEEES6_NS0_5listSEEES4_S4_S5_S6_SF_S6_SG_E6config13stored_vertexESaISK_EE14_M_fill_insertEN9__gnu_cxx17__normal_iteratorIPSK_SM_EEjRKSK_
      fun:_ZN5boost67_GLOBAL__N_libs_python_src_object_inheritance.cpp_CF14568D_462478FE11demand_typeENS_6python9type_infoE
      fun:_ZN5boost6python7objects23register_dynamic_id_auxENS0_9type_infoEPFSt4pairIPvS2_ES4_E
   }
   {
      __fopen_internal
      Memcheck:Leak
      fun:malloc
      fun:__fopen_internal
      fun:fopen64
      fun:open_the_file
      fun:file_init
   }
   {
      __gnu_cxx::new_allocator<std::_Rb_tree_node<std::pair<unsigned#long#const,#std::basic_string<char,#std::char_traits<char>,#std::allocator<char>#>#>#>#>::allocate(unsigned#int,#void#const*)
      Memcheck:Leak
      fun:_Znwj
      fun:_ZN9__gnu_cxx13new_allocatorISt13_Rb_tree_nodeISt4pairIKmSsEEE8allocateEjPKv
      fun:_ZNSt8_Rb_treeImSt4pairIKmSsESt10_Select1stIS2_ESt4lessImESaIS2_EE11_M_get_nodeEv
      fun:_ZNSt8_Rb_treeImSt4pairIKmSsESt10_Select1stIS2_ESt4lessImESaIS2_EE14_M_create_nodeERKS2_
      fun:_ZNSt8_Rb_treeImSt4pairIKmSsESt10_Select1stIS2_ESt4lessImESaIS2_EE9_M_insertEPSt18_Rb_tree_node_baseSA_RKS2_
   }
   {
      JobOptionsSvc::addPropertyToCatalogue(std::basic_string<char,#std::char_traits<char>,#std::allocator<char>#>#const=,#Property#const=)
      Memcheck:Leak
      fun:_Znwj
      fun:_ZN13JobOptionsSvc22addPropertyToCatalogueERKSsRK8Property
      fun:_ZN88_GLOBAL__N_.._i686_slc4_gcc34_dbg_dict_GaudiKernel_dictionary_dict.cpp_17E02520_101EBE7811method_5581EPvS0_RKSt6vectorIS0_SaIS0_EES0_
      fun:_ZN4ROOT6Cintex24Method_stub_with_contextEPNS0_13StubContext_tEP8G__valuePKcP8G__parami
      obj:*
   }
   {
      boost::python::objects::py_function::py_function<boost::python::detail::caller<void#(*)(eformat::write::FullEventFragment=,#eformat::helper::u32list=),#boost::python::with_custodian_and_ward<1u,#2u,#boost::python::default_call_policies>,#boost::mpl::vector3<void,#eformat::write::FullEventFragment=,#eformat::helper::u32list=>#>#>(boost::python::detail::caller<void#(*)(eformat::write::FullEventFragment=,#eformat::helper::u32list=),#boost::python::with_custodian_and_ward<1u,#2u,#boost::python::default_call_policies>,#boost::mpl::vector3<void,#eformat::write::FullEventFragment=,#eformat::helper::u32list=>#>#const=)
      Memcheck:Leak
      fun:_Znwj
      fun:_ZN5boost6python7objects11py_functionC1INS0_6detail6callerIPFvRN7eformat5write17FullEventFragmentERNS6_6helper7u32listEENS0_23with_custodian_and_wardILj1ELj2ENS0_21default_call_policiesEEENS_3mpl7vector3IvS9_SC_EEEEEERKT_
      fun:_ZN5boost6python6detail17make_function_auxIPFvRN7eformat5write17FullEventFragmentERNS3_6helper7u32listEENS0_23with_custodian_and_wardILj1ELj2ENS0_21default_call_policiesEEENS_3mpl7vector3IvS6_S9_EEN4mpl_4int_ILi0EEEEENS0_3api6objectET_RKT0_RKT1_RKSt4pairIPKNS1_7keywordESX_ET2_
      fun:_ZN5boost6python13make_functionIPFvRN7eformat5write17FullEventFragmentERNS2_6helper7u32listEENS0_23with_custodian_and_wardILj1ELj2ENS0_21default_call_policiesEEENS0_6detail8keywordsILj0EEENS_3mpl7vector3IvS5_S8_EEEENS0_3api6objectET_RKT0_RKT1_RKT2_
      fun:_ZN5boost6python6class_IN7eformat5write17FullEventFragmentENS0_6detail13not_specifiedES6_S6_E8def_implIS4_PFvRS4_RNS2_6helper7u32listEENS5_10def_helperINS0_23with_custodian_and_wardILj1ELj2ENS0_21default_call_policiesEEES6_S6_S6_EEEEvPT_PKcT0_RKT1_z
   }
   {
      PyThread_allocate_lock
      Memcheck:Leak
      fun:malloc
      fun:PyThread_allocate_lock
      fun:PyInterpreterState_New
      fun:Py_InitializeEx
      fun:Py_Initialize
   }
   {
      sltsini
      Memcheck:Leak
      fun:malloc
      fun:sltsini
      fun:slxmxinit
      fun:lxzinit
      fun:lpminitm
   }
   {
      Reflex::Any::Holder<char#const*>::Clone()#const
      Memcheck:Leak
      fun:_Znwj
      fun:_ZNK6Reflex3Any6HolderIPKcE5CloneEv
      fun:_ZN6Reflex3AnyC1ERKS0_
      fun:_ZN6Reflex3AnyaSERKS0_
      fun:_ZN6Reflex16PropertyListImpl11AddPropertyEjRKNS_3AnyE
   }
   {
      boost::python::detail::register_exception_handler(boost::function2<bool,#boost::python::detail::exception_handler#const=,#boost::function0<void>#const=>#const=)
      Memcheck:Leak
      fun:_Znwj
      fun:_ZN5boost6python6detail26register_exception_handlerERKNS_9function2IbRKNS1_17exception_handlerERKNS_9function0IvEEEE
      fun:_ZN5boost6python29register_exception_translatorISt11range_errorPFvRKS2_EEEvT0_PNS_4typeIT_EE
      fun:_Z30init_module_libpyevent_storagev
      fun:_ZN5boost6detail8function26void_function_ref_invoker0IPFvvEvE6invokeERNS1_15function_bufferE
   }
   {
      Reflex::Any::Holder<std::basic_string<char,#std::char_traits<char>,#std::allocator<char>#>#>::Clone()#const
      Memcheck:Leak
      fun:_Znwj
      fun:_ZNK6Reflex3Any6HolderISsE5CloneEv
      fun:_ZN6Reflex3AnyC1ERKS0_
      fun:_ZSt10_ConstructIN6Reflex3AnyES1_EvPT_RKT0_
      fun:_ZSt24__uninitialized_copy_auxIN9__gnu_cxx17__normal_iteratorIPN6Reflex3AnyESt6vectorIS3_SaIS3_EEEES8_ET0_T_SA_S9_12__false_type
   }
   {
      G__register_sharedlib
      Memcheck:Leak
      fun:malloc
      fun:G__register_sharedlib
      fun:G__RegisterLibrary
      fun:G__add_setup_func
      fun:_ZN29G__cpp_setup_initG__MetaUtilsC1Ev
   }
   {
      Reflex::FunctionTypeBuilder(Reflex::Type#const=,#Reflex::Type#const=)
      Memcheck:Leak
      fun:_Znwj
      fun:_ZN6Reflex19FunctionTypeBuilderERKNS_4TypeES2_
      fun:_ZN55_GLOBAL__N_cint_cintex_src_Cintex.cxx_EF105EC1_30BF528113Cintex_dict_tC1Ev
      fun:_Z41__static_initialization_and_destruction_0ii
      fun:_GLOBAL__I__ZN55_GLOBAL__N_cint_cintex_src_Cintex.cxx_EF105EC1_30BF528132Declare_additional_CINT_typedefsEv
   }
   {
      TCint::FindSpecialObject(char#const*,#Cint::G__ClassInfo*,#void**,#void**)
      Memcheck:Leak
      fun:_Znwj
      fun:_ZN5TCint17FindSpecialObjectEPKcPN4Cint12G__ClassInfoEPPvS6_
      fun:TCint_FindSpecialObject
      fun:G__APIGetSpecialObject_layer1
      fun:G__getvariable
   }
   {
      Reflex::PropertyListImpl::AddProperty(unsigned#int,#Reflex::Any#const=)
      Memcheck:Leak
      fun:_Znwj
      fun:_ZN6Reflex16PropertyListImpl11AddPropertyEjRKNS_3AnyE
      fun:_ZN6Reflex16PropertyListImpl11AddPropertyERKSsRKNS_3AnyE
      fun:_ZNK6Reflex12PropertyList11AddPropertyERKSsRKNS_3AnyE
      fun:_ZN6Reflex15FunctionBuilder11AddPropertyEPKcNS_3AnyE
   }
   {
      Reflex::TypeBase::TypeBase(char#const*,#unsigned#int,#Reflex::TYPE,#std::type_info#const=,#Reflex::Type#const=)
      Memcheck:Leak
      fun:_Znwj
      fun:_ZN6Reflex8TypeBaseC2EPKcjNS_4TYPEERKSt9type_infoRKNS_4TypeE
      fun:_ZN6Reflex7TypedefC1EPKcRKNS_4TypeENS_4TYPEES5_
      fun:_ZN6Reflex16ClassBuilderImpl10AddTypedefERKNS_4TypeEPKc
      fun:_ZN6Reflex12ClassBuilder10AddTypedefERKNS_4TypeEPKc
   }
   {
      boost::python::objects::py_function::py_function<boost::python::detail::caller<void#(daq::RawFileName::*)(unsigned#int,#std::basic_string<char,#std::char_traits<char>,#std::allocator<char>#>),#boost::python::default_call_policies,#boost::mpl::vector4<void,#daq::RawFileName=,#unsigned#int,#std::basic_string<char,#std::char_traits<char>,#std::allocator<char>#>#>#>#>(boost::python::detail::caller<void#(daq::RawFileName::*)(unsigned#int,#std::basic_string<char,#std::char_traits<char>,#std::allocator<char>#>),#boost::python::default_call_policies,#boost::mpl::vector4<void,#daq::RawFileName=,#unsigned#int,#std::basic_string<char,#std::char_traits<char>,#std::allocator<char>#>#>#>#const=)
      Memcheck:Leak
      fun:_Znwj
      fun:_ZN5boost6python7objects11py_functionC1INS0_6detail6callerIMN3daq11RawFileNameEFvjSsENS0_21default_call_policiesENS_3mpl7vector4IvRS7_jSsEEEEEERKT_
      fun:_ZN5boost6python6detail17make_function_auxIMN3daq11RawFileNameEFvjSsENS0_21default_call_policiesENS_3mpl7vector4IvRS4_jSsEEN4mpl_4int_ILi0EEEEENS0_3api6objectET_RKT0_RKT1_RKSt4pairIPKNS1_7keywordESR_ET2_
      fun:_ZN5boost6python13make_functionIMN3daq11RawFileNameEFvjSsENS0_21default_call_policiesENS0_6detail8keywordsILj0EEENS_3mpl7vector4IvRS3_jSsEEEENS0_3api6objectET_RKT0_RKT1_RKT2_
      fun:_ZN5boost6python6class_IN3daq11RawFileNameENS0_6detail13not_specifiedES5_S5_E8def_implIS3_MS3_FvjSsENS4_10def_helperIPKcS5_S5_S5_EEEEvPT_SC_T0_RKT1_z
   }
   {
      PyList_Append
      Memcheck:Leak
      fun:realloc
      fun:PyList_Append
      fun:PyType_Ready
      fun:_PyExc_Init
      fun:Py_InitializeEx
   }
   {
      Reflex::FunctionTypeBuilder(Reflex::Type#const=,#Reflex::Type#const=,#Reflex::Type#const=)
      Memcheck:Leak
      fun:_Znwj
      fun:_ZN6Reflex19FunctionTypeBuilderERKNS_4TypeES2_S2_
      fun:_ZN4ROOT6Cintex21ROOTClassEnhancerInfo5SetupEv
      fun:_ZN4ROOT6Cintex17ROOTClassEnhancer5SetupEv
      fun:_ZN4ROOT6Cintex8CallbackclERKN6Reflex4TypeE
   }
   {
      boost::python::objects::py_function::py_function<boost::python::detail::caller<void#(*)(_object*,#std::basic_string<char,#std::char_traits<char>,#std::allocator<char>#>,#std::basic_string<char,#std::char_traits<char>,#std::allocator<char>#>,#EventStorage::run_parameters_record),#boost::python::default_call_policies,#boost::mpl::vector5<void,#_object*,#std::basic_string<char,#std::char_traits<char>,#std::allocator<char>#>,#std::basic_string<char,#std::char_traits<char>,#std::allocator<char>#>,#EventStorage::run_parameters_record>#>#>(boost::python::detail::caller<void#(*)(_object*,#std::basic_string<char,#std::char_traits<char>,#std::allocator<char>#>,#std::basic_string<char,#std::char_traits<char>,#std::allocator<char>#>,#EventStorage::run_parameters_record),#boost::python::default_call_policies,#boost::mpl::vector5<void,#_object*,#std::basic_string<char,#std::char_traits<char>,#std::allocator<char>#>,#std::basic_string<char,#std::char_traits<char>,#std::allocator<char>#>,#EventStorage::run_parameters_record>#>#const=)
      Memcheck:Leak
      fun:_Znwj
      fun:_ZN5boost6python7objects11py_functionC1INS0_6detail6callerIPFvP7_objectSsSsN12EventStorage21run_parameters_recordEENS0_21default_call_policiesENS_3mpl7vector5IvS7_SsSsS9_EEEEEERKT_
      fun:_ZN5boost6python6detail17make_function_auxIPFvP7_objectSsSsN12EventStorage21run_parameters_recordEENS0_21default_call_policiesENS_3mpl7vector5IvS4_SsSsS6_EEN4mpl_4int_ILi0EEEEENS0_3api6objectET_RKT0_RKT1_RKSt4pairIPKNS1_7keywordESS_ET2_
      fun:_ZN5boost6python6detail27make_keyword_range_functionIPFvP7_objectSsSsN12EventStorage21run_parameters_recordEENS0_21default_call_policiesEEENS0_3api6objectET_RKT0_RKSt4pairIPKNS1_7keywordESJ_E
      fun:_ZN5boost6python6detail30make_keyword_range_constructorINS_3mpl7vector3IKSsS5_KN12EventStorage21run_parameters_recordEEENS3_4sizeIS9_EENS0_7objects12value_holderINS6_10DataWriterEEENS0_21default_call_policiesEEENS0_3api6objectERKT2_RKSt4pairIPKNS1_7keywordESP_EPT1_PT_PT0_
   }
   {
      kpufprow
      Memcheck:Overlap
      fun:_intel_fast_memcpy
      fun:kpufprow
      fun:kpufch0
      fun:kpufch
      fun:OCIStmtFetch2
   }
   {
      ROOT::Cintex::Cintex::Cintex()
      Memcheck:Leak
      fun:_Znwj
      fun:_ZN4ROOT6Cintex6CintexC1Ev
      fun:_ZN4ROOT6Cintex6Cintex8InstanceEv
      fun:_ZN4ROOT6Cintex6Cintex5DebugEv
      fun:_ZN4ROOT6Cintex16CINTClassBuilder5SetupEv
   }
   {
      __gnu_cxx::new_allocator<std::_Rb_tree_node<std::pair<std::basic_string<char,#std::char_traits<char>,#std::allocator<char>#>#const,#int>#>#>::allocate(unsigned#int,#void#const*)
      Memcheck:Leak
      fun:_Znwj
      fun:_ZN9__gnu_cxx13new_allocatorISt13_Rb_tree_nodeISt4pairIKSsiEEE8allocateEjPKv
      fun:_ZNSt8_Rb_treeISsSt4pairIKSsiESt10_Select1stIS2_ESt4lessISsESaIS2_EE11_M_get_nodeEv
      fun:_ZNSt8_Rb_treeISsSt4pairIKSsiESt10_Select1stIS2_ESt4lessISsESaIS2_EE14_M_create_nodeERKS2_
      fun:_ZNSt8_Rb_treeISsSt4pairIKSsiESt10_Select1stIS2_ESt4lessISsESaIS2_EE9_M_insertEPSt18_Rb_tree_node_baseSA_RKS2_
   }
   {
      __static_initialization_and_destruction_0(int,#int)
      Memcheck:Leak
      fun:_Znwj
      fun:_Z41__static_initialization_and_destruction_0ii
      fun:_GLOBAL__I_gCINTMutex
      obj:/afs/cern.ch/sw/lcg/app/releases/ROOT/5.22.00d/slc4_ia32_gcc34_dbg/root/lib/libCore.so
      obj:/afs/cern.ch/sw/lcg/app/releases/ROOT/5.22.00d/slc4_ia32_gcc34_dbg/root/lib/libCore.so
   }
   {
      Reflex::TypeBuilder(char#const*,#unsigned#int)
      Memcheck:Leak
      fun:_Znwj
      fun:_ZN6Reflex11TypeBuilderEPKcj
      fun:_Z41__static_initialization_and_destruction_0ii
      fun:_GLOBAL__I__ZN84_GLOBAL__N_.._i686_slc4_gcc34_dbg_dict_GaudiPython_kernel_dict.cpp_9D2164D3_B5DBB98A4nsb0E
      obj:/afs/cern.ch/atlas/offline/external/GAUDI/v20r4p4-LCG56c/GaudiPython/i686-slc4-gcc34-dbg/libGaudiPythonDict.so
   }
   {
      Reflex::FunctionTypeBuilder(Reflex::Type#const=,#Reflex::Type#const=,#Reflex::Type#const=,#Reflex::Type#const=,#Reflex::Type#const=,#Reflex::Type#const=,#Reflex::Type#const=,#Reflex::Type#const=,#Reflex::Type#const=,#Reflex::Type#const=,#Reflex::Type#const=,#Reflex::Type#const=)
      Memcheck:Leak
      fun:_Znwj
      fun:_ZN6Reflex19FunctionTypeBuilderERKNS_4TypeES2_S2_S2_S2_S2_S2_S2_S2_S2_S2_S2_
      fun:_ZN84_GLOBAL__N_.._i686_slc4_gcc34_dbg_dict_GaudiPython_kernel_dict.cpp_9D2164D3_B5DBB98A34__GaudiPython__HistoDecorator_dictEv
      fun:_ZN84_GLOBAL__N_.._i686_slc4_gcc34_dbg_dict_GaudiPython_kernel_dict.cpp_9D2164D3_B5DBB98A84_GLOBAL__N_.._i686_slc4_gcc34_dbg_dict_GaudiPython_kernel_dict.cpp_9D2164D3_B5DBB98A12DictionariesC1Ev
      fun:_Z41__static_initialization_and_destruction_0ii
   }
   {
      Reflex::ClassBuilderImpl::AddEnum(char#const*,#char#const*,#std::type_info#const*,#unsigned#int)
      Memcheck:Leak
      fun:_Znwj
      fun:_ZN6Reflex16ClassBuilderImpl7AddEnumEPKcS2_PKSt9type_infoj
      fun:_ZN6Reflex12ClassBuilder7AddEnumEPKcS2_PKSt9type_infoj
      fun:_ZN84_GLOBAL__N_.._i686_slc4_gcc34_dbg_dict_GaudiPython_kernel_dict.cpp_9D2164D3_B5DBB98A29__Gaudi__IDataConnection_dictEv
      fun:_ZN84_GLOBAL__N_.._i686_slc4_gcc34_dbg_dict_GaudiPython_kernel_dict.cpp_9D2164D3_B5DBB98A84_GLOBAL__N_.._i686_slc4_gcc34_dbg_dict_GaudiPython_kernel_dict.cpp_9D2164D3_B5DBB98A12DictionariesC1Ev
   }
   {
      ROOT::TCollectionProxyInfo*#ROOT::TCollectionProxyInfo::Generate<ROOT::TCollectionProxyInfo::Pushback<std::vector<void*,#std::allocator<void*>#>#>#>(ROOT::TCollectionProxyInfo::Pushback<std::vector<void*,#std::allocator<void*>#>#>#const=)
      Memcheck:Leak
      fun:_Znwj
      fun:_ZN4ROOT20TCollectionProxyInfo8GenerateINS0_8PushbackISt6vectorIPvSaIS4_EEEEEEPS0_RKT_
      fun:_ZN4ROOT25GenerateInitInstanceLocalEPKSt6vectorIPvSaIS1_EE
      fun:_Z41__static_initialization_and_destruction_0ii
      fun:_GLOBAL__I_G__set_cpp_environmentrootcint_vector
   }
   {
      realloc
      Memcheck:Leak
      fun:malloc
      fun:realloc
      fun:PyList_Append
      fun:PyType_Ready
      fun:_Py_ReadyTypes
   }
   {
      Reflex::EnumTypeBuilder(char#const*,#char#const*,#std::type_info#const=,#unsigned#int)
      Memcheck:Leak
      fun:_Znwj
      fun:_ZN6Reflex15EnumTypeBuilderEPKcS1_RKSt9type_infoj
      fun:_Z41__static_initialization_and_destruction_0ii
      fun:_GLOBAL__I__ZN84_GLOBAL__N_.._i686_slc4_gcc34_dbg_dict_GaudiPython_kernel_dict.cpp_9D2164D3_B5DBB98A4nsb0E
      obj:/afs/cern.ch/atlas/offline/external/GAUDI/v20r4p4-LCG56c/GaudiPython/i686-slc4-gcc34-dbg/libGaudiPythonDict.so
   }
   {
      Reflex::Environ<__gnu_cxx::__normal_iterator<TileL2_p1*,#std::vector<TileL2_p1,#std::allocator<TileL2_p1>#>#>#>::Create()
      Memcheck:Leak
      fun:_Znwj
      fun:_ZN6Reflex7EnvironIN9__gnu_cxx17__normal_iteratorIP9TileL2_p1St6vectorIS3_SaIS3_EEEEE6CreateEv
      fun:_ZNK19TGenCollectionProxy7Method06invokeEv
      fun:_ZN19TGenCollectionProxy9PushProxyEPv
      fun:_ZN23TVirtualCollectionProxy8TPushPopC1EPS_Pv
   }
   {
      boost::python::objects::py_function::py_function<boost::python::detail::caller<std::basic_string<char,#std::char_traits<char>,#std::allocator<char>#>#(EventStorage::DataReader::*)()#const,#boost::python::default_call_policies,#boost::mpl::vector2<std::basic_string<char,#std::char_traits<char>,#std::allocator<char>#>,#EventStorage::DataReader=>#>#>(boost::python::detail::caller<std::basic_string<char,#std::char_traits<char>,#std::allocator<char>#>#(EventStorage::DataReader::*)()#const,#boost::python::default_call_policies,#boost::mpl::vector2<std::basic_string<char,#std::char_traits<char>,#std::allocator<char>#>,#EventStorage::DataReader=>#>#const=)
      Memcheck:Leak
      fun:_Znwj
      fun:_ZN5boost6python7objects11py_functionC1INS0_6detail6callerIMN12EventStorage10DataReaderEKFSsvENS0_21default_call_policiesENS_3mpl7vector2ISsRS7_EEEEEERKT_
      fun:_ZN5boost6python6detail17make_function_auxIMN12EventStorage10DataReaderEKFSsvENS0_21default_call_policiesENS_3mpl7vector2ISsRS4_EEN4mpl_4int_ILi0EEEEENS0_3api6objectET_RKT0_RKT1_RKSt4pairIPKNS1_7keywordESR_ET2_
      fun:_ZN5boost6python13make_functionIMN12EventStorage10DataReaderEKFSsvENS0_21default_call_policiesENS0_6detail8keywordsILj0EEENS_3mpl7vector2ISsRS3_EEEENS0_3api6objectET_RKT0_RKT1_RKT2_
      fun:_ZN5boost6python6class_IN12EventStorage10DataReaderENS_10shared_ptrIS3_EENS_12noncopyable_11noncopyableENS0_6detail13not_specifiedEE8def_implIS3_MS3_KFSsvENS8_10def_helperIPKcS9_S9_S9_EEEEvPT_SG_T0_RKT1_z
   }
   {
      Reflex::Environ<__gnu_cxx::__normal_iterator<IOVPayloadContainer_p1::CondAttrListEntry_p1*,#std::vector<IOVPayloadContainer_p1::CondAttrListEntry_p1,#std::allocator<IOVPayloadContainer_p1::CondAttrListEntry_p1>#>#>#>::Create()
      Memcheck:Leak
      fun:_Znwj
      fun:_ZN6Reflex7EnvironIN9__gnu_cxx17__normal_iteratorIPN22IOVPayloadContainer_p120CondAttrListEntry_p1ESt6vectorIS4_SaIS4_EEEEE6CreateEv
      fun:_ZNK19TGenCollectionProxy7Method06invokeEv
      fun:_ZN19TGenCollectionProxy9PushProxyEPv
      fun:_ZN23TVirtualCollectionProxy8TPushPopC1EPS_Pv
   }
   {
      ROOT::TCollectionProxyInfo::Environ<__gnu_cxx::__normal_iterator<short*,#std::vector<short,#std::allocator<short>#>#>#>::Create()
      Memcheck:Leak
      fun:_Znwj
      fun:_ZN4ROOT20TCollectionProxyInfo7EnvironIN9__gnu_cxx17__normal_iteratorIPsSt6vectorIsSaIsEEEEE6CreateEv
      fun:_ZNK19TGenCollectionProxy7Method06invokeEv
      fun:_ZN19TGenCollectionProxy9PushProxyEPv
      fun:_ZN23TVirtualCollectionProxy8TPushPopC1EPS_Pv
   }
   {
      ers::LocalStream::instance()
      Memcheck:Leak
      fun:_Znwj
      fun:_ZN3ers11LocalStream8instanceEv
      fun:_ZN3ers16SingletonCreatorINS_11LocalStreamEEC1Ev
      fun:_Z41__static_initialization_and_destruction_0ii
      fun:_GLOBAL__I__ZN51_GLOBAL__N_.._src_LocalStream.cxx_17E02520_744823F320ers_NoValue_instanceE
   }
   {
      boost::python::objects::py_function::py_function<boost::python::detail::caller<boost::shared_ptr<eformat::helper::u32list>#(*)(boost::python::list#const=),#boost::python::detail::constructor_policy<boost::python::default_call_policies>,#boost::mpl::vector2<boost::shared_ptr<eformat::helper::u32list>,#boost::python::list#const=>#>,#boost::mpl::v_item<void,#boost::mpl::v_item<boost::python::api::object,#boost::mpl::v_mask<boost::mpl::vector2<boost::shared_ptr<eformat::helper::u32list>,#boost::python::list#const=>,#1>,#1>,#1>#>(boost::python::detail::caller<boost::shared_ptr<eformat::helper::u32list>#(*)(boost::python::list#const=),#boost::python::detail::constructor_policy<boost::python::default_call_policies>,#boost::mpl::vector2<boost::shared_ptr<eformat::helper::u32list>,#boost::python::list#const=>#>#const=,#boost::mpl::v_item<void,#boost::mpl::v_item<boost::python::api::object,#boost::mpl::v_mask<boost::mpl::vector2<boost::shared_ptr<eformat::helper::u32list>,#boost::python::list#const=>,#1>,#1>,#1>)
      Memcheck:Leak
      fun:_Znwj
      fun:_ZN5boost6python7objects11py_functionC1INS0_6detail6callerIPFNS_10shared_ptrIN7eformat6helper7u32listEEERKNS0_4listEENS4_18constructor_policyINS0_21default_call_policiesEEENS_3mpl7vector2ISA_SD_EEEENSJ_6v_itemIvNSN_INS0_3api6objectENSJ_6v_maskISL_Li1EEELi1EEELi1EEEEERKT_T0_
      fun:_ZN5boost6python6detail20make_constructor_auxIPFNS_10shared_ptrIN7eformat6helper7u32listEEERKNS0_4listEENS0_21default_call_policiesENS_3mpl7vector2IS7_SA_EEEENS0_3api6objectET_RKT0_RKT1_
      fun:_ZN5boost6python16make_constructorIPFNS_10shared_ptrIN7eformat6helper7u32listEEERKNS0_4listEEEENS0_3api6objectET_
      fun:_Z24init_module_libpyeformatv
   }
   {
      boost::python::objects::py_function::py_function<boost::python::detail::caller<void#(daq::RawFileName::*)(),#boost::python::default_call_policies,#boost::mpl::vector2<void,#daq::RawFileName=>#>#>(boost::python::detail::caller<void#(daq::RawFileName::*)(),#boost::python::default_call_policies,#boost::mpl::vector2<void,#daq::RawFileName=>#>#const=)
      Memcheck:Leak
      fun:_Znwj
      fun:_ZN5boost6python7objects11py_functionC1INS0_6detail6callerIMN3daq11RawFileNameEFvvENS0_21default_call_policiesENS_3mpl7vector2IvRS7_EEEEEERKT_
      fun:_ZN5boost6python6detail17make_function_auxIMN3daq11RawFileNameEFvvENS0_21default_call_policiesENS_3mpl7vector2IvRS4_EEN4mpl_4int_ILi0EEEEENS0_3api6objectET_RKT0_RKT1_RKSt4pairIPKNS1_7keywordESR_ET2_
      fun:_ZN5boost6python13make_functionIMN3daq11RawFileNameEFvvENS0_21default_call_policiesENS0_6detail8keywordsILj0EEENS_3mpl7vector2IvRS3_EEEENS0_3api6objectET_RKT0_RKT1_RKT2_
      fun:_ZN5boost6python6class_IN3daq11RawFileNameENS0_6detail13not_specifiedES5_S5_E8def_implIS3_MS3_FvvENS4_10def_helperIPKcS5_S5_S5_EEEEvPT_SC_T0_RKT1_z
   }
   {
      PyROOT::CreateConverter(std::basic_string<char,#std::char_traits<char>,#std::allocator<char>#>#const=,#long)
      Memcheck:Leak
      fun:_Znwj
      fun:_ZN6PyROOT15CreateConverterERKSsl
      fun:_ZN6PyROOT13TMethodHolderINS_13TScopeAdapterENS_14TMemberAdapterEE13InitCallFunc_Ev
      fun:_ZN6PyROOT13TMethodHolderINS_13TScopeAdapterENS_14TMemberAdapterEE10InitializeEv
      fun:_ZN6PyROOT18TClassMethodHolderINS_13TScopeAdapterENS_14TMemberAdapterEEclEPNS_11ObjectProxyEP7_objectS7_
   }
   {
      Reflex::Environ<__gnu_cxx::__normal_iterator<LArDAC2uAP*,#std::vector<LArDAC2uAP,#std::allocator<LArDAC2uAP>#>#>#>::Create()
      Memcheck:Leak
      fun:_Znwj
      fun:_ZN6Reflex7EnvironIN9__gnu_cxx17__normal_iteratorIP10LArDAC2uAPSt6vectorIS3_SaIS3_EEEEE6CreateEv
      fun:_ZNK19TGenCollectionProxy7Method06invokeEv
      fun:_ZN19TGenCollectionProxy9PushProxyEPv
      fun:_ZN23TVirtualCollectionProxy8TPushPopC1EPS_Pv
   }
   {
      boost::python::objects::py_function::py_function<boost::python::detail::caller<void#(*)(_object*,#eformat::helper::u32slice#const=),#boost::python::default_call_policies,#boost::mpl::vector3<void,#_object*,#eformat::helper::u32slice#const=>#>#>(boost::python::detail::caller<void#(*)(_object*,#eformat::helper::u32slice#const=),#boost::python::default_call_policies,#boost::mpl::vector3<void,#_object*,#eformat::helper::u32slice#const=>#>#const=)
      Memcheck:Leak
      fun:_Znwj
      fun:_ZN5boost6python7objects11py_functionC1INS0_6detail6callerIPFvP7_objectRKN7eformat6helper8u32sliceEENS0_21default_call_policiesENS_3mpl7vector3IvS7_SC_EEEEEERKT_
      fun:_ZN5boost6python6detail17make_function_auxIPFvP7_objectRKN7eformat6helper8u32sliceEENS0_21default_call_policiesENS_3mpl7vector3IvS4_S9_EEN4mpl_4int_ILi0EEEEENS0_3api6objectET_RKT0_RKT1_RKSt4pairIPKNS1_7keywordESV_ET2_
      fun:_ZN5boost6python6detail27make_keyword_range_functionIPFvP7_objectRKN7eformat6helper8u32sliceEENS0_21default_call_policiesEEENS0_3api6objectET_RKT0_RKSt4pairIPKNS1_7keywordESM_E
      fun:_ZN5boost6python6detail30make_keyword_range_constructorINS_3mpl7vector1IRKN7eformat6helper8u32sliceEEENS3_4sizeISA_EENS0_7objects12value_holderIS7_EENS0_21default_call_policiesEEENS0_3api6objectERKT2_RKSt4pairIPKNS1_7keywordESP_EPT1_PT_PT0_
   }
   {
      boost::python::objects::py_function::py_function<boost::python::detail::caller<void#(EventStorage::DataWriter::*)(std::basic_string<char,#std::char_traits<char>,#std::allocator<char>#>),#boost::python::default_call_policies,#boost::mpl::vector3<void,#EventStorage::DataWriter=,#std::basic_string<char,#std::char_traits<char>,#std::allocator<char>#>#>#>#>(boost::python::detail::caller<void#(EventStorage::DataWriter::*)(std::basic_string<char,#std::char_traits<char>,#std::allocator<char>#>),#boost::python::default_call_policies,#boost::mpl::vector3<void,#EventStorage::DataWriter=,#std::basic_string<char,#std::char_traits<char>,#std::allocator<char>#>#>#>#const=)
      Memcheck:Leak
      fun:_Znwj
      fun:_ZN5boost6python7objects11py_functionC1INS0_6detail6callerIMN12EventStorage10DataWriterEFvSsENS0_21default_call_policiesENS_3mpl7vector3IvRS7_SsEEEEEERKT_
      fun:_ZN5boost6python6detail17make_function_auxIMN12EventStorage10DataWriterEFvSsENS0_21default_call_policiesENS_3mpl7vector3IvRS4_SsEEN4mpl_4int_ILi0EEEEENS0_3api6objectET_RKT0_RKT1_RKSt4pairIPKNS1_7keywordESR_ET2_
      fun:_ZN5boost6python13make_functionIMN12EventStorage10DataWriterEFvSsENS0_21default_call_policiesENS0_6detail8keywordsILj0EEENS_3mpl7vector3IvRS3_SsEEEENS0_3api6objectET_RKT0_RKT1_RKT2_
      fun:_ZN5boost6python6class_IN12EventStorage10DataWriterENS_12noncopyable_11noncopyableENS0_6detail13not_specifiedES7_E8def_implIS3_MS3_FvSsENS6_10def_helperIPKcS7_S7_S7_EEEEvPT_SE_T0_RKT1_z
   }
   {
      PyObject_Malloc
      Memcheck:Leak
      fun:realloc
      fun:PyObject_Malloc
      fun:_PyObject_GC_Malloc
      fun:_PyObject_GC_New
      fun:PyDict_New
   }
   {
      TUnixSystem::Setenv(char#const*,#char#const*)
      Memcheck:Leak
      fun:_Znaj
      fun:_ZN11TUnixSystem6SetenvEPKcS1_
      fun:_Z10SetRootSysv
      fun:_ZN11TUnixSystem4InitEv
      fun:_ZN5TROOT10InitSystemEv
   }
   {
      slwmmgetmem
      Memcheck:Leak
      fun:calloc
      fun:slwmmgetmem
      fun:lmmrist
      fun:lpminitm
      fun:lpminit
   }
   {
      boost::python::objects::py_function::py_function<boost::python::detail::caller<eformat::ROBFragment<unsigned#int#const*>#(*)(eformat::write::FullEventFragment=,#unsigned#int),#boost::python::with_custodian_and_ward_postcall<0u,#1u,#boost::python::default_call_policies>,#boost::mpl::vector3<eformat::ROBFragment<unsigned#int#const*>,#eformat::write::FullEventFragment=,#unsigned#int>#>#>(boost::python::detail::caller<eformat::ROBFragment<unsigned#int#const*>#(*)(eformat::write::FullEventFragment=,#unsigned#int),#boost::python::with_custodian_and_ward_postcall<0u,#1u,#boost::python::default_call_policies>,#boost::mpl::vector3<eformat::ROBFragment<unsigned#int#const*>,#eformat::write::FullEventFragment=,#unsigned#int>#>#const=)
      Memcheck:Leak
      fun:_Znwj
      fun:_ZN5boost6python7objects11py_functionC1INS0_6detail6callerIPFN7eformat11ROBFragmentIPKjEERNS6_5write17FullEventFragmentEjENS0_32with_custodian_and_ward_postcallILj0ELj1ENS0_21default_call_policiesEEENS_3mpl7vector3ISA_SD_jEEEEEERKT_
      fun:_ZN5boost6python6detail17make_function_auxIPFN7eformat11ROBFragmentIPKjEERNS3_5write17FullEventFragmentEjENS0_32with_custodian_and_ward_postcallILj0ELj1ENS0_21default_call_policiesEEENS_3mpl7vector3IS7_SA_jEEN4mpl_4int_ILi0EEEEENS0_3api6objectET_RKT0_RKT1_RKSt4pairIPKNS1_7keywordESY_ET2_
      fun:_ZN5boost6python13make_functionIPFN7eformat11ROBFragmentIPKjEERNS2_5write17FullEventFragmentEjENS0_32with_custodian_and_ward_postcallILj0ELj1ENS0_21default_call_policiesEEENS0_6detail8keywordsILj0EEENS_3mpl7vector3IS6_S9_jEEEENS0_3api6objectET_RKT0_RKT1_RKT2_
      fun:_ZN5boost6python6class_IN7eformat5write17FullEventFragmentENS0_6detail13not_specifiedES6_S6_E8def_implIS4_PFNS2_11ROBFragmentIPKjEERS4_jENS5_10def_helperINS0_32with_custodian_and_ward_postcallILj0ELj1ENS0_21default_call_policiesEEES6_S6_S6_EEEEvPT_PKcT0_RKT1_z
   }
   {
      ztcedencbk
      Memcheck:Value4
      fun:ztcedecb
      fun:ztcedencbk
      fun:ztceb_encblk
      fun:ztceb_padding
      fun:ztcebf
   }
   {
      ztcebi
      Memcheck:Value4
      fun:ztceai
      fun:ztcebi
      fun:ztcei
      fun:ztvo5pe
      fun:kzsrepw
   }
   {
      Reflex::FunctionMemberTemplateInstance::FunctionMemberTemplateInstance(char#const*,#Reflex::Type#const=,#void#(*)(void*,#void*,#std::vector<void*,#std::allocator<void*>#>#const=,#void*),#void*,#char#const*,#unsigned#int,#Reflex::Scope#const=)
      Memcheck:Leak
      fun:_Znwj
      fun:_ZN6Reflex30FunctionMemberTemplateInstanceC1EPKcRKNS_4TypeEPFvPvS6_RKSt6vectorIS6_SaIS6_EES6_ES6_S2_jRKNS_5ScopeE
      fun:_ZN6Reflex16ClassBuilderImpl17AddFunctionMemberEPKcRKNS_4TypeEPFvPvS6_RKSt6vectorIS6_SaIS6_EES6_ES6_S2_j
      fun:_ZN6Reflex12ClassBuilder17AddFunctionMemberERKNS_4TypeEPKcPFvPvS6_RKSt6vectorIS6_SaIS6_EES6_ES6_S5_j
      fun:_ZN84_GLOBAL__N_.._i686_slc4_gcc34_dbg_dict_GaudiPython_kernel_dict.cpp_9D2164D3_B5DBB98A52__PropertyWithValue_std__vector_unsignedsint_s__dictEv
   }
   {
      boost::python::objects::py_function::py_function<boost::python::detail::caller<unsigned#short#(*)(eformat::ROBFragment<unsigned#int#const*>#const=),#boost::python::default_call_policies,#boost::mpl::vector2<unsigned#short,#eformat::ROBFragment<unsigned#int#const*>#const=>#>#>(boost::python::detail::caller<unsigned#short#(*)(eformat::ROBFragment<unsigned#int#const*>#const=),#boost::python::default_call_policies,#boost::mpl::vector2<unsigned#short,#eformat::ROBFragment<unsigned#int#const*>#const=>#>#const=)
      Memcheck:Leak
      fun:_Znwj
      fun:_ZN5boost6python7objects11py_functionC1INS0_6detail6callerIPFtRKN7eformat11ROBFragmentIPKjEEENS0_21default_call_policiesENS_3mpl7vector2ItSC_EEEEEERKT_
      fun:_ZN5boost6python6detail17make_function_auxIPFtRKN7eformat11ROBFragmentIPKjEEENS0_21default_call_policiesENS_3mpl7vector2ItS9_EEN4mpl_4int_ILi0EEEEENS0_3api6objectET_RKT0_RKT1_RKSt4pairIPKNS1_7keywordESV_ET2_
      fun:_ZN5boost6python13make_functionIPFtRKN7eformat11ROBFragmentIPKjEEENS0_21default_call_policiesENS0_6detail8keywordsILj0EEENS_3mpl7vector2ItS8_EEEENS0_3api6objectET_RKT0_RKT1_RKT2_
      fun:_ZN5boost6python6class_IN7eformat11ROBFragmentIPKjEENS0_5basesINS2_6HeaderIS5_EEN4mpl_5void_ESB_SB_SB_SB_SB_SB_SB_SB_EENS0_6detail13not_specifiedESE_E8def_implIS6_PFtRKS6_ENSD_10def_helperIPKcSE_SE_SE_EEEEvPT_SN_T0_RKT1_z
   }
   {
      __gnu_cxx::new_allocator<Reflex::OwnedMember>::allocate(unsigned#int,#void#const*)
      Memcheck:Leak
      fun:_Znwj
      fun:_ZN9__gnu_cxx13new_allocatorIN6Reflex11OwnedMemberEE8allocateEjPKv
      fun:_ZNSt12_Vector_baseIN6Reflex11OwnedMemberESaIS1_EE11_M_allocateEj
      fun:_ZNSt6vectorIN6Reflex11OwnedMemberESaIS1_EE13_M_insert_auxEN9__gnu_cxx17__normal_iteratorIPS1_S3_EERKS1_
      fun:_ZNSt6vectorIN6Reflex11OwnedMemberESaIS1_EE9push_backERKS1_
   }
   {
      Reflex::Instance::Instance()
      Memcheck:Leak
      fun:_Znwj
      fun:_ZN6Reflex8InstanceC1Ev
      fun:_Z41__static_initialization_and_destruction_0ii
      fun:_GLOBAL__I__ZN6Reflex8InstanceC2Ev
      obj:/afs/cern.ch/sw/lcg/app/releases/ROOT/5.22.00d/slc4_ia32_gcc34_dbg/root/lib/libReflex.so
   }
   {
      Reflex::FunctionTypeBuilder(Reflex::Type#const=,#Reflex::Type#const=,#Reflex::Type#const=,#Reflex::Type#const=,#Reflex::Type#const=,#Reflex::Type#const=,#Reflex::Type#const=,#Reflex::Type#const=,#Reflex::Type#const=)
      Memcheck:Leak
      fun:_Znwj
      fun:_ZN6Reflex19FunctionTypeBuilderERKNS_4TypeES2_S2_S2_S2_S2_S2_S2_S2_
      fun:_ZN88_GLOBAL__N_.._i686_slc4_gcc34_dbg_dict_GaudiKernel_dictionary_dict.cpp_17E02520_101EBE7818__Gaudi__Time_dictEv
      fun:_ZN88_GLOBAL__N_.._i686_slc4_gcc34_dbg_dict_GaudiKernel_dictionary_dict.cpp_17E02520_101EBE7888_GLOBAL__N_.._i686_slc4_gcc34_dbg_dict_GaudiKernel_dictionary_dict.cpp_17E02520_101EBE7812DictionariesC1Ev
      fun:_Z41__static_initialization_and_destruction_0ii
   }
   {
      int#PyROOT::BuildRootClassDict<PyROOT::TScopeAdapter,#PyROOT::TBaseAdapter,#PyROOT::TMemberAdapter>(PyROOT::TScopeAdapter#const=,#_object*)
      Memcheck:Leak
      fun:_Znwj
      fun:_ZN6PyROOT18BuildRootClassDictINS_13TScopeAdapterENS_12TBaseAdapterENS_14TMemberAdapterEEEiRKT_P7_object
      fun:_ZN6PyROOT23MakeRootClassFromStringINS_13TScopeAdapterENS_12TBaseAdapterENS_14TMemberAdapterEEEP7_objectRKSsS5_
      fun:_ZN6PyROOT63_GLOBAL__N_bindings_pyroot_src_PyRootType.cxx_17E02520_E34D103311pt_getattroEP7_objectS2_
      fun:PyObject_GetAttr
   }
   {
      Reflex::ScopeBase::ScopeBase(char#const*,#Reflex::TYPE)
      Memcheck:Leak
      fun:_Znwj
      fun:_ZN6Reflex9ScopeBaseC2EPKcNS_4TYPEE
      fun:_ZN6Reflex9NamespaceC1EPKc
      fun:_ZN6Reflex16NamespaceBuilderC1EPKc
      fun:_Z41__static_initialization_and_destruction_0ii
   }
   {
      Reflex::FunctionTypeBuilder(Reflex::Type#const=,#Reflex::Type#const=,#Reflex::Type#const=,#Reflex::Type#const=,#Reflex::Type#const=)
      Memcheck:Leak
      fun:_Znwj
      fun:_ZN6Reflex19FunctionTypeBuilderERKNS_4TypeES2_S2_S2_S2_
      fun:_ZN88_GLOBAL__N_.._i686_slc4_gcc34_dbg_dict_GaudiKernel_dictionary_dict.cpp_17E02520_101EBE7820__IssueSeverity_dictEv
      fun:_ZN88_GLOBAL__N_.._i686_slc4_gcc34_dbg_dict_GaudiKernel_dictionary_dict.cpp_17E02520_101EBE7888_GLOBAL__N_.._i686_slc4_gcc34_dbg_dict_GaudiKernel_dictionary_dict.cpp_17E02520_101EBE7812DictionariesC1Ev
      fun:_Z41__static_initialization_and_destruction_0ii
   }
   {
      boost::python::objects::py_function::py_function<boost::python::detail::caller<void#(*)(_object*,#unsigned#int,#unsigned#int,#unsigned#int,#unsigned#int,#unsigned#int,#unsigned#int,#unsigned#short,#unsigned#int,#unsigned#short,#unsigned#char),#boost::python::default_call_policies,#boost::mpl::vector12<void,#_object*,#unsigned#int,#unsigned#int,#unsigned#int,#unsigned#int,#unsigned#int,#unsigned#int,#unsigned#short,#unsigned#int,#unsigned#short,#unsigned#char>#>#>(boost::python::detail::caller<void#(*)(_object*,#unsigned#int,#unsigned#int,#unsigned#int,#unsigned#int,#unsigned#int,#unsigned#int,#unsigned#short,#unsigned#int,#unsigned#short,#unsigned#char),#boost::python::default_call_policies,#boost::mpl::vector12<void,#_object*,#unsigned#int,#unsigned#int,#unsigned#int,#unsigned#int,#unsigned#int,#unsigned#int,#unsigned#short,#unsigned#int,#unsigned#short,#unsigned#char>#>#const=)
      Memcheck:Leak
      fun:_Znwj
      fun:_ZN5boost6python7objects11py_functionC1INS0_6detail6callerIPFvP7_objectjjjjjjtjthENS0_21default_call_policiesENS_3mpl8vector12IvS7_jjjjjjtjthEEEEEERKT_
      fun:_ZN5boost6python6detail17make_function_auxIPFvP7_objectjjjjjjtjthENS0_21default_call_policiesENS_3mpl8vector12IvS4_jjjjjjtjthEEN4mpl_4int_ILi0EEEEENS0_3api6objectET_RKT0_RKT1_RKSt4pairIPKNS1_7keywordESQ_ET2_
      fun:_ZN5boost6python6detail27make_keyword_range_functionIPFvP7_objectjjjjjjtjthENS0_21default_call_policiesEEENS0_3api6objectET_RKT0_RKSt4pairIPKNS1_7keywordESH_E
      fun:_ZN5boost6python6detail30make_keyword_range_constructorINS_3mpl8vector10IjjjjjjtjthEENS3_4sizeIS5_EENS0_7objects12value_holderIN7eformat5write17FullEventFragmentEEENS0_21default_call_policiesEEENS0_3api6objectERKT2_RKSt4pairIPKNS1_7keywordESN_EPT1_PT_PT0_
   }
   {
      __gnu_cxx::new_allocator<std::_Rb_tree_node<std::pair<std::basic_string<char,#std::char_traits<char>,#std::allocator<char>#>#const,#MessageSvc::msgAry>#>#>::allocate(unsigned#int,#void#const*)
      Memcheck:Leak
      fun:_Znwj
      fun:_ZN9__gnu_cxx13new_allocatorISt13_Rb_tree_nodeISt4pairIKSsN10MessageSvc6msgAryEEEE8allocateEjPKv
      fun:_ZNSt8_Rb_treeISsSt4pairIKSsN10MessageSvc6msgAryEESt10_Select1stIS4_ESt4lessISsESaIS4_EE11_M_get_nodeEv
      fun:_ZNSt8_Rb_treeISsSt4pairIKSsN10MessageSvc6msgAryEESt10_Select1stIS4_ESt4lessISsESaIS4_EE14_M_create_nodeERKS4_
      fun:_ZNSt8_Rb_treeISsSt4pairIKSsN10MessageSvc6msgAryEESt10_Select1stIS4_ESt4lessISsESaIS4_EE9_M_insertEPSt18_Rb_tree_node_baseSC_RKS4_
   }
   {
      Reflex::FunctionTypeBuilder(Reflex::Type#const=,#Reflex::Type#const=,#Reflex::Type#const=,#Reflex::Type#const=,#Reflex::Type#const=,#Reflex::Type#const=,#Reflex::Type#const=,#Reflex::Type#const=,#Reflex::Type#const=,#Reflex::Type#const=,#Reflex::Type#const=,#Reflex::Type#const=,#Reflex::Type#const=,#Reflex::Type#const=,#Reflex::Type#const=,#Reflex::Type#const=,#Reflex::Type#const=)
      Memcheck:Leak
      fun:_Znwj
      fun:_ZN6Reflex19FunctionTypeBuilderERKNS_4TypeES2_S2_S2_S2_S2_S2_S2_S2_S2_S2_S2_S2_S2_S2_S2_S2_
      fun:_ZN102_GLOBAL__N__ZN21T_AthenaRootConverterIN5CLHEP12HepGenMatrixE15OldHepGenMatrixE12CopyOldToNewERKS2_RS1_23__CLHEP__HepRep4x4_dictEv
      fun:_ZN102_GLOBAL__N__ZN21T_AthenaRootConverterIN5CLHEP12HepGenMatrixE15OldHepGenMatrixE12CopyOldToNewERKS2_RS1_102_GLOBAL__N__ZN21T_AthenaRootConverterIN5CLHEP12HepGenMatrixE15OldHepGenMatrixE12CopyOldToNewERKS2_RS1_12DictionariesC1Ev
      fun:_Z41__static_initialization_and_destruction_0ii
   }
   {
      RootUtils::PyROOTTTreePatch::Initialize(_object*,#_object*,#_object*)
      Memcheck:Leak
      fun:_Znwj
      fun:_ZN9RootUtils16PyROOTTTreePatch10InitializeEP7_objectS2_S2_
      fun:_ZN105_GLOBAL__N_.._i686_slc4_gcc34_dbg_dict_RootUtilsPyROOT_RootUtilsPyROOTDict_gen_rflx.cpp_17E02520_58D51C2312method_10024EPvS0_RKSt6vectorIS0_SaIS0_EES0_
      fun:_ZN4ROOT6Cintex24Method_stub_with_contextEPNS0_13StubContext_tEP8G__valuePKcP8G__parami
      obj:*
   }
   {
      __gnu_cxx::new_allocator<__gnu_cxx::_Hashtable_node<std::pair<char#const*#const,#Reflex::TypeName*>#>*>::allocate(unsigned#int,#void#const*)
      Memcheck:Leak
      fun:_Znwj
      fun:_ZN9__gnu_cxx13new_allocatorIPNS_15_Hashtable_nodeISt4pairIKPKcPN6Reflex8TypeNameEEEEE8allocateEjPKv
      fun:_ZNSt12_Vector_baseIPN9__gnu_cxx15_Hashtable_nodeISt4pairIKPKcPN6Reflex8TypeNameEEEESaISB_EE11_M_allocateEj
      fun:_ZNSt6vectorIPN9__gnu_cxx15_Hashtable_nodeISt4pairIKPKcPN6Reflex8TypeNameEEEESaISB_EE20_M_allocate_and_copyIPSB_EESF_jT_SG_
      fun:_ZNSt6vectorIPN9__gnu_cxx15_Hashtable_nodeISt4pairIKPKcPN6Reflex8TypeNameEEEESaISB_EE7reserveEj
   }
   {
      boost::python::objects::py_function::py_function<boost::python::detail::caller<eformat::write::FullEventFragment#const*#(eformat::write::ROBFragment::*)()#const,#boost::python::return_internal_reference<1u,#boost::python::default_call_policies>,#boost::mpl::vector2<eformat::write::FullEventFragment#const*,#eformat::write::ROBFragment=>#>#>(boost::python::detail::caller<eformat::write::FullEventFragment#const*#(eformat::write::ROBFragment::*)()#const,#boost::python::return_internal_reference<1u,#boost::python::default_call_policies>,#boost::mpl::vector2<eformat::write::FullEventFragment#const*,#eformat::write::ROBFragment=>#>#const=)
      Memcheck:Leak
      fun:_Znwj
      fun:_ZN5boost6python7objects11py_functionC1INS0_6detail6callerIMN7eformat5write11ROBFragmentEKFPKNS7_17FullEventFragmentEvENS0_25return_internal_referenceILj1ENS0_21default_call_policiesEEENS_3mpl7vector2ISB_RS8_EEEEEERKT_
      fun:_ZN5boost6python6detail17make_function_auxIMN7eformat5write11ROBFragmentEKFPKNS4_17FullEventFragmentEvENS0_25return_internal_referenceILj1ENS0_21default_call_policiesEEENS_3mpl7vector2IS8_RS5_EEN4mpl_4int_ILi0EEEEENS0_3api6objectET_RKT0_RKT1_RKSt4pairIPKNS1_7keywordESX_ET2_
      fun:_ZN5boost6python13make_functionIMN7eformat5write11ROBFragmentEKFPKNS3_17FullEventFragmentEvENS0_25return_internal_referenceILj1ENS0_21default_call_policiesEEENS0_6detail8keywordsILj0EEENS_3mpl7vector2IS7_RS4_EEEENS0_3api6objectET_RKT0_RKT1_RKT2_
      fun:_ZN5boost6python6class_IN7eformat5write11ROBFragmentENS0_6detail13not_specifiedES6_S6_E8def_implIS4_MS4_KFPKNS3_17FullEventFragmentEvENS5_10def_helperINS0_25return_internal_referenceILj1ENS0_21default_call_policiesEEES6_S6_S6_EEEEvPT_PKcT0_RKT1_z
   }
   {
      Reflex::TypeBase::TypeBase(char#const*,#unsigned#int,#Reflex::TYPE,#std::type_info#const=,#Reflex::Type#const=)
      Memcheck:Leak
      fun:_Znwj
      fun:_ZN6Reflex8TypeBaseC2EPKcjNS_4TYPEERKSt9type_infoRKNS_4TypeE
      fun:_ZN6Reflex8FunctionC1ERKNS_4TypeERKSt6vectorIS1_SaIS1_EERKSt9type_infoNS_4TYPEE
      fun:_ZN6Reflex19FunctionTypeBuilderERKNS_4TypeES2_S2_
      fun:_ZN88_GLOBAL__N_.._i686_slc4_gcc34_dbg_dict_GaudiKernel_dictionary_dict.cpp_17E02520_101EBE7888_GLOBAL__N_.._i686_slc4_gcc34_dbg_dict_GaudiKernel_dictionary_dict.cpp_17E02520_101EBE7812DictionariesC1Ev
   }
   {
      boost::python::objects::py_function::py_function<boost::python::detail::caller<long#long#(EventStorage::DataWriter::*)(),#boost::python::default_call_policies,#boost::mpl::vector2<long#long,#EventStorage::DataWriter=>#>#>(boost::python::detail::caller<long#long#(EventStorage::DataWriter::*)(),#boost::python::default_call_policies,#boost::mpl::vector2<long#long,#EventStorage::DataWriter=>#>#const=)
      Memcheck:Leak
      fun:_Znwj
      fun:_ZN5boost6python7objects11py_functionC1INS0_6detail6callerIMN12EventStorage10DataWriterEFxvENS0_21default_call_policiesENS_3mpl7vector2IxRS7_EEEEEERKT_
      fun:_ZN5boost6python6detail17make_function_auxIMN12EventStorage10DataWriterEFxvENS0_21default_call_policiesENS_3mpl7vector2IxRS4_EEN4mpl_4int_ILi0EEEEENS0_3api6objectET_RKT0_RKT1_RKSt4pairIPKNS1_7keywordESR_ET2_
      fun:_ZN5boost6python13make_functionIMN12EventStorage10DataWriterEFxvENS0_21default_call_policiesENS0_6detail8keywordsILj0EEENS_3mpl7vector2IxRS3_EEEENS0_3api6objectET_RKT0_RKT1_RKT2_
      fun:_ZN5boost6python6class_IN12EventStorage10DataWriterENS_12noncopyable_11noncopyableENS0_6detail13not_specifiedES7_E8def_implIS3_MS3_FxvENS6_10def_helperIPKcS7_S7_S7_EEEEvPT_SE_T0_RKT1_z
   }
   {
      Reflex::FunctionTypeBuilder(Reflex::Type#const=,#Reflex::Type#const=,#Reflex::Type#const=,#Reflex::Type#const=,#Reflex::Type#const=,#Reflex::Type#const=,#Reflex::Type#const=,#Reflex::Type#const=,#Reflex::Type#const=,#Reflex::Type#const=,#Reflex::Type#const=,#Reflex::Type#const=,#Reflex::Type#const=,#Reflex::Type#const=,#Reflex::Type#const=)
      Memcheck:Leak
      fun:_Znwj
      fun:_ZN6Reflex19FunctionTypeBuilderERKNS_4TypeES2_S2_S2_S2_S2_S2_S2_S2_S2_S2_S2_S2_S2_S2_
      fun:_ZN84_GLOBAL__N_.._i686_slc4_gcc34_dbg_dict_GaudiPython_kernel_dict.cpp_9D2164D3_B5DBB98A17__IHistoTool_dictEv
      fun:_ZN84_GLOBAL__N_.._i686_slc4_gcc34_dbg_dict_GaudiPython_kernel_dict.cpp_9D2164D3_B5DBB98A84_GLOBAL__N_.._i686_slc4_gcc34_dbg_dict_GaudiPython_kernel_dict.cpp_9D2164D3_B5DBB98A12DictionariesC1Ev
      fun:_Z41__static_initialization_and_destruction_0ii
   }
   {
      (anonymous#namespace)::Factory<AlgContextAuditor,#IAuditor*#()(std::basic_string<char,#std::char_traits<char>,#std::allocator<char>#>,#ISvcLocator*)>::Func(void*,#void*,#std::vector<void*,#std::allocator<void*>#>#const=,#void*)
      Memcheck:Leak
      fun:_Znwj
      fun:_ZN57_GLOBAL__N_.._src_AlgContextAuditor.cpp_9D2164D3_FD9AFCFD7FactoryI17AlgContextAuditorFP8IAuditorSsP11ISvcLocatorEE4FuncEPvS8_RKSt6vectorIS8_SaIS8_EES8_
      fun:_ZNK6Reflex14FunctionMember6InvokeERKNS_6ObjectEPS1_RKSt6vectorIPvSaIS6_EE
      fun:_ZNK6Reflex6Member6InvokeERKNS_6ObjectEPS1_RKSt6vectorIPvSaIS6_EE
      fun:_ZNK6Reflex6Member6InvokeIPvEEvRKNS_6ObjectERT_RKSt6vectorIS2_SaIS2_EE
   }
   {
      Reflex::Environ<__gnu_cxx::__normal_iterator<EventType_p1*,#std::vector<EventType_p1,#std::allocator<EventType_p1>#>#>#>::Create()
      Memcheck:Leak
      fun:_Znwj
      fun:_ZN6Reflex7EnvironIN9__gnu_cxx17__normal_iteratorIP12EventType_p1St6vectorIS3_SaIS3_EEEEE6CreateEv
      fun:_ZNK19TGenCollectionProxy7Method06invokeEv
      fun:_ZN19TGenCollectionProxy9PushProxyEPv
      fun:_ZN23TVirtualCollectionProxy8TPushPopC1EPS_Pv
   }
   {
      Reflex::ScopeBase::ScopeBase(char#const*,#Reflex::TYPE)
      Memcheck:Leak
      fun:_Znwj
      fun:_ZN6Reflex9ScopeBaseC2EPKcNS_4TYPEE
      fun:_ZN6Reflex5ClassC2EPKcjRKSt9type_infojNS_4TYPEE
      fun:_ZN6Reflex21ClassTemplateInstanceC1EPKcjRKSt9type_infoj
      fun:_ZN6Reflex16ClassBuilderImplC1EPKcRKSt9type_infojjNS_4TYPEE
   }
   {
      ntpaini
      Memcheck:Leak
      fun:malloc
      fun:ntpaini
      fun:ntgblini
      fun:nsgblini
      fun:nngsini_init_streams
   }
   {
      SimpleProperty<bool,#BoundedVerifier<bool>#>::SimpleProperty(BoundedVerifier<bool>)
      Memcheck:Leak
      fun:_Znwj
      fun:_ZN14SimplePropertyIb15BoundedVerifierIbEEC1ES1_
      fun:_ZN15AlgErrorAuditorC1ERKSsP11ISvcLocator
      fun:_ZN55_GLOBAL__N_.._src_AlgErrorAuditor.cpp_9D2164D3_171EDA857FactoryI15AlgErrorAuditorFP8IAuditorSsP11ISvcLocatorEE4FuncEPvS8_RKSt6vectorIS8_SaIS8_EES8_
      fun:_ZNK6Reflex14FunctionMember6InvokeERKNS_6ObjectEPS1_RKSt6vectorIPvSaIS6_EE
   }
   {
      Auditor::Auditor(std::basic_string<char,#std::char_traits<char>,#std::allocator<char>#>#const=,#ISvcLocator*)
      Memcheck:Leak
      fun:_Znwj
      fun:_ZN7AuditorC2ERKSsP11ISvcLocator
      fun:_ZN17AlgContextAuditorC1ERKSsP11ISvcLocator
      fun:_ZN57_GLOBAL__N_.._src_AlgContextAuditor.cpp_9D2164D3_FD9AFCFD7FactoryI17AlgContextAuditorFP8IAuditorSsP11ISvcLocatorEE4FuncEPvS8_RKSt6vectorIS8_SaIS8_EES8_
      fun:_ZNK6Reflex14FunctionMember6InvokeERKNS_6ObjectEPS1_RKSt6vectorIPvSaIS6_EE
   }
   {
      nlpagtkeys
      Memcheck:Leak
      fun:malloc
      fun:nlpagtkeys
      fun:nlpaparse
      fun:nlpardfile
      fun:nlpains
   }
   {
      lpmpali
      Memcheck:Leak
      fun:malloc
      fun:lpmpali
      fun:lpmloadpkg
      fun:kpubalts
      fun:kpu8lgn
   }
   {
      ztcebi
      Memcheck:Value4
      fun:ztceai
      fun:ztcebi
      fun:ztcei
      fun:ztcedec
      fun:ztvo5ed
   }
   {
      TUnixSystem::UnixSignal(ESignals,#void#(*)(ESignals))
      Memcheck:Leak
      fun:_Znwj
      fun:_ZN11TUnixSystem10UnixSignalE8ESignalsPFvS0_E
      fun:_ZN11TUnixSystem4InitEv
      fun:_ZN5TROOT10InitSystemEv
      fun:_ZN5TROOTC1EPKcS1_PPFvvE
   }
   {
      boost::python::objects::py_function::py_function<boost::python::detail::caller<void#(*)(std::vector<eformat::helper::StreamTag,#std::allocator<eformat::helper::StreamTag>#>=,#boost::python::api::object),#boost::python::default_call_policies,#boost::mpl::vector3<void,#std::vector<eformat::helper::StreamTag,#std::allocator<eformat::helper::StreamTag>#>=,#boost::python::api::object>#>#>(boost::python::detail::caller<void#(*)(std::vector<eformat::helper::StreamTag,#std::allocator<eformat::helper::StreamTag>#>=,#boost::python::api::object),#boost::python::default_call_policies,#boost::mpl::vector3<void,#std::vector<eformat::helper::StreamTag,#std::allocator<eformat::helper::StreamTag>#>=,#boost::python::api::object>#>#const=)
      Memcheck:Leak
      fun:_Znwj
      fun:_ZN5boost6python7objects11py_functionC1INS0_6detail6callerIPFvRSt6vectorIN7eformat6helper9StreamTagESaIS9_EENS0_3api6objectEENS0_21default_call_policiesENS_3mpl7vector3IvSC_SE_EEEEEERKT_
      fun:_ZN5boost6python6detail17make_function_auxIPFvRSt6vectorIN7eformat6helper9StreamTagESaIS6_EENS0_3api6objectEENS0_21default_call_policiesENS_3mpl7vector3IvS9_SB_EEN4mpl_4int_ILi0EEEEESB_T_RKT0_RKT1_RKSt4pairIPKNS1_7keywordESV_ET2_
      fun:_ZN5boost6python13make_functionIPFvRSt6vectorIN7eformat6helper9StreamTagESaIS5_EENS0_3api6objectEENS0_21default_call_policiesENS0_6detail8keywordsILj0EEENS_3mpl7vector3IvS8_SA_EEEESA_T_RKT0_RKT1_RKT2_
      fun:_ZN5boost6python6class_ISt6vectorIN7eformat6helper9StreamTagESaIS5_EENS0_6detail13not_specifiedES9_S9_E8def_implIS7_PFvRS7_NS0_3api6objectEENS8_10def_helperIPKcS9_S9_S9_EEEEvPT_SJ_T0_RKT1_z
   }
   {
      boost::python::converter::registry::insert(void*#(*)(_object*),#boost::python::type_info,#_typeobject#const*#(*)())
      Memcheck:Leak
      fun:_Znwj
      fun:_ZN5boost6python9converter8registry6insertEPFPvP7_objectENS0_9type_infoEPFPK11_typeobjectvE
      fun:_ZN5boost6python9converter29initialize_builtin_convertersEv
      fun:_ZN5boost6python9converter81_GLOBAL__N__ZNK5boost6python9converter12registration25expected_from_python_typeEv7entriesEv
      fun:_ZN5boost6python9converter81_GLOBAL__N__ZNK5boost6python9converter12registration25expected_from_python_typeEv3getENS0_9type_infoEb
   }
   {
      TStreamerInfo::Compile()
      Memcheck:Leak
      fun:_Znaj
      fun:_ZN13TStreamerInfo7CompileEv
      fun:_ZN13TStreamerInfo5BuildEv
      fun:_ZN11TBufferFile15ReadClassBufferEPK6TClassPvijjS2_
      fun:_ZN18TStreamerBasicType8StreamerER7TBuffer
   }
   {
      TBranch::ReadLeaves(TBuffer=)
      Memcheck:Cond
      fun:_ZN6TLeafC10ReadBasketER7TBuffer
      fun:_ZN7TBranch10ReadLeavesER7TBuffer
      fun:_ZN7TBranch8GetEntryExi
      fun:_ZN4pool17RootTreeContainer10loadObjectEPNS_12DataCallBackERSt4pairIiiEi
      fun:_ZN4pool14DbContainerImp4loadEPNS_12DataCallBackERKSt4pairIiiERS4_ib
   }
   {
      G__EOFfgetc
      Memcheck:Leak
      fun:calloc
      fun:G__EOFfgetc
      fun:G__fgetc
      fun:G__exec_statement
      fun:G__loadfile
   }
   {
      Reflex::FunctionTypeBuilder(Reflex::Type#const=,#Reflex::Type#const=,#Reflex::Type#const=,#Reflex::Type#const=,#Reflex::Type#const=,#Reflex::Type#const=)
      Memcheck:Leak
      fun:_Znwj
      fun:_ZN6Reflex19FunctionTypeBuilderERKNS_4TypeES2_S2_S2_S2_S2_
      fun:_ZN88_GLOBAL__N_.._i686_slc4_gcc34_dbg_dict_GaudiKernel_dictionary_dict.cpp_17E02520_101EBE7888_GLOBAL__N_.._i686_slc4_gcc34_dbg_dict_GaudiKernel_dictionary_dict.cpp_17E02520_101EBE7812DictionariesC1Ev
      fun:_Z41__static_initialization_and_destruction_0ii
      fun:_GLOBAL__I__ZN88_GLOBAL__N_.._i686_slc4_gcc34_dbg_dict_GaudiKernel_dictionary_dict.cpp_17E02520_101EBE784nsb0E
   }
   {
      boost::python::objects::py_function::py_function<boost::python::detail::caller<eformat::helper::u32list#(*)(std::vector<eformat::helper::StreamTag,#std::allocator<eformat::helper::StreamTag>#>#const=),#boost::python::default_call_policies,#boost::mpl::vector2<eformat::helper::u32list,#std::vector<eformat::helper::StreamTag,#std::allocator<eformat::helper::StreamTag>#>#const=>#>#>(boost::python::detail::caller<eformat::helper::u32list#(*)(std::vector<eformat::helper::StreamTag,#std::allocator<eformat::helper::StreamTag>#>#const=),#boost::python::default_call_policies,#boost::mpl::vector2<eformat::helper::u32list,#std::vector<eformat::helper::StreamTag,#std::allocator<eformat::helper::StreamTag>#>#const=>#>#const=)
      Memcheck:Leak
      fun:_Znwj
      fun:_ZN5boost6python7objects11py_functionC1INS0_6detail6callerIPFN7eformat6helper7u32listERKSt6vectorINS7_9StreamTagESaISA_EEENS0_21default_call_policiesENS_3mpl7vector2IS8_SE_EEEEEERKT_
      fun:_ZN5boost6python6detail17make_function_auxIPFN7eformat6helper7u32listERKSt6vectorINS4_9StreamTagESaIS7_EEENS0_21default_call_policiesENS_3mpl7vector2IS5_SB_EEN4mpl_4int_ILi0EEEEENS0_3api6objectET_RKT0_RKT1_RKSt4pairIPKNS1_7keywordESX_ET2_
      fun:_ZN5boost6python13make_functionIPFN7eformat6helper7u32listERKSt6vectorINS3_9StreamTagESaIS6_EEENS0_21default_call_policiesENS0_6detail8keywordsILj0EEENS_3mpl7vector2IS4_SA_EEEENS0_3api6objectET_RKT0_RKT1_RKT2_
      fun:_ZN5boost6python6class_ISt6vectorIN7eformat6helper9StreamTagESaIS5_EENS0_6detail13not_specifiedES9_S9_E8def_implIS7_PFNS4_7u32listERKS7_ENS8_10def_helperIPKcS9_S9_S9_EEEEvPT_SJ_T0_RKT1_z
   }
   {
      Reflex::FunctionTypeBuilder(Reflex::Type#const=,#Reflex::Type#const=,#Reflex::Type#const=,#Reflex::Type#const=,#Reflex::Type#const=,#Reflex::Type#const=,#Reflex::Type#const=,#Reflex::Type#const=,#Reflex::Type#const=,#Reflex::Type#const=)
      Memcheck:Leak
      fun:_Znwj
      fun:_ZN6Reflex19FunctionTypeBuilderERKNS_4TypeES2_S2_S2_S2_S2_S2_S2_S2_S2_
      fun:_ZN84_GLOBAL__N_.._i686_slc4_gcc34_dbg_dict_GaudiPython_kernel_dict.cpp_9D2164D3_B5DBB98A23__ParticleProperty_dictEv
      fun:_ZN84_GLOBAL__N_.._i686_slc4_gcc34_dbg_dict_GaudiPython_kernel_dict.cpp_9D2164D3_B5DBB98A84_GLOBAL__N_.._i686_slc4_gcc34_dbg_dict_GaudiPython_kernel_dict.cpp_9D2164D3_B5DBB98A12DictionariesC1Ev
      fun:_Z41__static_initialization_and_destruction_0ii
   }
   {
      boost::python::objects::py_function::py_function<boost::python::detail::caller<void#(*)(_object*,#eformat::helper::DetectorMask),#boost::python::default_call_policies,#boost::mpl::vector3<void,#_object*,#eformat::helper::DetectorMask>#>#>(boost::python::detail::caller<void#(*)(_object*,#eformat::helper::DetectorMask),#boost::python::default_call_policies,#boost::mpl::vector3<void,#_object*,#eformat::helper::DetectorMask>#>#const=)
      Memcheck:Leak
      fun:_Znwj
      fun:_ZN5boost6python7objects11py_functionC1INS0_6detail6callerIPFvP7_objectN7eformat6helper12DetectorMaskEENS0_21default_call_policiesENS_3mpl7vector3IvS7_SA_EEEEEERKT_
      fun:_ZN5boost6python6detail17make_function_auxIPFvP7_objectN7eformat6helper12DetectorMaskEENS0_21default_call_policiesENS_3mpl7vector3IvS4_S7_EEN4mpl_4int_ILi0EEEEENS0_3api6objectET_RKT0_RKT1_RKSt4pairIPKNS1_7keywordEST_ET2_
      fun:_ZN5boost6python6detail27make_keyword_range_functionIPFvP7_objectN7eformat6helper12DetectorMaskEENS0_21default_call_policiesEEENS0_3api6objectET_RKT0_RKSt4pairIPKNS1_7keywordESK_E
      fun:_ZN5boost6python6detail30make_keyword_range_constructorINS_3mpl7vector1IN7eformat6helper12DetectorMaskEEENS3_4sizeIS8_EENS0_7objects12value_holderIS7_EENS0_21default_call_policiesEEENS0_3api6objectERKT2_RKSt4pairIPKNS1_7keywordESN_EPT1_PT_PT0_
   }
   {
      Reflex::ClassBuilderImpl::AddFunctionMember(char#const*,#Reflex::Type#const=,#void#(*)(void*,#void*,#std::vector<void*,#std::allocator<void*>#>#const=,#void*),#void*,#char#const*,#unsigned#int)
      Memcheck:Leak
      fun:_Znwj
      fun:_ZN6Reflex16ClassBuilderImpl17AddFunctionMemberEPKcRKNS_4TypeEPFvPvS6_RKSt6vectorIS6_SaIS6_EES6_ES6_S2_j
      fun:_ZN6Reflex13ClassBuilderTIN4ROOT6Cintex6CintexEE17AddFunctionMemberERKNS_4TypeEPKcPFvPvSA_RKSt6vectorISA_SaISA_EESA_ESA_S9_j
      fun:_ZN55_GLOBAL__N_cint_cintex_src_Cintex.cxx_EF105EC1_30BF528113Cintex_dict_tC1Ev
      fun:_Z41__static_initialization_and_destruction_0ii
   }
   {
      __gnu_cxx::new_allocator<std::_Rb_tree_node<int>#>::allocate(unsigned#int,#void#const*)
      Memcheck:Leak
      fun:_Znwj
      fun:_ZN9__gnu_cxx13new_allocatorISt13_Rb_tree_nodeIiEE8allocateEjPKv
      fun:_ZNSt8_Rb_treeIiiSt9_IdentityIiESt4lessIiESaIiEE11_M_get_nodeEv
      fun:_ZNSt8_Rb_treeIiiSt9_IdentityIiESt4lessIiESaIiEE14_M_create_nodeERKi
      fun:_ZNSt8_Rb_treeIiiSt9_IdentityIiESt4lessIiESaIiEE9_M_insertEPSt18_Rb_tree_node_baseS7_RKi
   }
   {
      Reflex::FunctionTypeBuilder(Reflex::Type#const=,#Reflex::Type#const=,#Reflex::Type#const=,#Reflex::Type#const=,#Reflex::Type#const=,#Reflex::Type#const=,#Reflex::Type#const=,#Reflex::Type#const=,#Reflex::Type#const=,#Reflex::Type#const=,#Reflex::Type#const=,#Reflex::Type#const=,#Reflex::Type#const=)
      Memcheck:Leak
      fun:_Znwj
      fun:_ZN6Reflex19FunctionTypeBuilderERKNS_4TypeES2_S2_S2_S2_S2_S2_S2_S2_S2_S2_S2_S2_
      fun:_ZN103_GLOBAL__N_.._i686_slc4_gcc34_dbg_dict_CaloConditions_CaloConditionsDict_gen_rflx.cpp_9D2164D3_1F6E479920__CaloHadWeight_dictEv
      fun:_ZN103_GLOBAL__N_.._i686_slc4_gcc34_dbg_dict_CaloConditions_CaloConditionsDict_gen_rflx.cpp_9D2164D3_1F6E4799103_GLOBAL__N_.._i686_slc4_gcc34_dbg_dict_CaloConditions_CaloConditionsDict_gen_rflx.cpp_9D2164D3_1F6E479912DictionariesC1Ev
      fun:_Z41__static_initialization_and_destruction_0ii
   }
   {
      boost::python::objects::py_function::py_function<boost::python::detail::caller<void#(*)(_object*,#eformat::GenericStatus,#unsigned#char,#unsigned#char),#boost::python::default_call_policies,#boost::mpl::vector5<void,#_object*,#eformat::GenericStatus,#unsigned#char,#unsigned#char>#>#>(boost::python::detail::caller<void#(*)(_object*,#eformat::GenericStatus,#unsigned#char,#unsigned#char),#boost::python::default_call_policies,#boost::mpl::vector5<void,#_object*,#eformat::GenericStatus,#unsigned#char,#unsigned#char>#>#const=)
      Memcheck:Leak
      fun:_Znwj
      fun:_ZN5boost6python7objects11py_functionC1INS0_6detail6callerIPFvP7_objectN7eformat13GenericStatusEhhENS0_21default_call_policiesENS_3mpl7vector5IvS7_S9_hhEEEEEERKT_
      fun:_ZN5boost6python6detail17make_function_auxIPFvP7_objectN7eformat13GenericStatusEhhENS0_21default_call_policiesENS_3mpl7vector5IvS4_S6_hhEEN4mpl_4int_ILi0EEEEENS0_3api6objectET_RKT0_RKT1_RKSt4pairIPKNS1_7keywordESS_ET2_
      fun:_ZN5boost6python6detail27make_keyword_range_functionIPFvP7_objectN7eformat13GenericStatusEhhENS0_21default_call_policiesEEENS0_3api6objectET_RKT0_RKSt4pairIPKNS1_7keywordESJ_E
      fun:_ZN5boost6python6detail30make_keyword_range_constructorINS_3mpl7vector3IN7eformat13GenericStatusEhhEENS3_4sizeIS7_EENS0_7objects12value_holderINS5_6helper6StatusEEENS0_21default_call_policiesEEENS0_3api6objectERKT2_RKSt4pairIPKNS1_7keywordESO_EPT1_PT_PT0_
   }
   {
      Reflex::Any::Holder<std::basic_string<char,#std::char_traits<char>,#std::allocator<char>#>#>::Clone()#const
      Memcheck:Leak
      fun:_Znwj
      fun:_ZNK6Reflex3Any6HolderISsE5CloneEv
      fun:_ZN6Reflex3AnyC1ERKS0_
      fun:_ZN6Reflex3AnyaSERKS0_
      fun:_ZN6Reflex16PropertyListImpl11AddPropertyEjRKNS_3AnyE
   }
   {
      std::_Rb_tree<boost::python::converter::registration,#boost::python::converter::registration,#std::_Identity<boost::python::converter::registration>,#std::less<boost::python::converter::registration>,#std::allocator<boost::python::converter::registration>#>::_M_insert(std::_Rb_tree_node_base*,#std::_Rb_tree_node_base*,#boost::python::converter::registration#const=)
      Memcheck:Leak
      fun:_Znwj
      fun:_ZNSt8_Rb_treeIN5boost6python9converter12registrationES3_St9_IdentityIS3_ESt4lessIS3_ESaIS3_EE9_M_insertEPSt18_Rb_tree_node_baseSB_RKS3_
      fun:_ZNSt8_Rb_treeIN5boost6python9converter12registrationES3_St9_IdentityIS3_ESt4lessIS3_ESaIS3_EE13insert_uniqueERKS3_
      fun:_ZN5boost6python9converter81_GLOBAL__N__ZNK5boost6python9converter12registration25expected_from_python_typeEv3getENS0_9type_infoEb
      fun:_ZN5boost6python9converter8registry6insertEPFPvP7_objectEPFvS5_PNS1_30rvalue_from_python_stage1_dataEENS0_9type_infoEPFPK11_typeobjectvE
   }
   {
      G__search_tagname
      Memcheck:Leak
      fun:_Znwj
      fun:G__search_tagname
      fun:G__get_linked_tagnum
      fun:_ZN4ROOT6Cintex8CintTypeERKN6Reflex4TypeERiS5_
      fun:_ZN4ROOT6Cintex18CINTTypedefBuilder5SetupERKN6Reflex4TypeE
   }
   {
      SimpleProperty<std::vector<std::basic_string<char,#std::char_traits<char>,#std::allocator<char>#>,#std::allocator<std::basic_string<char,#std::char_traits<char>,#std::allocator<char>#>#>#>,#BoundedVerifier<std::vector<std::basic_string<char,#std::char_traits<char>,#std::allocator<char>#>,#std::allocator<std::basic_string<char,#std::char_traits<char>,#std::allocator<char>#>#>#>#>#>::SimpleProperty(BoundedVerifier<std::vector<std::basic_string<char,#std::char_traits<char>,#std::allocator<char>#>,#std::allocator<std::basic_string<char,#std::char_traits<char>,#std::allocator<char>#>#>#>#>)
      Memcheck:Leak
      fun:_Znwj
      fun:_ZN14SimplePropertyISt6vectorISsSaISsEE15BoundedVerifierIS2_EEC1ES4_
      fun:_ZN14ApplicationMgrC1EP10IInterface
      fun:_ZN69_GLOBAL__N_.._src_ApplicationMgr_ApplicationMgr.cpp_9D2164D3_9BE5AFB07FactoryI14ApplicationMgrFP10IInterfaceS3_EE4FuncEPvS6_RKSt6vectorIS6_SaIS6_EES6_
      fun:_ZNK6Reflex14FunctionMember6InvokeERKNS_6ObjectEPS1_RKSt6vectorIPvSaIS6_EE
   }
   {
      boost::python::objects::py_function::py_function<boost::python::detail::caller<unsigned#int#(*)(eformat::CheckSum#const=,#eformat::helper::u32list#const=),#boost::python::default_call_policies,#boost::mpl::vector3<unsigned#int,#eformat::CheckSum#const=,#eformat::helper::u32list#const=>#>#>(boost::python::detail::caller<unsigned#int#(*)(eformat::CheckSum#const=,#eformat::helper::u32list#const=),#boost::python::default_call_policies,#boost::mpl::vector3<unsigned#int,#eformat::CheckSum#const=,#eformat::helper::u32list#const=>#>#const=)
      Memcheck:Leak
      fun:_Znwj
      fun:_ZN5boost6python7objects11py_functionC1INS0_6detail6callerIPFjRKN7eformat8CheckSumERKNS6_6helper7u32listEENS0_21default_call_policiesENS_3mpl7vector3IjS9_SD_EEEEEERKT_
      fun:_ZN5boost6python6detail17make_function_auxIPFjRKN7eformat8CheckSumERKNS3_6helper7u32listEENS0_21default_call_policiesENS_3mpl7vector3IjS6_SA_EEEENS0_3api6objectET_RKT0_RKT1_
      fun:_ZN5boost6python13make_functionIPFjRKN7eformat8CheckSumERKNS2_6helper7u32listEEEENS0_3api6objectET_
      fun:_ZN5boost6python6detail14make_function1IPFjRKN7eformat8CheckSumERKNS3_6helper7u32listEEEENS0_3api6objectET_z
   }
   {
      boost::python::objects::py_function::py_function<boost::python::detail::caller<void#(eformat::write::FullEventFragment::*)(unsigned#short),#boost::python::default_call_policies,#boost::mpl::vector3<void,#eformat::write::FullEventFragment=,#unsigned#short>#>#>(boost::python::detail::caller<void#(eformat::write::FullEventFragment::*)(unsigned#short),#boost::python::default_call_policies,#boost::mpl::vector3<void,#eformat::write::FullEventFragment=,#unsigned#short>#>#const=)
      Memcheck:Leak
      fun:_Znwj
      fun:_ZN5boost6python7objects11py_functionC1INS0_6detail6callerIMN7eformat5write17FullEventFragmentEFvtENS0_21default_call_policiesENS_3mpl7vector3IvRS8_tEEEEEERKT_
      fun:_ZN5boost6python6detail17make_function_auxIMN7eformat5write17FullEventFragmentEFvtENS0_21default_call_policiesENS_3mpl7vector3IvRS5_tEEN4mpl_4int_ILi0EEEEENS0_3api6objectET_RKT0_RKT1_RKSt4pairIPKNS1_7keywordESS_ET2_
      fun:_ZN5boost6python13make_functionIMN7eformat5write17FullEventFragmentEFvtENS0_21default_call_policiesENS0_6detail8keywordsILj0EEENS_3mpl7vector3IvRS4_tEEEENS0_3api6objectET_RKT0_RKT1_RKT2_
      fun:_ZN5boost6python6class_IN7eformat5write17FullEventFragmentENS0_6detail13not_specifiedES6_S6_E8def_implIS4_MS4_FvtENS5_10def_helperIPKcS6_S6_S6_EEEEvPT_SD_T0_RKT1_z
   }
   {
      Reflex::Environ<__gnu_cxx::__normal_iterator<long#long*,#std::vector<long#long,#std::allocator<long#long>#>#>#>::Create()
      Memcheck:Leak
      fun:_Znwj
      fun:_ZN6Reflex7EnvironIN9__gnu_cxx17__normal_iteratorIPxSt6vectorIxSaIxEEEEE6CreateEv
      fun:_ZNK19TGenCollectionProxy7Method06invokeEv
      fun:_ZN19TGenCollectionProxy9PushProxyEPv
      fun:_ZN23TVirtualCollectionProxy8TPushPopC1EPS_Pv
   }
   {
      G__add_setup_func
      Memcheck:Leak
      fun:realloc
      fun:G__add_setup_func
      fun:_ZN17G__cpp_setup_initC1Ev
      fun:_Z41__static_initialization_and_destruction_0ii
      fun:_GLOBAL__I_G__set_cpp_environment
   }
   {
      __gnu_cxx::new_allocator<Reflex::Type>::allocate(unsigned#int,#void#const*)
      Memcheck:Leak
      fun:_Znwj
      fun:_ZN9__gnu_cxx13new_allocatorIN6Reflex4TypeEE8allocateEjPKv
      fun:_ZNSt12_Vector_baseIN6Reflex4TypeESaIS1_EE11_M_allocateEj
      fun:_ZNSt6vectorIN6Reflex4TypeESaIS1_EE13_M_insert_auxEN9__gnu_cxx17__normal_iteratorIPS1_S3_EERKS1_
      fun:_ZNSt6vectorIN6Reflex4TypeESaIS1_EE9push_backERKS1_
   }
   {
      std::basic_string<char,#std::char_traits<char>,#std::allocator<char>#>::_Rep::_S_create(unsigned#int,#unsigned#int,#std::allocator<char>#const=)
      Memcheck:Leak
      fun:_Znwj
      fun:_ZNSs4_Rep9_S_createEjjRKSaIcE
      obj:/usr/lib/libstdc++.so.6.0.3
      fun:_ZNSsC1ERKSsjj
      fun:_ZNKSs6substrEjj
   }
   {
      Reflex::Environ<__gnu_cxx::__normal_iterator<std::pair<unsigned#int,#std::vector<LAruA2MeVP,#std::allocator<LAruA2MeVP>#>#>*,#std::vector<std::pair<unsigned#int,#std::vector<LAruA2MeVP,#std::allocator<LAruA2MeVP>#>#>,#std::allocator<std::pair<unsigned#int,#std::vector<LAruA2MeVP,#std::allocator<LAruA2MeVP>#>#>#>#>#>#>::Create()
      Memcheck:Leak
      fun:_Znwj
      fun:_ZN6Reflex7EnvironIN9__gnu_cxx17__normal_iteratorIPSt4pairIjSt6vectorI10LAruA2MeVPSaIS5_EEES4_IS8_SaIS8_EEEEE6CreateEv
      fun:_ZNK19TGenCollectionProxy7Method06invokeEv
      fun:_ZN19TGenCollectionProxy9PushProxyEPv
      fun:_ZN23TVirtualCollectionProxy8TPushPopC1EPS_Pv
   }
   {
      __gnu_cxx::new_allocator<char>::allocate(unsigned#int,#void#const*)
      Memcheck:Leak
      fun:_Znwj
      fun:_ZN9__gnu_cxx13new_allocatorIcE8allocateEjPKv
      fun:_ZNSt12_Vector_baseIcSaIcEE11_M_allocateEj
      fun:_ZNSt6vectorIcSaIcEE14_M_fill_insertEN9__gnu_cxx17__normal_iteratorIPcS1_EEjRKc
      fun:_ZNSt6vectorIcSaIcEE6insertEN9__gnu_cxx17__normal_iteratorIPcS1_EEjRKc
   }
   {
      boost::python::objects::py_function::py_function<boost::python::detail::caller<void#(*)(_object*,#unsigned#int,#unsigned#int),#boost::python::default_call_policies,#boost::mpl::vector4<void,#_object*,#unsigned#int,#unsigned#int>#>#>(boost::python::detail::caller<void#(*)(_object*,#unsigned#int,#unsigned#int),#boost::python::default_call_policies,#boost::mpl::vector4<void,#_object*,#unsigned#int,#unsigned#int>#>#const=)
      Memcheck:Leak
      fun:_Znwj
      fun:_ZN5boost6python7objects11py_functionC1INS0_6detail6callerIPFvP7_objectjjENS0_21default_call_policiesENS_3mpl7vector4IvS7_jjEEEEEERKT_
      fun:_ZN5boost6python6detail17make_function_auxIPFvP7_objectjjENS0_21default_call_policiesENS_3mpl7vector4IvS4_jjEEN4mpl_4int_ILi0EEEEENS0_3api6objectET_RKT0_RKT1_RKSt4pairIPKNS1_7keywordESQ_ET2_
      fun:_ZN5boost6python6detail27make_keyword_range_functionIPFvP7_objectjjENS0_21default_call_policiesEEENS0_3api6objectET_RKT0_RKSt4pairIPKNS1_7keywordESH_E
      fun:_ZN5boost6python6detail30make_keyword_range_constructorINS_3mpl7vector2IjjEENS3_4sizeIS5_EENS0_7objects12value_holderIN7eformat6helper12DetectorMaskEEENS0_21default_call_policiesEEENS0_3api6objectERKT2_RKSt4pairIPKNS1_7keywordESN_EPT1_PT_PT0_
   }
   {
      decompose_rpath
      Memcheck:Leak
      fun:malloc
      fun:decompose_rpath
      fun:_dl_map_object
      fun:openaux
      fun:_dl_catch_error
   }
   {
      Reflex::Environ<__gnu_cxx::__normal_iterator<std::pair<unsigned#int,#std::vector<LArDAC2uAP,#std::allocator<LArDAC2uAP>#>#>*,#std::vector<std::pair<unsigned#int,#std::vector<LArDAC2uAP,#std::allocator<LArDAC2uAP>#>#>,#std::allocator<std::pair<unsigned#int,#std::vector<LArDAC2uAP,#std::allocator<LArDAC2uAP>#>#>#>#>#>#>::Create()
      Memcheck:Leak
      fun:_Znwj
      fun:_ZN6Reflex7EnvironIN9__gnu_cxx17__normal_iteratorIPSt4pairIjSt6vectorI10LArDAC2uAPSaIS5_EEES4_IS8_SaIS8_EEEEE6CreateEv
      fun:_ZNK19TGenCollectionProxy7Method06invokeEv
      fun:_ZN19TGenCollectionProxy9PushProxyEPv
      fun:_ZN23TVirtualCollectionProxy8TPushPopC1EPS_Pv
   }
   {
      ApplicationMgr::ApplicationMgr(IInterface*)
      Memcheck:Leak
      fun:_Znwj
      fun:_ZN14ApplicationMgrC1EP10IInterface
      fun:_ZN69_GLOBAL__N_.._src_ApplicationMgr_ApplicationMgr.cpp_9D2164D3_9BE5AFB07FactoryI14ApplicationMgrFP10IInterfaceS3_EE4FuncEPvS6_RKSt6vectorIS6_SaIS6_EES6_
      fun:_ZNK6Reflex14FunctionMember6InvokeERKNS_6ObjectEPS1_RKSt6vectorIPvSaIS6_EE
      fun:_ZNK6Reflex6Member6InvokeERKNS_6ObjectEPS1_RKSt6vectorIPvSaIS6_EE
   }
   {
      __gnu_cxx::new_allocator<std::_Rb_tree_node<std::pair<std::basic_string<char,#std::char_traits<char>,#std::allocator<char>#>#const,#PyROOT::TConverter*#(*)(long)>#>#>::allocate(unsigned#int,#void#const*)
      Memcheck:Leak
      fun:_Znwj
      fun:_ZN9__gnu_cxx13new_allocatorISt13_Rb_tree_nodeISt4pairIKSsPFPN6PyROOT10TConverterElEEEE8allocateEjPKv
      fun:_ZNSt8_Rb_treeISsSt4pairIKSsPFPN6PyROOT10TConverterElEESt10_Select1stIS7_ESt4lessISsESaIS7_EE11_M_get_nodeEv
      fun:_ZNSt8_Rb_treeISsSt4pairIKSsPFPN6PyROOT10TConverterElEESt10_Select1stIS7_ESt4lessISsESaIS7_EE14_M_create_nodeERKS7_
      fun:_ZNSt8_Rb_treeISsSt4pairIKSsPFPN6PyROOT10TConverterElEESt10_Select1stIS7_ESt4lessISsESaIS7_EE9_M_insertEPSt18_Rb_tree_node_baseSF_RKS7_
   }
   {
      SG::BaseInfoBase::BaseInfoBase(unsigned#int,#std::type_info#const=)
      Memcheck:Leak
      fun:_Znwj
      fun:_ZN2SG12BaseInfoBaseC2EjRKSt9type_info
      fun:_ZN2SG12BaseInfoImplI15MergedEventInfoEC1Ev
      fun:_ZN2SG8BaseInfoI15MergedEventInfoE15instance_holderC1Ev
      fun:_Z41__static_initialization_and_destruction_0ii
   }
   {
      boost::python::objects::py_function::py_function<boost::python::detail::caller<boost::shared_ptr<EventStorage::DataReader>#(*)(std::basic_string<char,#std::char_traits<char>,#std::allocator<char>#>#const=),#boost::python::default_call_policies,#boost::mpl::vector2<boost::shared_ptr<EventStorage::DataReader>,#std::basic_string<char,#std::char_traits<char>,#std::allocator<char>#>#const=>#>#>(boost::python::detail::caller<boost::shared_ptr<EventStorage::DataReader>#(*)(std::basic_string<char,#std::char_traits<char>,#std::allocator<char>#>#const=),#boost::python::default_call_policies,#boost::mpl::vector2<boost::shared_ptr<EventStorage::DataReader>,#std::basic_string<char,#std::char_traits<char>,#std::allocator<char>#>#const=>#>#const=)
      Memcheck:Leak
      fun:_Znwj
      fun:_ZN5boost6python7objects11py_functionC1INS0_6detail6callerIPFNS_10shared_ptrIN12EventStorage10DataReaderEEERKSsENS0_21default_call_policiesENS_3mpl7vector2IS9_SB_EEEEEERKT_
      fun:_ZN5boost6python6detail17make_function_auxIPFNS_10shared_ptrIN12EventStorage10DataReaderEEERKSsENS0_21default_call_policiesENS_3mpl7vector2IS6_S8_EEEENS0_3api6objectET_RKT0_RKT1_
      fun:_ZN5boost6python13make_functionIPFNS_10shared_ptrIN12EventStorage10DataReaderEEERKSsEEENS0_3api6objectET_
      fun:_ZN5boost6python6detail14make_function1IPFNS_10shared_ptrIN12EventStorage10DataReaderEEERKSsEEENS0_3api6objectET_z
   }
   {
      Reflex::ClassBuilderImpl::ClassBuilderImpl(char#const*,#std::type_info#const=,#unsigned#int,#unsigned#int,#Reflex::TYPE)
      Memcheck:Leak
      fun:_Znwj
      fun:_ZN6Reflex16ClassBuilderImplC1EPKcRKSt9type_infojjNS_4TYPEE
      fun:_ZN6Reflex13ClassBuilderTIN4ROOT6Cintex6CintexEEC1EPKcjNS_4TYPEE
      fun:_ZN55_GLOBAL__N_cint_cintex_src_Cintex.cxx_EF105EC1_30BF528113Cintex_dict_tC1Ev
      fun:_Z41__static_initialization_and_destruction_0ii
   }
   {
      boost::python::objects::py_function::py_function<boost::python::detail::caller<boost::python::objects::iterator_range<boost::python::return_internal_reference<1u,#boost::python::default_call_policies>,#__gnu_cxx::__normal_iterator<eformat::helper::StreamTag*,#std::vector<eformat::helper::StreamTag,#std::allocator<eformat::helper::StreamTag>#>#>#>::next,#boost::python::return_internal_reference<1u,#boost::python::default_call_policies>,#boost::mpl::vector2<eformat::helper::StreamTag=,#boost::python::objects::iterator_range<boost::python::return_internal_reference<1u,#boost::python::default_call_policies>,#__gnu_cxx::__normal_iterator<eformat::helper::StreamTag*,#std::vector<eformat::helper::StreamTag,#std::allocator<eformat::helper::StreamTag>#>#>#>=>#>#>(boost::python::detail::caller<boost::python::objects::iterator_range<boost::python::return_internal_reference<1u,#boost::python::default_call_policies>,#__gnu_cxx::__normal_iterator<eformat::helper::StreamTag*,#std::vector<eformat::helper::StreamTag,#std::allocator<eformat::helper::StreamTag>#>#>#>::next,#boost::python::return_internal_reference<1u,#boost::python::default_call_policies>,#boost::mpl::vector2<eformat::helper::StreamTag=,#boost::python::objects::iterator_range<boost::python::return_internal_reference<1u,#boost::python::default_call_policies>,#__gnu_cxx::__normal_iterator<eformat::helper::StreamTag*,#std::vector<eformat::helper::StreamTag,#std::allocator<eformat::helper::StreamTag>#>#>#>=>#>#const=)
      Memcheck:Leak
      fun:_Znwj
      fun:_ZN5boost6python7objects11py_functionC1INS0_6detail6callerINS1_14iterator_rangeINS0_25return_internal_referenceILj1ENS0_21default_call_policiesEEEN9__gnu_cxx17__normal_iteratorIPN7eformat6helper9StreamTagESt6vectorISE_SaISE_EEEEE4nextES9_NS_3mpl7vector2IRSE_RSK_EEEEEERKT_
      fun:_ZN5boost6python6detail17make_function_auxINS0_7objects14iterator_rangeINS0_25return_internal_referenceILj1ENS0_21default_call_policiesEEEN9__gnu_cxx17__normal_iteratorIPN7eformat6helper9StreamTagESt6vectorISC_SaISC_EEEEE4nextES7_NS_3mpl7vector2IRSC_RSI_EEEENS0_3api6objectET_RKT0_RKT1_
      fun:_ZN5boost6python6detail22make_function_dispatchINS0_7objects14iterator_rangeINS0_25return_internal_referenceILj1ENS0_21default_call_policiesEEEN9__gnu_cxx17__normal_iteratorIPN7eformat6helper9StreamTagESt6vectorISC_SaISC_EEEEE4nextES7_NS_3mpl7vector2IRSC_RSI_EEEENS0_3api6objectET_RKT0_RKT1_N4mpl_5bool_ILb0EEE
      fun:_ZN5boost6python13make_functionINS0_7objects14iterator_rangeINS0_25return_internal_referenceILj1ENS0_21default_call_policiesEEEN9__gnu_cxx17__normal_iteratorIPN7eformat6helper9StreamTagESt6vectorISB_SaISB_EEEEE4nextES6_NS_3mpl7vector2IRSB_RSH_EEEENS0_3api6objectET_RKT0_RKT1_
   }
   {
      Reflex::TypeBuilder(char#const*,#unsigned#int)
      Memcheck:Leak
      fun:_Znwj
      fun:_ZN6Reflex11TypeBuilderEPKcj
      fun:_ZN6Reflex16TemplateInstanceC2ERKSs
      fun:_ZN6Reflex21ClassTemplateInstanceC1EPKcjRKSt9type_infoj
      fun:_ZN6Reflex16ClassBuilderImplC1EPKcRKSt9type_infojjNS_4TYPEE
   }
   {
      G__register_sharedlib
      Memcheck:Leak
      fun:malloc
      fun:G__register_sharedlib
      fun:G__RegisterLibrary
      fun:G__call_setup_funcs
      fun:G__main
   }
   {
      (anonymous#namespace)::CreateIntConverter(long)
      Memcheck:Leak
      fun:_Znwj
      fun:_ZN38_GLOBAL__N__ZN6PyROOT14gConvFactoriesE18CreateIntConverterEl
      fun:_ZN6PyROOT15CreateConverterERKSsl
      fun:_ZN6PyROOT13TMethodHolderINS_13TScopeAdapterENS_14TMemberAdapterEE13InitCallFunc_Ev
      fun:_ZN6PyROOT13TMethodHolderINS_13TScopeAdapterENS_14TMemberAdapterEE10InitializeEv
   }
   {
      boost::python::objects::py_function::py_function<boost::python::detail::caller<void#(daq::RawFileName::*)(std::basic_string<char,#std::char_traits<char>,#std::allocator<char>#>,#unsigned#int,#std::basic_string<char,#std::char_traits<char>,#std::allocator<char>#>),#boost::python::default_call_policies,#boost::mpl::vector5<void,#daq::RawFileName=,#std::basic_string<char,#std::char_traits<char>,#std::allocator<char>#>,#unsigned#int,#std::basic_string<char,#std::char_traits<char>,#std::allocator<char>#>#>#>#>(boost::python::detail::caller<void#(daq::RawFileName::*)(std::basic_string<char,#std::char_traits<char>,#std::allocator<char>#>,#unsigned#int,#std::basic_string<char,#std::char_traits<char>,#std::allocator<char>#>),#boost::python::default_call_policies,#boost::mpl::vector5<void,#daq::RawFileName=,#std::basic_string<char,#std::char_traits<char>,#std::allocator<char>#>,#unsigned#int,#std::basic_string<char,#std::char_traits<char>,#std::allocator<char>#>#>#>#const=)
      Memcheck:Leak
      fun:_Znwj
      fun:_ZN5boost6python7objects11py_functionC1INS0_6detail6callerIMN3daq11RawFileNameEFvSsjSsENS0_21default_call_policiesENS_3mpl7vector5IvRS7_SsjSsEEEEEERKT_
      fun:_ZN5boost6python6detail17make_function_auxIMN3daq11RawFileNameEFvSsjSsENS0_21default_call_policiesENS_3mpl7vector5IvRS4_SsjSsEEN4mpl_4int_ILi0EEEEENS0_3api6objectET_RKT0_RKT1_RKSt4pairIPKNS1_7keywordESR_ET2_
      fun:_ZN5boost6python13make_functionIMN3daq11RawFileNameEFvSsjSsENS0_21default_call_policiesENS0_6detail8keywordsILj0EEENS_3mpl7vector5IvRS3_SsjSsEEEENS0_3api6objectET_RKT0_RKT1_RKT2_
      fun:_ZN5boost6python6class_IN3daq11RawFileNameENS0_6detail13not_specifiedES5_S5_E8def_implIS3_MS3_FvSsjSsENS4_10def_helperIPKcS5_S5_S5_EEEEvPT_SC_T0_RKT1_z
   }
   {
      hist_init
      Memcheck:Leak
      fun:malloc
      fun:hist_init
      fun:Gl_histinit
      fun:_ZN6PyROOT18TPyROOTApplicationC1EPKcPiPPcb
      fun:_ZN6PyROOT18TPyROOTApplication23CreatePyROOTApplicationEb
   }
   {
      ROOT::Cintex::Method_stub_with_context(ROOT::Cintex::StubContext_t*,#G__value*,#char#const*,#G__param*,#int)
      Memcheck:Leak
      fun:_Znwj
      fun:_ZN4ROOT6Cintex24Method_stub_with_contextEPNS0_13StubContext_tEP8G__valuePKcP8G__parami
      obj:*
      fun:_ZN4Cint11G__CallFunc7ExecuteEPv
      fun:_ZN4Cint11G__CallFunc7ExecIntEPv
   }
   {
      Property*#PropertyMgr::declareProperty<std::vector<std::basic_string<char,#std::char_traits<char>,#std::allocator<char>#>,#std::allocator<std::basic_string<char,#std::char_traits<char>,#std::allocator<char>#>#>#>#>(std::basic_string<char,#std::char_traits<char>,#std::allocator<char>#>#const=,#std::vector<std::basic_string<char,#std::char_traits<char>,#std::allocator<char>#>,#std::allocator<std::basic_string<char,#std::char_traits<char>,#std::allocator<char>#>#>#>=,#std::basic_string<char,#std::char_traits<char>,#std::allocator<char>#>#const=)
      Memcheck:Leak
      fun:_Znwj
      fun:_ZN11PropertyMgr15declarePropertyISt6vectorISsSaISsEEEEP8PropertyRKSsRT_S7_
      fun:_ZN14ApplicationMgrC1EP10IInterface
      fun:_ZN69_GLOBAL__N_.._src_ApplicationMgr_ApplicationMgr.cpp_9D2164D3_9BE5AFB07FactoryI14ApplicationMgrFP10IInterfaceS3_EE4FuncEPvS6_RKSt6vectorIS6_SaIS6_EES6_
      fun:_ZNK6Reflex14FunctionMember6InvokeERKNS_6ObjectEPS1_RKSt6vectorIPvSaIS6_EE
   }
   {
      Reflex::FunctionTypeBuilder(Reflex::Type#const=,#Reflex::Type#const=,#Reflex::Type#const=,#Reflex::Type#const=,#Reflex::Type#const=,#Reflex::Type#const=,#Reflex::Type#const=,#Reflex::Type#const=)
      Memcheck:Leak
      fun:_Znwj
      fun:_ZN6Reflex19FunctionTypeBuilderERKNS_4TypeES2_S2_S2_S2_S2_S2_S2_
      fun:_ZN84_GLOBAL__N_.._i686_slc4_gcc34_dbg_dict_GaudiPython_kernel_dict.cpp_9D2164D3_B5DBB98A17__IHistoTool_dictEv
      fun:_ZN84_GLOBAL__N_.._i686_slc4_gcc34_dbg_dict_GaudiPython_kernel_dict.cpp_9D2164D3_B5DBB98A84_GLOBAL__N_.._i686_slc4_gcc34_dbg_dict_GaudiPython_kernel_dict.cpp_9D2164D3_B5DBB98A12DictionariesC1Ev
      fun:_Z41__static_initialization_and_destruction_0ii
   }
   {
      boost::python::objects::py_function::py_function<boost::python::detail::caller<unsigned#int#(eformat::helper::SourceIdentifier::*)()#const,#boost::python::default_call_policies,#boost::mpl::vector2<unsigned#int,#eformat::helper::SourceIdentifier=>#>#>(boost::python::detail::caller<unsigned#int#(eformat::helper::SourceIdentifier::*)()#const,#boost::python::default_call_policies,#boost::mpl::vector2<unsigned#int,#eformat::helper::SourceIdentifier=>#>#const=)
      Memcheck:Leak
      fun:_Znwj
      fun:_ZN5boost6python7objects11py_functionC1INS0_6detail6callerIMN7eformat6helper16SourceIdentifierEKFjvENS0_21default_call_policiesENS_3mpl7vector2IjRS8_EEEEEERKT_
      fun:_ZN5boost6python6detail17make_function_auxIMN7eformat6helper16SourceIdentifierEKFjvENS0_21default_call_policiesENS_3mpl7vector2IjRS5_EEN4mpl_4int_ILi0EEEEENS0_3api6objectET_RKT0_RKT1_RKSt4pairIPKNS1_7keywordESS_ET2_
      fun:_ZN5boost6python13make_functionIMN7eformat6helper16SourceIdentifierEKFjvENS0_21default_call_policiesENS0_6detail8keywordsILj0EEENS_3mpl7vector2IjRS4_EEEENS0_3api6objectET_RKT0_RKT1_RKT2_
      fun:_ZN5boost6python6class_IN7eformat6helper16SourceIdentifierENS0_6detail13not_specifiedES6_S6_E8def_implIS4_MS4_KFjvENS5_10def_helperIPKcS6_S6_S6_EEEEvPT_SD_T0_RKT1_z
   }
   {
      Reflex::FunctionBuilder::FunctionBuilder(Reflex::Type#const=,#char#const*,#void#(*)(void*,#void*,#std::vector<void*,#std::allocator<void*>#>#const=,#void*),#void*,#char#const*,#unsigned#char)
      Memcheck:Leak
      fun:_Znwj
      fun:_ZN6Reflex15FunctionBuilderC1ERKNS_4TypeEPKcPFvPvS6_RKSt6vectorIS6_SaIS6_EES6_ES6_S5_h
      fun:_ZN60_GLOBAL__N_.._src_ToyNextPassFilterAlg.cxx_EF105EC1_348EAF1526ToyNextPassFilterAlg_dict5C1Ev
      fun:_Z41__static_initialization_and_destruction_0ii
      fun:_GLOBAL__I__ZN60_GLOBAL__N_.._src_ToyNextPassFilterAlg.cxx_EF105EC1_348EAF1528s_ToyNextPassFilterAlg_dict5E
   }
   {
      boost::python::objects::py_function::py_function<boost::python::detail::caller<bool#(EventStorage::DataWriter::*)()#const,#boost::python::default_call_policies,#boost::mpl::vector2<bool,#EventStorage::DataWriter=>#>#>(boost::python::detail::caller<bool#(EventStorage::DataWriter::*)()#const,#boost::python::default_call_policies,#boost::mpl::vector2<bool,#EventStorage::DataWriter=>#>#const=)
      Memcheck:Leak
      fun:_Znwj
      fun:_ZN5boost6python7objects11py_functionC1INS0_6detail6callerIMN12EventStorage10DataWriterEKFbvENS0_21default_call_policiesENS_3mpl7vector2IbRS7_EEEEEERKT_
      fun:_ZN5boost6python6detail17make_function_auxIMN12EventStorage10DataWriterEKFbvENS0_21default_call_policiesENS_3mpl7vector2IbRS4_EEN4mpl_4int_ILi0EEEEENS0_3api6objectET_RKT0_RKT1_RKSt4pairIPKNS1_7keywordESR_ET2_
      fun:_ZN5boost6python13make_functionIMN12EventStorage10DataWriterEKFbvENS0_21default_call_policiesENS0_6detail8keywordsILj0EEENS_3mpl7vector2IbRS3_EEEENS0_3api6objectET_RKT0_RKT1_RKT2_
      fun:_ZN5boost6python6class_IN12EventStorage10DataWriterENS_12noncopyable_11noncopyableENS0_6detail13not_specifiedES7_E8def_implIS3_MS3_KFbvENS6_10def_helperIPKcS7_S7_S7_EEEEvPT_SE_T0_RKT1_z
   }
   {
      ROOT::TCollectionProxyInfo*#ROOT::TCollectionProxyInfo::Generate<ROOT::TCollectionProxyInfo::Pushback<std::vector<double,#std::allocator<double>#>#>#>(ROOT::TCollectionProxyInfo::Pushback<std::vector<double,#std::allocator<double>#>#>#const=)
      Memcheck:Leak
      fun:_Znwj
      fun:_ZN4ROOT20TCollectionProxyInfo8GenerateINS0_8PushbackISt6vectorIdSaIdEEEEEEPS0_RKT_
      fun:_ZN4ROOT25GenerateInitInstanceLocalEPKSt6vectorIdSaIdEE
      fun:_Z41__static_initialization_and_destruction_0ii
      fun:_GLOBAL__I__ZN4ROOT20GenerateInitInstanceEPKNS_3Fit11DataOptionsE
   }
   {
      __gnu_cxx::new_allocator<std::_Rb_tree_node<std::pair<std::basic_string<char,#std::char_traits<char>,#std::allocator<char>#>#const,#std::vector<Property#const*,#std::allocator<Property#const*>#>#>#>#>::allocate(unsigned#int,#void#const*)
      Memcheck:Leak
      fun:_Znwj
      fun:_ZN9__gnu_cxx13new_allocatorISt13_Rb_tree_nodeISt4pairIKSsSt6vectorIPK8PropertySaIS7_EEEEE8allocateEjPKv
      fun:_ZNSt8_Rb_treeISsSt4pairIKSsSt6vectorIPK8PropertySaIS5_EEESt10_Select1stIS8_ESt4lessISsESaIS8_EE11_M_get_nodeEv
      fun:_ZNSt8_Rb_treeISsSt4pairIKSsSt6vectorIPK8PropertySaIS5_EEESt10_Select1stIS8_ESt4lessISsESaIS8_EE14_M_create_nodeERKS8_
      fun:_ZNSt8_Rb_treeISsSt4pairIKSsSt6vectorIPK8PropertySaIS5_EEESt10_Select1stIS8_ESt4lessISsESaIS8_EE9_M_insertEPSt18_Rb_tree_node_baseSG_RKS8_
   }
   {
      Reflex::FunctionTypeBuilder(Reflex::Type#const=,#Reflex::Type#const=,#Reflex::Type#const=,#Reflex::Type#const=,#Reflex::Type#const=,#Reflex::Type#const=,#Reflex::Type#const=,#Reflex::Type#const=,#Reflex::Type#const=,#Reflex::Type#const=,#Reflex::Type#const=,#Reflex::Type#const=)
      Memcheck:Leak
      fun:_Znwj
      fun:_ZN6Reflex19FunctionTypeBuilderERKNS_4TypeES2_S2_S2_S2_S2_S2_S2_S2_S2_S2_S2_
      fun:_ZN84_GLOBAL__N_.._i686_slc4_gcc34_dbg_dict_GaudiPython_kernel_dict.cpp_9D2164D3_B5DBB98A34__GaudiHistos_GaudiAlgorithm__dictEv
      fun:_ZN84_GLOBAL__N_.._i686_slc4_gcc34_dbg_dict_GaudiPython_kernel_dict.cpp_9D2164D3_B5DBB98A84_GLOBAL__N_.._i686_slc4_gcc34_dbg_dict_GaudiPython_kernel_dict.cpp_9D2164D3_B5DBB98A12DictionariesC1Ev
      fun:_Z41__static_initialization_and_destruction_0ii
   }
   {
      PyROOT::Pythonize(_object*,#std::basic_string<char,#std::char_traits<char>,#std::allocator<char>#>#const=)
      Memcheck:Leak
      fun:_Znwj
      fun:_ZN6PyROOT9PythonizeEP7_objectRKSs
      fun:_ZN6PyROOT23MakeRootClassFromStringINS_13TScopeAdapterENS_12TBaseAdapterENS_14TMemberAdapterEEEP7_objectRKSsS5_
      fun:_ZN6PyROOT13MakeRootClassEP7_objectS1_
      fun:PyCFunction_Call
   }
   {
      __gnu_cxx::new_allocator<G__bc_funccall>::allocate(unsigned#int,#void#const*)
      Memcheck:Leak
      fun:_Znwj
      fun:_ZN9__gnu_cxx13new_allocatorI14G__bc_funccallE8allocateEjPKv
      fun:_ZNSt11_Deque_baseI14G__bc_funccallSaIS0_EE16_M_allocate_nodeEv
      fun:_ZNSt11_Deque_baseI14G__bc_funccallSaIS0_EE15_M_create_nodesEPPS0_S4_
      fun:_ZNSt11_Deque_baseI14G__bc_funccallSaIS0_EE17_M_initialize_mapEj
   }
   {
      dl_open_worker
      Memcheck:Leak
      fun:realloc
      fun:dl_open_worker
      fun:_dl_catch_error
      fun:_dl_open
      fun:dlopen_doit
   }
   {
      lemcis
      Memcheck:Leak
      fun:malloc
      fun:lemcis
      fun:lpmpali
      fun:lpminitm
      fun:lpminit
   }
   {
      __gnu_cxx::new_allocator<G__IncSetupStack*>::allocate(unsigned#int,#void#const*)
      Memcheck:Leak
      fun:_Znwj
      fun:_ZN9__gnu_cxx13new_allocatorIP16G__IncSetupStackE8allocateEjPKv
      fun:_ZNSt11_Deque_baseI16G__IncSetupStackSaIS0_EE15_M_allocate_mapEj
      fun:_ZNSt11_Deque_baseI16G__IncSetupStackSaIS0_EE17_M_initialize_mapEj
      fun:_ZNSt11_Deque_baseI16G__IncSetupStackSaIS0_EEC2ERKS1_j
   }
   {
      boost::python::objects::py_function::py_function<boost::python::detail::caller<void#(eformat::write::FullEventFragment::*)(eformat::write::ROBFragment*),#boost::python::with_custodian_and_ward<1u,#2u,#boost::python::default_call_policies>,#boost::mpl::vector3<void,#eformat::write::FullEventFragment=,#eformat::write::ROBFragment*>#>#>(boost::python::detail::caller<void#(eformat::write::FullEventFragment::*)(eformat::write::ROBFragment*),#boost::python::with_custodian_and_ward<1u,#2u,#boost::python::default_call_policies>,#boost::mpl::vector3<void,#eformat::write::FullEventFragment=,#eformat::write::ROBFragment*>#>#const=)
      Memcheck:Leak
      fun:_Znwj
      fun:_ZN5boost6python7objects11py_functionC1INS0_6detail6callerIMN7eformat5write17FullEventFragmentEFvPNS7_11ROBFragmentEENS0_23with_custodian_and_wardILj1ELj2ENS0_21default_call_policiesEEENS_3mpl7vector3IvRS8_SA_EEEEEERKT_
      fun:_ZN5boost6python6detail17make_function_auxIMN7eformat5write17FullEventFragmentEFvPNS4_11ROBFragmentEENS0_23with_custodian_and_wardILj1ELj2ENS0_21default_call_policiesEEENS_3mpl7vector3IvRS5_S7_EEN4mpl_4int_ILi0EEEEENS0_3api6objectET_RKT0_RKT1_RKSt4pairIPKNS1_7keywordESW_ET2_
      fun:_ZN5boost6python13make_functionIMN7eformat5write17FullEventFragmentEFvPNS3_11ROBFragmentEENS0_23with_custodian_and_wardILj1ELj2ENS0_21default_call_policiesEEENS0_6detail8keywordsILj0EEENS_3mpl7vector3IvRS4_S6_EEEENS0_3api6objectET_RKT0_RKT1_RKT2_
      fun:_ZN5boost6python6class_IN7eformat5write17FullEventFragmentENS0_6detail13not_specifiedES6_S6_E8def_implIS4_MS4_FvPNS3_11ROBFragmentEENS5_10def_helperINS0_23with_custodian_and_wardILj1ELj2ENS0_21default_call_policiesEEES6_S6_S6_EEEEvPT_PKcT0_RKT1_z
   }
   {
      CMP_CMPIntToFixedLenOctetStr
      Memcheck:Cond
      fun:CMP_CMPIntToOctetString
      fun:CMP_CMPIntToFixedLenOctetStr
      fun:A_X931RandomGenerateBytes
      fun:ztcr2rnd
      fun:ztvo5pe
   }
   {
      sltskyc
      Memcheck:Leak
      fun:malloc
      fun:sltskyc
      fun:nlepeinit
      fun:nlstdggo
      fun:nlstdgg
   }
   {
      boost::python::objects::py_function::py_function<boost::python::detail::caller<void#(*)(_object*,#unsigned#long#long),#boost::python::default_call_policies,#boost::mpl::vector3<void,#_object*,#unsigned#long#long>#>#>(boost::python::detail::caller<void#(*)(_object*,#unsigned#long#long),#boost::python::default_call_policies,#boost::mpl::vector3<void,#_object*,#unsigned#long#long>#>#const=)
      Memcheck:Leak
      fun:_Znwj
      fun:_ZN5boost6python7objects11py_functionC1INS0_6detail6callerIPFvP7_objectyENS0_21default_call_policiesENS_3mpl7vector3IvS7_yEEEEEERKT_
      fun:_ZN5boost6python6detail17make_function_auxIPFvP7_objectyENS0_21default_call_policiesENS_3mpl7vector3IvS4_yEEN4mpl_4int_ILi0EEEEENS0_3api6objectET_RKT0_RKT1_RKSt4pairIPKNS1_7keywordESQ_ET2_
      fun:_ZN5boost6python6detail27make_keyword_range_functionIPFvP7_objectyENS0_21default_call_policiesEEENS0_3api6objectET_RKT0_RKSt4pairIPKNS1_7keywordESH_E
      fun:_ZN5boost6python6detail30make_keyword_range_constructorINS_3mpl7vector1IyEENS3_4sizeIS5_EENS0_7objects12value_holderIN7eformat6helper12DetectorMaskEEENS0_21default_call_policiesEEENS0_3api6objectERKT2_RKSt4pairIPKNS1_7keywordESN_EPT1_PT_PT0_
   }
   {
      nsgbliuc
      Memcheck:Leak
      fun:calloc
      fun:nsgbliuc
      fun:nsgblini
      fun:nngsini_init_streams
      fun:nncpcin_maybe_init
   }
   {
      Reflex::ClassBuilderImpl::AddTypedef(Reflex::Type#const=,#char#const*)
      Memcheck:Leak
      fun:_Znwj
      fun:_ZN6Reflex16ClassBuilderImpl10AddTypedefERKNS_4TypeEPKc
      fun:_ZN6Reflex12ClassBuilder10AddTypedefERKNS_4TypeEPKc
      fun:_ZN84_GLOBAL__N_.._i686_slc4_gcc34_dbg_dict_GaudiPython_kernel_dict.cpp_9D2164D3_B5DBB98A65__std__map_std__basic_string_char__std__basic_string_char_s__dictEv
      fun:_ZN84_GLOBAL__N_.._i686_slc4_gcc34_dbg_dict_GaudiPython_kernel_dict.cpp_9D2164D3_B5DBB98A84_GLOBAL__N_.._i686_slc4_gcc34_dbg_dict_GaudiPython_kernel_dict.cpp_9D2164D3_B5DBB98A12DictionariesC1Ev
   }
   {
      (anonymous#namespace)::TManageMagic::TManageMagic()
      Memcheck:Leak
      fun:_Znwj
      fun:_ZN41_GLOBAL__N__ZN6PyROOT17TPyExceptionMagicE12TManageMagicC1Ev
      fun:_Z41__static_initialization_and_destruction_0ii
      fun:_GLOBAL__I__ZN6PyROOT17TPyExceptionMagicE
      obj:/afs/cern.ch/sw/lcg/app/releases/ROOT/5.22.00d/slc4_ia32_gcc34_dbg/root/lib/libPyROOT.so
   }
   {
      _PyInt_Init
      Memcheck:Leak
      fun:malloc
      fun:_PyInt_Init
      fun:Py_InitializeEx
      fun:Py_Initialize
      fun:Py_Main
   }
   {
      LhtIntCreate
      Memcheck:Leak
      fun:malloc
      fun:LhtIntCreate
      fun:kpummpin
      fun:kpuenvcr
      fun:OCIEnvCreate
   }
   {
      TCint::CreateListOfDataMembers(TClass*)
      Memcheck:Leak
      fun:_Znwj
      fun:_ZN5TCint23CreateListOfDataMembersEP6TClass
      fun:_ZN6TClass20GetListOfDataMembersEv
      fun:_ZNK6PyROOT13TScopeAdapter14DataMemberSizeEv
      fun:_ZN6PyROOT18BuildRootClassDictINS_13TScopeAdapterENS_12TBaseAdapterENS_14TMemberAdapterEEEiRKT_P7_object
   }
   {
      nlstddt_do_alter_trace
      Memcheck:Leak
      fun:malloc
      fun:nlstddt_do_alter_trace
      fun:nlstdggo
      fun:nlstdgg
      fun:nigini1
   }
   {
      G__loadfile
      Memcheck:Leak
      fun:_Znwj
      fun:G__loadfile
      fun:G__loadsystemfile
      fun:_ZN5TCint4LoadEPKcb
      fun:_ZN7TSystem4LoadEPKcS1_b
   }
   {
      ROOT::TCollectionProxyInfo::Environ<__gnu_cxx::__normal_iterator<unsigned#char*,#std::vector<unsigned#char,#std::allocator<unsigned#char>#>#>#>::Create()
      Memcheck:Leak
      fun:_Znwj
      fun:_ZN4ROOT20TCollectionProxyInfo7EnvironIN9__gnu_cxx17__normal_iteratorIPhSt6vectorIhSaIhEEEEE6CreateEv
      fun:_ZNK19TGenCollectionProxy7Method06invokeEv
      fun:_ZN19TGenCollectionProxy9PushProxyEPv
      fun:_ZN23TVirtualCollectionProxy8TPushPopC1EPS_Pv
   }
   {
      LhtqmAlloc
      Memcheck:Leak
      fun:malloc
      fun:LhtqmAlloc
      fun:LhtIntCreate
      fun:kpummpin
      fun:kpuenvcr
   }
   {
      __fopen_internal
      Memcheck:Leak
      fun:malloc
      fun:__fopen_internal
      fun:fopen@@GLIBC_2.1
      fun:G__loadfile
      fun:G__process_cmd
   }
   {
      boost::python::objects::py_function::py_function<boost::python::detail::caller<eformat::helper::u32slice#(*)(eformat::FullEventFragment<unsigned#int#const*>#const=),#boost::python::with_custodian_and_ward_postcall<0u,#1u,#boost::python::default_call_policies>,#boost::mpl::vector2<eformat::helper::u32slice,#eformat::FullEventFragment<unsigned#int#const*>#const=>#>#>(boost::python::detail::caller<eformat::helper::u32slice#(*)(eformat::FullEventFragment<unsigned#int#const*>#const=),#boost::python::with_custodian_and_ward_postcall<0u,#1u,#boost::python::default_call_policies>,#boost::mpl::vector2<eformat::helper::u32slice,#eformat::FullEventFragment<unsigned#int#const*>#const=>#>#const=)
      Memcheck:Leak
      fun:_Znwj
      fun:_ZN5boost6python7objects11py_functionC1INS0_6detail6callerIPFN7eformat6helper8u32sliceERKNS6_17FullEventFragmentIPKjEEENS0_32with_custodian_and_ward_postcallILj0ELj1ENS0_21default_call_policiesEEENS_3mpl7vector2IS8_SE_EEEEEERKT_
      fun:_ZN5boost6python6detail17make_function_auxIPFN7eformat6helper8u32sliceERKNS3_17FullEventFragmentIPKjEEENS0_32with_custodian_and_ward_postcallILj0ELj1ENS0_21default_call_policiesEEENS_3mpl7vector2IS5_SB_EEN4mpl_4int_ILi0EEEEENS0_3api6objectET_RKT0_RKT1_RKSt4pairIPKNS1_7keywordESZ_ET2_
      fun:_ZN5boost6python13make_functionIPFN7eformat6helper8u32sliceERKNS2_17FullEventFragmentIPKjEEENS0_32with_custodian_and_ward_postcallILj0ELj1ENS0_21default_call_policiesEEENS0_6detail8keywordsILj0EEENS_3mpl7vector2IS4_SA_EEEENS0_3api6objectET_RKT0_RKT1_RKT2_
      fun:_ZN5boost6python6class_IN7eformat17FullEventFragmentIPKjEENS_10shared_ptrIS6_EENS0_5basesINS2_6HeaderIS5_EEN4mpl_5void_ESD_SD_SD_SD_SD_SD_SD_SD_EENS0_6detail13not_specifiedEE8def_implIS6_PFNS2_6helper8u32sliceERKS6_ENSF_10def_helperINS0_32with_custodian_and_ward_postcallILj0ELj1ENS0_21default_call_policiesEEESG_SG_SG_EEEEvPT_PKcT0_RKT1_z
   }
   {
      boost::python::objects::py_function::py_function<boost::python::detail::caller<EventStorage::DWError#(EventStorage::DataWriter::*)(),#boost::python::default_call_policies,#boost::mpl::vector2<EventStorage::DWError,#EventStorage::DataWriter=>#>#>(boost::python::detail::caller<EventStorage::DWError#(EventStorage::DataWriter::*)(),#boost::python::default_call_policies,#boost::mpl::vector2<EventStorage::DWError,#EventStorage::DataWriter=>#>#const=)
      Memcheck:Leak
      fun:_Znwj
      fun:_ZN5boost6python7objects11py_functionC1INS0_6detail6callerIMN12EventStorage10DataWriterEFNS6_7DWErrorEvENS0_21default_call_policiesENS_3mpl7vector2IS8_RS7_EEEEEERKT_
      fun:_ZN5boost6python6detail17make_function_auxIMN12EventStorage10DataWriterEFNS3_7DWErrorEvENS0_21default_call_policiesENS_3mpl7vector2IS5_RS4_EEN4mpl_4int_ILi0EEEEENS0_3api6objectET_RKT0_RKT1_RKSt4pairIPKNS1_7keywordESS_ET2_
      fun:_ZN5boost6python13make_functionIMN12EventStorage10DataWriterEFNS2_7DWErrorEvENS0_21default_call_policiesENS0_6detail8keywordsILj0EEENS_3mpl7vector2IS4_RS3_EEEENS0_3api6objectET_RKT0_RKT1_RKT2_
      fun:_ZN5boost6python6class_IN12EventStorage10DataWriterENS_12noncopyable_11noncopyableENS0_6detail13not_specifiedES7_E8def_implIS3_MS3_FNS2_7DWErrorEvENS6_10def_helperIPKcS7_S7_S7_EEEEvPT_SF_T0_RKT1_z
   }
   {
      AlgorithmManager::AlgorithmManager(IInterface*)
      Memcheck:Leak
      fun:_Znwj
      fun:_ZN16AlgorithmManagerC1EP10IInterface
      fun:_ZN14ApplicationMgrC1EP10IInterface
      fun:_ZN69_GLOBAL__N_.._src_ApplicationMgr_ApplicationMgr.cpp_9D2164D3_9BE5AFB07FactoryI14ApplicationMgrFP10IInterfaceS3_EE4FuncEPvS6_RKSt6vectorIS6_SaIS6_EES6_
      fun:_ZNK6Reflex14FunctionMember6InvokeERKNS_6ObjectEPS1_RKSt6vectorIPvSaIS6_EE
   }
   {
      __gnu_cxx::new_allocator<CoreParser::DOMNode*>::allocate(unsigned#int,#void#const*)
      Memcheck:Leak
      fun:_Znwj
      fun:_ZN9__gnu_cxx13new_allocatorIPN10CoreParser7DOMNodeEE8allocateEjPKv
      fun:_ZNSt12_Vector_baseIPN10CoreParser7DOMNodeESaIS2_EE11_M_allocateEj
      fun:_ZNSt6vectorIPN10CoreParser7DOMNodeESaIS2_EE13_M_insert_auxEN9__gnu_cxx17__normal_iteratorIPS2_S4_EERKS2_
      fun:_ZNSt6vectorIPN10CoreParser7DOMNodeESaIS2_EE9push_backERKS2_
   }
   {
      Reflex::FunctionTypeBuilder(Reflex::Type#const=,#Reflex::Type#const=,#Reflex::Type#const=,#Reflex::Type#const=,#Reflex::Type#const=,#Reflex::Type#const=,#Reflex::Type#const=,#Reflex::Type#const=,#Reflex::Type#const=,#Reflex::Type#const=)
      Memcheck:Leak
      fun:_Znwj
      fun:_ZN6Reflex19FunctionTypeBuilderERKNS_4TypeES2_S2_S2_S2_S2_S2_S2_S2_S2_
      fun:_ZN88_GLOBAL__N_.._i686_slc4_gcc34_dbg_dict_GaudiKernel_dictionary_dict.cpp_17E02520_101EBE7827__IParticlePropertySvc_dictEv
      fun:_ZN88_GLOBAL__N_.._i686_slc4_gcc34_dbg_dict_GaudiKernel_dictionary_dict.cpp_17E02520_101EBE7888_GLOBAL__N_.._i686_slc4_gcc34_dbg_dict_GaudiKernel_dictionary_dict.cpp_17E02520_101EBE7812DictionariesC1Ev
      fun:_Z41__static_initialization_and_destruction_0ii
   }
   {
      boost::python::objects::py_function::py_function<boost::python::detail::caller<boost::python::detail::member<std::basic_string<char,#std::char_traits<char>,#std::allocator<char>#>,#eformat::helper::StreamTag>,#boost::python::return_value_policy<boost::python::return_by_value,#boost::python::default_call_policies>,#boost::mpl::vector2<std::basic_string<char,#std::char_traits<char>,#std::allocator<char>#>=,#eformat::helper::StreamTag=>#>#>(boost::python::detail::caller<boost::python::detail::member<std::basic_string<char,#std::char_traits<char>,#std::allocator<char>#>,#eformat::helper::StreamTag>,#boost::python::return_value_policy<boost::python::return_by_value,#boost::python::default_call_policies>,#boost::mpl::vector2<std::basic_string<char,#std::char_traits<char>,#std::allocator<char>#>=,#eformat::helper::StreamTag=>#>#const=)
      Memcheck:Leak
      fun:_Znwj
      fun:_ZN5boost6python7objects11py_functionC1INS0_6detail6callerINS4_6memberISsN7eformat6helper9StreamTagEEENS0_19return_value_policyINS0_15return_by_valueENS0_21default_call_policiesEEENS_3mpl7vector2IRSsRS9_EEEEEERKT_
      fun:_ZN5boost6python6detail17make_function_auxINS1_6memberISsN7eformat6helper9StreamTagEEENS0_19return_value_policyINS0_15return_by_valueENS0_21default_call_policiesEEENS_3mpl7vector2IRSsRS6_EEEENS0_3api6objectET_RKT0_RKT1_
      fun:_ZN5boost6python6detail22make_function_dispatchINS1_6memberISsN7eformat6helper9StreamTagEEENS0_19return_value_policyINS0_15return_by_valueENS0_21default_call_policiesEEENS_3mpl7vector2IRSsRS6_EEEENS0_3api6objectET_RKT0_RKT1_N4mpl_5bool_ILb0EEE
      fun:_ZN5boost6python13make_functionINS0_6detail6memberISsN7eformat6helper9StreamTagEEENS0_19return_value_policyINS0_15return_by_valueENS0_21default_call_policiesEEENS_3mpl7vector2IRSsRS6_EEEENS0_3api6objectET_RKT0_RKT1_
   }
   {
      (anonymous#namespace)::CreateULongConverter(long)
      Memcheck:Leak
      fun:_Znwj
      fun:_ZN38_GLOBAL__N__ZN6PyROOT14gConvFactoriesE20CreateULongConverterEl
      fun:_ZN6PyROOT15CreateConverterERKSsl
      fun:_ZN6PyROOT13TMethodHolderINS_13TScopeAdapterENS_14TMemberAdapterEE13InitCallFunc_Ev
      fun:_ZN6PyROOT13TMethodHolderINS_13TScopeAdapterENS_14TMemberAdapterEE10InitializeEv
   }
   {
      Reflex::TypeBase::TypeBase(char#const*,#unsigned#int,#Reflex::TYPE,#std::type_info#const=,#Reflex::Type#const=)
      Memcheck:Leak
      fun:_Znwj
      fun:_ZN6Reflex8TypeBaseC2EPKcjNS_4TYPEERKSt9type_infoRKNS_4TypeE
      fun:_ZN6Reflex4EnumC1EPKcRKSt9type_infoj
      fun:_ZN6Reflex15EnumTypeBuilderEPKcS1_RKSt9type_infoj
      fun:_Z41__static_initialization_and_destruction_0ii
   }
   {
      Reflex::FunctionMemberTemplateInstance::FunctionMemberTemplateInstance(char#const*,#Reflex::Type#const=,#void#(*)(void*,#void*,#std::vector<void*,#std::allocator<void*>#>#const=,#void*),#void*,#char#const*,#unsigned#int,#Reflex::Scope#const=)
      Memcheck:Leak
      fun:_Znwj
      fun:_ZN6Reflex30FunctionMemberTemplateInstanceC1EPKcRKNS_4TypeEPFvPvS6_RKSt6vectorIS6_SaIS6_EES6_ES6_S2_jRKNS_5ScopeE
      fun:_ZN6Reflex16ClassBuilderImpl17AddFunctionMemberEPKcRKNS_4TypeEPFvPvS6_RKSt6vectorIS6_SaIS6_EES6_ES6_S2_j
      fun:_ZN6Reflex12ClassBuilder17AddFunctionMemberERKNS_4TypeEPKcPFvPvS6_RKSt6vectorIS6_SaIS6_EES6_ES6_S5_j
      fun:_ZN84_GLOBAL__N_.._i686_slc4_gcc34_dbg_dict_GaudiPython_kernel_dict.cpp_9D2164D3_B5DBB98A81__PropertyWithValue_std__map_std__basic_string_char__std__vector_double_s_s__dictEv
   }
   {
      nlemfins
      Memcheck:Leak
      fun:calloc
      fun:nlemfins
      fun:nleminz
      fun:nlstdggo
      fun:nlstdgg
   }
   {
      nldaini
      Memcheck:Leak
      fun:malloc
      fun:nldaini
      fun:nlstdggo
      fun:nlstdgg
      fun:nigini1
   }
   {
      Reflex::TypeBuilder(char#const*,#unsigned#int)
      Memcheck:Leak
      fun:_Znwj
      fun:_ZN6Reflex11TypeBuilderEPKcj
      fun:_ZN4ROOT6Cintex21ROOTClassEnhancerInfo5SetupEv
      fun:_ZN4ROOT6Cintex17ROOTClassEnhancer5SetupEv
      fun:_ZN4ROOT6Cintex8CallbackclERKN6Reflex4TypeE
   }
   {
      Reflex::CFTGenerator<Reflex::MapInsert<std::map<std::basic_string<char,#std::char_traits<char>,#std::allocator<char>#>,#std::basic_string<char,#std::char_traits<char>,#std::allocator<char>#>,#std::less<std::basic_string<char,#std::char_traits<char>,#std::allocator<char>#>#>,#std::allocator<std::pair<std::basic_string<char,#std::char_traits<char>,#std::allocator<char>#>#const,#std::basic_string<char,#std::char_traits<char>,#std::allocator<char>#>#>#>#>#>#>::Generate()
      Memcheck:Leak
      fun:_Znwj
      fun:_ZN6Reflex12CFTGeneratorINS_9MapInsertISt3mapISsSsSt4lessISsESaISt4pairIKSsSsEEEEEE8GenerateEv
      fun:_ZN6Reflex5ProxyISt3mapISsSsSt4lessISsESaISt4pairIKSsSsEEEE8GenerateEv
      fun:_ZN84_GLOBAL__N_.._i686_slc4_gcc34_dbg_dict_GaudiPython_kernel_dict.cpp_9D2164D3_B5DBB98A10method_x14EPvS0_RKSt6vectorIS0_SaIS0_EES0_
      fun:_ZNK6Reflex14FunctionMember6InvokeEPNS_6ObjectERKSt6vectorIPvSaIS4_EE
   }
   {
      __gnu_cxx::new_allocator<Reflex::OwnedMemberTemplate>::allocate(unsigned#int,#void#const*)
      Memcheck:Leak
      fun:_Znwj
      fun:_ZN9__gnu_cxx13new_allocatorIN6Reflex19OwnedMemberTemplateEE8allocateEjPKv
      fun:_ZNSt12_Vector_baseIN6Reflex19OwnedMemberTemplateESaIS1_EE11_M_allocateEj
      fun:_ZNSt6vectorIN6Reflex19OwnedMemberTemplateESaIS1_EE13_M_insert_auxEN9__gnu_cxx17__normal_iteratorIPS1_S3_EERKS1_
      fun:_ZNSt6vectorIN6Reflex19OwnedMemberTemplateESaIS1_EE9push_backERKS1_
   }
   {
      boost::python::objects::py_function::py_function<boost::python::detail::caller<void#(*)(EventStorage::DataWriter=,#eformat::helper::u32slice#const=),#boost::python::default_call_policies,#boost::mpl::vector3<void,#EventStorage::DataWriter=,#eformat::helper::u32slice#const=>#>#>(boost::python::detail::caller<void#(*)(EventStorage::DataWriter=,#eformat::helper::u32slice#const=),#boost::python::default_call_policies,#boost::mpl::vector3<void,#EventStorage::DataWriter=,#eformat::helper::u32slice#const=>#>#const=)
      Memcheck:Leak
      fun:_Znwj
      fun:_ZN5boost6python7objects11py_functionC1INS0_6detail6callerIPFvRN12EventStorage10DataWriterERKN7eformat6helper8u32sliceEENS0_21default_call_policiesENS_3mpl7vector3IvS8_SD_EEEEEERKT_
      fun:_ZN5boost6python6detail17make_function_auxIPFvRN12EventStorage10DataWriterERKN7eformat6helper8u32sliceEENS0_21default_call_policiesENS_3mpl7vector3IvS5_SA_EEN4mpl_4int_ILi0EEEEENS0_3api6objectET_RKT0_RKT1_RKSt4pairIPKNS1_7keywordESW_ET2_
      fun:_ZN5boost6python13make_functionIPFvRN12EventStorage10DataWriterERKN7eformat6helper8u32sliceEENS0_21default_call_policiesENS0_6detail8keywordsILj0EEENS_3mpl7vector3IvS4_S9_EEEENS0_3api6objectET_RKT0_RKT1_RKT2_
      fun:_ZN5boost6python6class_IN12EventStorage10DataWriterENS_12noncopyable_11noncopyableENS0_6detail13not_specifiedES7_E8def_implIS3_PFvRS3_RKN7eformat6helper8u32sliceEENS6_10def_helperIPKcS7_S7_S7_EEEEvPT_SK_T0_RKT1_z
   }
   {
      PyROOT::CreateConverter(std::basic_string<char,#std::char_traits<char>,#std::allocator<char>#>#const=,#long)
      Memcheck:Leak
      fun:_Znwj
      fun:_ZN6PyROOT15CreateConverterERKSsl
      fun:_ZN6PyROOT13TMethodHolderINS_13TScopeAdapterENS_14TMemberAdapterEE13InitCallFunc_Ev
      fun:_ZN6PyROOT13TMethodHolderINS_13TScopeAdapterENS_14TMemberAdapterEE10InitializeEv
      fun:_ZN6PyROOT13TMethodHolderINS_13TScopeAdapterENS_14TMemberAdapterEEclEPNS_11ObjectProxyEP7_objectS7_
   }
   {
      Reflex::FunctionTypeBuilder(Reflex::Type#const=)
      Memcheck:Leak
      fun:_Znwj
      fun:_ZN6Reflex19FunctionTypeBuilderERKNS_4TypeE
      fun:_ZN84_GLOBAL__N_.._i686_slc4_gcc34_dbg_dict_GaudiPython_kernel_dict.cpp_9D2164D3_B5DBB98A93__SimpleProperty_std__vector_unsignedsint__BoundedVerifier_std__vector_unsignedsint_s_s__dictEv
      fun:_ZN84_GLOBAL__N_.._i686_slc4_gcc34_dbg_dict_GaudiPython_kernel_dict.cpp_9D2164D3_B5DBB98A84_GLOBAL__N_.._i686_slc4_gcc34_dbg_dict_GaudiPython_kernel_dict.cpp_9D2164D3_B5DBB98A12DictionariesC1Ev
      fun:_Z41__static_initialization_and_destruction_0ii
   }
   {
      Reflex::Namespace::GlobalScope()
      Memcheck:Leak
      fun:_Znwj
      fun:_ZN6Reflex9Namespace11GlobalScopeEv
      fun:_ZN6Reflex8InstanceC1Ev
      fun:_Z41__static_initialization_and_destruction_0ii
      fun:_GLOBAL__I__ZN6Reflex8InstanceC2Ev
   }
   {
      PyObject_Realloc
      Memcheck:Leak
      fun:realloc
      fun:PyObject_Realloc
      fun:_PyString_Resize
      fun:assemble
      fun:compiler_function
   }
   {
      ROOT::TCollectionProxyInfo*#ROOT::TCollectionProxyInfo::Generate<ROOT::TCollectionProxyInfo::Pushback<std::vector<long,#std::allocator<long>#>#>#>(ROOT::TCollectionProxyInfo::Pushback<std::vector<long,#std::allocator<long>#>#>#const=)
      Memcheck:Leak
      fun:_Znwj
      fun:_ZN4ROOT20TCollectionProxyInfo8GenerateINS0_8PushbackISt6vectorIlSaIlEEEEEEPS0_RKT_
      fun:_ZN4ROOT25GenerateInitInstanceLocalEPKSt6vectorIlSaIlEE
      fun:_Z41__static_initialization_and_destruction_0ii
      fun:_GLOBAL__I_G__set_cpp_environmentrootcint_vector
   }
   {
      G__incsetup_memfunc
      Memcheck:Leak
      fun:_Znwj
      fun:G__incsetup_memfunc
      fun:G__get_ifunchandle
      fun:G__get_ifunchandle_base
      fun:G__get_methodhandle_noerror
   }
   {
      PyROOT::CreateExecutor(std::basic_string<char,#std::char_traits<char>,#std::allocator<char>#>#const=)
      Memcheck:Leak
      fun:_Znwj
      fun:_ZN6PyROOT14CreateExecutorERKSs
      fun:_ZN6PyROOT13TMethodHolderINS_13TScopeAdapterENS_14TMemberAdapterEE13InitExecutor_ERPNS_9TExecutorE
      fun:_ZN6PyROOT13TMethodHolderINS_13TScopeAdapterENS_14TMemberAdapterEE10InitializeEv
      fun:_ZN6PyROOT13TMethodHolderINS_13TScopeAdapterENS_14TMemberAdapterEEclEPNS_11ObjectProxyEP7_objectS7_
   }
   {
      nszssk
      Memcheck:Cond
      fun:nassky
      fun:nszssk
      fun:nszssk2
      fun:kpu8lgn
      fun:kpuauthxa
   }
   {
      boost::python::objects::py_function::py_function<boost::python::detail::caller<unsigned#int#(eformat::ROBFragment<unsigned#int#const*>::*)()#const,#boost::python::default_call_policies,#boost::mpl::vector2<unsigned#int,#eformat::ROBFragment<unsigned#int#const*>=>#>#>(boost::python::detail::caller<unsigned#int#(eformat::ROBFragment<unsigned#int#const*>::*)()#const,#boost::python::default_call_policies,#boost::mpl::vector2<unsigned#int,#eformat::ROBFragment<unsigned#int#const*>=>#>#const=)
      Memcheck:Leak
      fun:_Znwj
      fun:_ZN5boost6python7objects11py_functionC1INS0_6detail6callerIMN7eformat11ROBFragmentIPKjEEKFjvENS0_21default_call_policiesENS_3mpl7vector2IjRSA_EEEEEERKT_
      fun:_ZN5boost6python6detail17make_function_auxIMN7eformat11ROBFragmentIPKjEEKFjvENS0_21default_call_policiesENS_3mpl7vector2IjRS7_EEN4mpl_4int_ILi0EEEEENS0_3api6objectET_RKT0_RKT1_RKSt4pairIPKNS1_7keywordESU_ET2_
      fun:_ZN5boost6python13make_functionIMN7eformat11ROBFragmentIPKjEEKFjvENS0_21default_call_policiesENS0_6detail8keywordsILj0EEENS_3mpl7vector2IjRS6_EEEENS0_3api6objectET_RKT0_RKT1_RKT2_
      fun:_ZN5boost6python6class_IN7eformat11ROBFragmentIPKjEENS0_5basesINS2_6HeaderIS5_EEN4mpl_5void_ESB_SB_SB_SB_SB_SB_SB_SB_EENS0_6detail13not_specifiedESE_E8def_implIS6_MS6_KFjvENSD_10def_helperIPKcSE_SE_SE_EEEEvPT_SL_T0_RKT1_z
   }
   {
      PyInt_FromLong
      Memcheck:Leak
      fun:malloc
      fun:PyInt_FromLong
      fun:symtable_add_def
      fun:symtable_visit_expr
      fun:symtable_visit_stmt
   }
   {
      timer_create
      Memcheck:Param
      timer_create(evp)
      fun:timer_create
      fun:_ZN6Athena14AlgorithmTimerC1EjN5boost8functionIFvvEEENS0_20AlgorithmTimerConfigE
      fun:_ZN12AthSequencerC1ERKSsP11ISvcLocator
      fun:_ZN10AlgFactoryI12AthSequencerE6createERKSsP11ISvcLocator
      fun:_ZN73_GLOBAL__N_.._src_components_GaudiSequencer_entries.cxx_9D2164D3_142355B07FactoryI12AthSequencerFP10IAlgorithmSsP11ISvcLocatorEE4FuncEPvS8_RKSt6vectorIS8_SaIS8_EES8_
   }
   {
      strdup
      Memcheck:Leak
      fun:malloc
      fun:strdup
      fun:set_completer_delims
      fun:PyCFunction_Call
      fun:PyEval_EvalFrameEx
   }
   {
      __gnu_cxx::new_allocator<void*>::allocate(unsigned#int,#void#const*)
      Memcheck:Leak
      fun:_Znwj
      fun:_ZN9__gnu_cxx13new_allocatorIPvE8allocateEjPKv
      fun:_ZNSt12_Vector_baseIPvSaIS0_EE11_M_allocateEj
      fun:_ZNSt6vectorIPvSaIS0_EE14_M_fill_insertEN9__gnu_cxx17__normal_iteratorIPS0_S2_EEjRKS0_
      fun:_ZNSt6vectorIPvSaIS0_EE6insertEN9__gnu_cxx17__normal_iteratorIPS0_S2_EEjRKS0_
   }
   {
      nncpcin_maybe_init
      Memcheck:Leak
      fun:calloc
      fun:nncpcin_maybe_init
      fun:nnfgiinit
      fun:nnfgauto
      fun:nnfgainit
   }
   {
      boost::python::objects::py_function::py_function<boost::python::detail::caller<boost::shared_ptr<eformat::helper::DetectorMask>#(*)(boost::python::list#const=),#boost::python::detail::constructor_policy<boost::python::default_call_policies>,#boost::mpl::vector2<boost::shared_ptr<eformat::helper::DetectorMask>,#boost::python::list#const=>#>,#boost::mpl::v_item<void,#boost::mpl::v_item<boost::python::api::object,#boost::mpl::v_mask<boost::mpl::vector2<boost::shared_ptr<eformat::helper::DetectorMask>,#boost::python::list#const=>,#1>,#1>,#1>#>(boost::python::detail::caller<boost::shared_ptr<eformat::helper::DetectorMask>#(*)(boost::python::list#const=),#boost::python::detail::constructor_policy<boost::python::default_call_policies>,#boost::mpl::vector2<boost::shared_ptr<eformat::helper::DetectorMask>,#boost::python::list#const=>#>#const=,#boost::mpl::v_item<void,#boost::mpl::v_item<boost::python::api::object,#boost::mpl::v_mask<boost::mpl::vector2<boost::shared_ptr<eformat::helper::DetectorMask>,#boost::python::list#const=>,#1>,#1>,#1>)
      Memcheck:Leak
      fun:_Znwj
      fun:_ZN5boost6python7objects11py_functionC1INS0_6detail6callerIPFNS_10shared_ptrIN7eformat6helper12DetectorMaskEEERKNS0_4listEENS4_18constructor_policyINS0_21default_call_policiesEEENS_3mpl7vector2ISA_SD_EEEENSJ_6v_itemIvNSN_INS0_3api6objectENSJ_6v_maskISL_Li1EEELi1EEELi1EEEEERKT_T0_
      fun:_ZN5boost6python6detail20make_constructor_auxIPFNS_10shared_ptrIN7eformat6helper12DetectorMaskEEERKNS0_4listEENS0_21default_call_policiesENS_3mpl7vector2IS7_SA_EEEENS0_3api6objectET_RKT0_RKT1_
      fun:_ZN5boost6python16make_constructorIPFNS_10shared_ptrIN7eformat6helper12DetectorMaskEEERKNS0_4listEEEENS0_3api6objectET_
      fun:_Z31init_module_libpyeformat_helperv
   }
   {
      Reflex::TypeBase::TypeBase(char#const*,#unsigned#int,#Reflex::TYPE,#std::type_info#const=,#Reflex::Type#const=)
      Memcheck:Leak
      fun:_Znwj
      fun:_ZN6Reflex8TypeBaseC2EPKcjNS_4TYPEERKSt9type_infoRKNS_4TypeE
      fun:_ZN6Reflex8FunctionC1ERKNS_4TypeERKSt6vectorIS1_SaIS1_EERKSt9type_infoNS_4TYPEE
      fun:_ZN6Reflex19FunctionTypeBuilderERKNS_4TypeES2_
      fun:_ZN84_GLOBAL__N_.._i686_slc4_gcc34_dbg_dict_GaudiPython_kernel_dict.cpp_9D2164D3_B5DBB98A26__GaudiPython__Helper_dictEv
   }
   {
      Reflex::EnumBuilder::AddItem(char#const*,#long)
      Memcheck:Leak
      fun:_Znwj
      fun:_ZN6Reflex11EnumBuilder7AddItemEPKcl
      fun:_ZN88_GLOBAL__N_.._i686_slc4_gcc34_dbg_dict_GaudiKernel_dictionary_dict.cpp_17E02520_101EBE7888_GLOBAL__N_.._i686_slc4_gcc34_dbg_dict_GaudiKernel_dictionary_dict.cpp_17E02520_101EBE7812DictionariesC1Ev
      fun:_Z41__static_initialization_and_destruction_0ii
      fun:_GLOBAL__I__ZN88_GLOBAL__N_.._i686_slc4_gcc34_dbg_dict_GaudiKernel_dictionary_dict.cpp_17E02520_101EBE784nsb0E
   }
   {
      PyList_New
      Memcheck:Leak
      fun:malloc
      fun:PyList_New
      fun:do_mkvalue
      fun:va_build_value
      fun:Py_BuildValue
   }
   {
      Reflex::ScopeBase::ScopeBase()
      Memcheck:Leak
      fun:_Znwj
      fun:_ZN6Reflex9ScopeBaseC2Ev
      fun:_ZN6Reflex9NamespaceC1Ev
      fun:_ZN6Reflex9Namespace11GlobalScopeEv
      fun:_ZN6Reflex8InstanceC1Ev
   }
   {
      Reflex::TypeName::TypeName(char#const*,#Reflex::TypeBase*,#std::type_info#const*)
      Memcheck:Leak
      fun:_Znwj
      fun:_ZN6Reflex8TypeNameC1EPKcPNS_8TypeBaseEPKSt9type_info
      fun:_ZN6Reflex8TypeBaseC2EPKcjNS_4TYPEERKSt9type_infoRKNS_4TypeE
      fun:_ZN6Reflex8FunctionC1ERKNS_4TypeERKSt6vectorIS1_SaIS1_EERKSt9type_infoNS_4TYPEE
      fun:_ZN6Reflex19FunctionTypeBuilderERKNS_4TypeES2_
   }
   {
      boost::python::objects::py_function::py_function<boost::python::detail::caller<unsigned#int#(eformat::FullEventFragment<unsigned#int#const*>::*)()#const,#boost::python::default_call_policies,#boost::mpl::vector2<unsigned#int,#eformat::FullEventFragment<unsigned#int#const*>=>#>#>(boost::python::detail::caller<unsigned#int#(eformat::FullEventFragment<unsigned#int#const*>::*)()#const,#boost::python::default_call_policies,#boost::mpl::vector2<unsigned#int,#eformat::FullEventFragment<unsigned#int#const*>=>#>#const=)
      Memcheck:Leak
      fun:_Znwj
      fun:_ZN5boost6python7objects11py_functionC1INS0_6detail6callerIMN7eformat17FullEventFragmentIPKjEEKFjvENS0_21default_call_policiesENS_3mpl7vector2IjRSA_EEEEEERKT_
      fun:_ZN5boost6python6detail17make_function_auxIMN7eformat17FullEventFragmentIPKjEEKFjvENS0_21default_call_policiesENS_3mpl7vector2IjRS7_EEN4mpl_4int_ILi0EEEEENS0_3api6objectET_RKT0_RKT1_RKSt4pairIPKNS1_7keywordESU_ET2_
      fun:_ZN5boost6python13make_functionIMN7eformat17FullEventFragmentIPKjEEKFjvENS0_21default_call_policiesENS0_6detail8keywordsILj0EEENS_3mpl7vector2IjRS6_EEEENS0_3api6objectET_RKT0_RKT1_RKT2_
      fun:_ZN5boost6python6class_IN7eformat17FullEventFragmentIPKjEENS_10shared_ptrIS6_EENS0_5basesINS2_6HeaderIS5_EEN4mpl_5void_ESD_SD_SD_SD_SD_SD_SD_SD_EENS0_6detail13not_specifiedEE8def_implIS6_MS6_KFjvENSF_10def_helperIPKcSG_SG_SG_EEEEvPT_SN_T0_RKT1_z
   }
   {
      Reflex::Environ<__gnu_cxx::__normal_iterator<unsigned#long#long*,#std::vector<unsigned#long#long,#std::allocator<unsigned#long#long>#>#>#>::Create()
      Memcheck:Leak
      fun:_Znwj
      fun:_ZN6Reflex7EnvironIN9__gnu_cxx17__normal_iteratorIPySt6vectorIySaIyEEEEE6CreateEv
      fun:_ZNK19TGenCollectionProxy7Method06invokeEv
      fun:_ZN19TGenCollectionProxy9PushProxyEPv
      fun:_ZN23TVirtualCollectionProxy8TPushPopC1EPS_Pv
   }
   {
      nldsfrg
      Memcheck:Leak
      fun:malloc
      fun:nldsfrg
      fun:nldsinit
      fun:nlstddt_do_alter_trace
      fun:nlstdggo
   }
   {
      TCint::SetClassInfo(TClass*,#bool)
      Memcheck:Leak
      fun:_Znwj
      fun:_ZN5TCint12SetClassInfoEP6TClassb
      fun:_ZN6TClass11SetUnloadedEv
      fun:_ZN4ROOT11RemoveClassEPKc
      fun:_ZNK4ROOT20TDefaultInitBehavior10UnregisterEPKc
   }
   {
      ROOT::TCollectionProxyInfo::Environ<__gnu_cxx::__normal_iterator<int*,#std::vector<int,#std::allocator<int>#>#>#>::Create()
      Memcheck:Leak
      fun:_Znwj
      fun:_ZN4ROOT20TCollectionProxyInfo7EnvironIN9__gnu_cxx17__normal_iteratorIPiSt6vectorIiSaIiEEEEE6CreateEv
      fun:_ZNK19TGenCollectionProxy7Method06invokeEv
      fun:_ZN19TGenCollectionProxy9PushProxyEPv
      fun:_ZN23TVirtualCollectionProxy8TPushPopC1EPS_Pv
   }
   {
      PyROOT::TMemoryRegulator::TMemoryRegulator()
      Memcheck:Leak
      fun:_Znwj
      fun:_ZN6PyROOT16TMemoryRegulatorC1Ev
      fun:_ZN6PyROOT8InitRootEv
      fun:initlibPyROOT
      fun:_PyImport_LoadDynamicModule
   }
   {
      __gnu_cxx::new_allocator<std::_Rb_tree_node<std::pair<std::basic_string<char,#std::char_traits<char>,#std::allocator<char>#>#const,#std::basic_string<char,#std::char_traits<char>,#std::allocator<char>#>#>#>#>::allocate(unsigned#int,#void#const*)
      Memcheck:Leak
      fun:_Znwj
      fun:_ZN9__gnu_cxx13new_allocatorISt13_Rb_tree_nodeISt4pairIKSsSsEEE8allocateEjPKv
      fun:_ZNSt8_Rb_treeISsSt4pairIKSsSsESt10_Select1stIS2_ESt4lessISsESaIS2_EE11_M_get_nodeEv
      fun:_ZNSt8_Rb_treeISsSt4pairIKSsSsESt10_Select1stIS2_ESt4lessISsESaIS2_EE14_M_create_nodeERKS2_
      fun:_ZNSt8_Rb_treeISsSt4pairIKSsSsESt10_Select1stIS2_ESt4lessISsESaIS2_EE9_M_insertEPSt18_Rb_tree_node_baseSA_RKS2_
   }
   {
      TStreamerInfo::Compile()
      Memcheck:Leak
      fun:_Znaj
      fun:_ZN13TStreamerInfo7CompileEv
      fun:_ZN13TStreamerInfo5BuildEv
      fun:_ZN11TBufferFile15ReadClassBufferEPK6TClassPvijjS2_
      fun:_ZN15TStreamerString8StreamerER7TBuffer
   }
   {
      boost::python::objects::py_function::py_function<boost::python::detail::caller<boost::python::detail::member<bool,#eformat::helper::StreamTag>,#boost::python::default_call_policies,#boost::mpl::vector3<void,#eformat::helper::StreamTag=,#bool#const=>#>#>(boost::python::detail::caller<boost::python::detail::member<bool,#eformat::helper::StreamTag>,#boost::python::default_call_policies,#boost::mpl::vector3<void,#eformat::helper::StreamTag=,#bool#const=>#>#const=)
      Memcheck:Leak
      fun:_Znwj
      fun:_ZN5boost6python7objects11py_functionC1INS0_6detail6callerINS4_6memberIbN7eformat6helper9StreamTagEEENS0_21default_call_policiesENS_3mpl7vector3IvRS9_RKbEEEEEERKT_
      fun:_ZN5boost6python6detail17make_function_auxINS1_6memberIbN7eformat6helper9StreamTagEEENS0_21default_call_policiesENS_3mpl7vector3IvRS6_RKbEEEENS0_3api6objectET_RKT0_RKT1_
      fun:_ZN5boost6python6detail22make_function_dispatchINS1_6memberIbN7eformat6helper9StreamTagEEENS0_21default_call_policiesENS_3mpl7vector3IvRS6_RKbEEEENS0_3api6objectET_RKT0_RKT1_N4mpl_5bool_ILb0EEE
      fun:_ZN5boost6python13make_functionINS0_6detail6memberIbN7eformat6helper9StreamTagEEENS0_21default_call_policiesENS_3mpl7vector3IvRS6_RKbEEEENS0_3api6objectET_RKT0_RKT1_
   }
   {
      std::pair<std::list<boost::list_edge<unsigned#int,#boost::property<boost::edge_index_t,#unsigned#int,#boost::property<boost::(anonymous#namespace)::edge_cast_t,#void*#(*)(void*),#boost::no_property>#>#>,#std::allocator<boost::list_edge<unsigned#int,#boost::property<boost::edge_index_t,#unsigned#int,#boost::property<boost::(anonymous#namespace)::edge_cast_t,#void*#(*)(void*),#boost::no_property>#>#>#>#>::iterator,#bool>#boost::graph_detail::push_dispatch<std::list<boost::list_edge<unsigned#int,#boost::property<boost::edge_index_t,#unsigned#int,#boost::property<boost::(anonymous#namespace)::edge_cast_t,#void*#(*)(void*),#boost::no_property>#>#>,#std::allocator<boost::list_edge<unsigned#int,#boost::property<boost::edge_index_t,#unsigned#int,#boost::property<boost::(anonymous#namespace)::edge_cast_t,#void*#(*)(void*),#boost::no_property>#>#>#>#>,#boost::list_edge<unsigned#int,#boost::property<boost::edge_index_t,#unsigned#int,#boost::property<boost::(anonymous#namespace)::edge_cast_t,#void*#(*)(void*),#boost::no_property>#>#>#>(std::list<boost::list_edge<unsigned#int,#boost::property<boost::edge_index_t,#unsigned#int,#boost::property<boost::(anonymous#namespace)::edge_cast_t,#void*#(*)(void*),#boost::no_property>#>#>,#std::allocator<boost::list_edge<unsigned#int,#boost::property<boost::edge_index_t,#unsigned#int,#boost::property<boost::(anonymous#namespace)::edge_cast_t,#void*#(*)(void*),#boost::no_property>#>#>#>#>=,#boost::list_edge<unsigned#int,#boost::property<boost::edge_index_t,#unsigned#int,#boost::property<boost::(anonymous#namespace)::edge_cast_t,#void*#(*)(void*),#boost::no_property>#>#>#const=,#boost::graph_detail::back_insertion_sequence_tag)
      Memcheck:Leak
      fun:_Znwj
      fun:_ZN5boost12graph_detail13push_dispatchISt4listINS_9list_edgeIjNS_8propertyINS_12edge_index_tEjNS4_INS_67_GLOBAL__N_libs_python_src_object_inheritance.cpp_CF14568D_462478FE11edge_cast_tEPFPvS8_ENS_11no_propertyEEEEEEESaISE_EESE_EESt4pairINT_8iteratorEbERSI_RKT0_NS0_27back_insertion_sequence_tagE
      fun:_ZN5boost12graph_detail4pushISt4listINS_9list_edgeIjNS_8propertyINS_12edge_index_tEjNS4_INS_67_GLOBAL__N_libs_python_src_object_inheritance.cpp_CF14568D_462478FE11edge_cast_tEPFPvS8_ENS_11no_propertyEEEEEEESaISE_EESE_EESt4pairINT_8iteratorEbERSI_RKT0_
      fun:_ZN5boost6python7objects8add_castENS0_9type_infoES2_PFPvS3_Eb
      fun:_ZN5boost6python7objects19register_conversionIN7eformat11ROBFragmentIPKjEENS3_6HeaderIS6_EEEEvbPT_PT0_
   }
   {
      Reflex::Environ<__gnu_cxx::__normal_iterator<CaloClusterContainer_p6::CaloCluster_p*,#std::vector<CaloClusterContainer_p6::CaloCluster_p,#std::allocator<CaloClusterContainer_p6::CaloCluster_p>#>#>#>::Create()
      Memcheck:Leak
      fun:_Znwj
      fun:_ZN6Reflex7EnvironIN9__gnu_cxx17__normal_iteratorIPN23CaloClusterContainer_p613CaloCluster_pESt6vectorIS4_SaIS4_EEEEE6CreateEv
      fun:_ZNK19TGenCollectionProxy7Method06invokeEv
      fun:_ZN19TGenCollectionProxy9PushProxyEPv
      fun:_ZN23TVirtualCollectionProxy8TPushPopC1EPS_Pv
   }
   {
      nlepeinit
      Memcheck:Leak
      fun:malloc
      fun:nlepeinit
      fun:nlstdggo
      fun:nlstdgg
      fun:nigini1
   }
   {
      boost::python::objects::py_function::py_function<boost::python::detail::caller<unsigned#int#(EventStorage::DataReader::*)()#const,#boost::python::default_call_policies,#boost::mpl::vector2<unsigned#int,#EventStorage::DataReader=>#>#>(boost::python::detail::caller<unsigned#int#(EventStorage::DataReader::*)()#const,#boost::python::default_call_policies,#boost::mpl::vector2<unsigned#int,#EventStorage::DataReader=>#>#const=)
      Memcheck:Leak
      fun:_Znwj
      fun:_ZN5boost6python7objects11py_functionC1INS0_6detail6callerIMN12EventStorage10DataReaderEKFjvENS0_21default_call_policiesENS_3mpl7vector2IjRS7_EEEEEERKT_
      fun:_ZN5boost6python6detail17make_function_auxIMN12EventStorage10DataReaderEKFjvENS0_21default_call_policiesENS_3mpl7vector2IjRS4_EEN4mpl_4int_ILi0EEEEENS0_3api6objectET_RKT0_RKT1_RKSt4pairIPKNS1_7keywordESR_ET2_
      fun:_ZN5boost6python13make_functionIMN12EventStorage10DataReaderEKFjvENS0_21default_call_policiesENS0_6detail8keywordsILj0EEENS_3mpl7vector2IjRS3_EEEENS0_3api6objectET_RKT0_RKT1_RKT2_
      fun:_ZN5boost6python6class_IN12EventStorage10DataReaderENS_10shared_ptrIS3_EENS_12noncopyable_11noncopyableENS0_6detail13not_specifiedEE8def_implIS3_MS3_KFjvENS8_10def_helperIPKcS9_S9_S9_EEEEvPT_SG_T0_RKT1_z
   }
   {
      lemrist
      Memcheck:Leak
      fun:malloc
      fun:lemrist
      fun:lpminitm
      fun:lpminit
      fun:LhtIntCreate
   }
   {
      Reflex::Environ<std::_Rb_tree_iterator<std::pair<std::basic_string<char,#std::char_traits<char>,#std::allocator<char>#>#const,#CaloRec::Arrayrep>#>#>::Create()
      Memcheck:Leak
      fun:_Znwj
      fun:_ZN6Reflex7EnvironISt17_Rb_tree_iteratorISt4pairIKSsN7CaloRec8ArrayrepEEEE6CreateEv
      fun:_ZNK19TGenCollectionProxy7Method06invokeEv
      fun:_ZN19TGenCollectionProxy9PushProxyEPv
      fun:_ZN23TVirtualCollectionProxy8TPushPopC1EPS_Pv
   }
   {
      __gnu_cxx::new_allocator<std::_List_node<std::basic_string<char,#std::char_traits<char>,#std::allocator<char>#>#>#>::allocate(unsigned#int,#void#const*)
      Memcheck:Leak
      fun:_Znwj
      fun:_ZN9__gnu_cxx13new_allocatorISt10_List_nodeISsEE8allocateEjPKv
      fun:_ZNSt10_List_baseISsSaISsEE11_M_get_nodeEv
      fun:_ZNSt4listISsSaISsEE14_M_create_nodeERKSs
      fun:_ZNSt4listISsSaISsEE9_M_insertESt14_List_iteratorISsERKSs
   }
   {
      std::basic_string<char,#std::char_traits<char>,#std::allocator<char>#>::_Rep::_S_create(unsigned#int,#unsigned#int,#std::allocator<char>#const=)
      Memcheck:Leak
      fun:_Znwj
      fun:_ZNSs4_Rep9_S_createEjjRKSaIcE
      obj:/usr/lib/libstdc++.so.6.0.3
      fun:_ZNSsC1EPKcjRKSaIcE
      fun:_ZN15ESLOriginalFile31readOptionalFreeMetaDataStringsEv
   }
   {
      __new_exitfn
      Memcheck:Leak
      fun:malloc
      fun:__new_exitfn
      fun:__cxa_atexit
      fun:_ZN4ROOT6Cintex17rootEnhancerInfosEv
      fun:_ZN4ROOT6Cintex21ROOTClassEnhancerInfoC1ERN6Reflex4TypeE
   }
   {
      nlififgbl
      Memcheck:Leak
      fun:malloc
      fun:nlififgbl
      fun:nlifigbl
      fun:nlstdggo
      fun:nlstdgg
   }
   {
      boost::python::objects::py_function::py_function<boost::python::detail::caller<eformat::helper::u32list#(*)(EventStorage::DataReader=),#boost::python::default_call_policies,#boost::mpl::vector2<eformat::helper::u32list,#EventStorage::DataReader=>#>#>(boost::python::detail::caller<eformat::helper::u32list#(*)(EventStorage::DataReader=),#boost::python::default_call_policies,#boost::mpl::vector2<eformat::helper::u32list,#EventStorage::DataReader=>#>#const=)
      Memcheck:Leak
      fun:_Znwj
      fun:_ZN5boost6python7objects11py_functionC1INS0_6detail6callerIPFN7eformat6helper7u32listERN12EventStorage10DataReaderEENS0_21default_call_policiesENS_3mpl7vector2IS8_SB_EEEEEERKT_
      fun:_ZN5boost6python6detail17make_function_auxIPFN7eformat6helper7u32listERN12EventStorage10DataReaderEENS0_21default_call_policiesENS_3mpl7vector2IS5_S8_EEN4mpl_4int_ILi0EEEEENS0_3api6objectET_RKT0_RKT1_RKSt4pairIPKNS1_7keywordESU_ET2_
      fun:_ZN5boost6python13make_functionIPFN7eformat6helper7u32listERN12EventStorage10DataReaderEENS0_21default_call_policiesENS0_6detail8keywordsILj0EEENS_3mpl7vector2IS4_S7_EEEENS0_3api6objectET_RKT0_RKT1_RKT2_
      fun:_ZN5boost6python6class_IN12EventStorage10DataReaderENS_10shared_ptrIS3_EENS_12noncopyable_11noncopyableENS0_6detail13not_specifiedEE8def_implIS3_PFN7eformat6helper7u32listERS3_ENS8_10def_helperIPKcS9_S9_S9_EEEEvPT_SK_T0_RKT1_z
   }
   {
      sktsfMalloc
      Memcheck:Leak
      fun:malloc
      fun:sktsfMalloc
      fun:kpummTLSGLOP
      fun:kpuesssa
      fun:kpushhsi
   }
   {
      nlpainzert
      Memcheck:Leak
      fun:malloc
      fun:nlpainzert
      fun:nlpaparse
      fun:nlpardfile
      fun:nlpains
   }
   {
      boost::python::objects::py_function::py_function<boost::python::detail::caller<void#(*)(_object*),#boost::python::default_call_policies,#boost::mpl::vector2<void,#_object*>#>#>(boost::python::detail::caller<void#(*)(_object*),#boost::python::default_call_policies,#boost::mpl::vector2<void,#_object*>#>#const=)
      Memcheck:Leak
      fun:_Znwj
      fun:_ZN5boost6python7objects11py_functionC1INS0_6detail6callerIPFvP7_objectENS0_21default_call_policiesENS_3mpl7vector2IvS7_EEEEEERKT_
      fun:_ZN5boost6python6detail17make_function_auxIPFvP7_objectENS0_21default_call_policiesENS_3mpl7vector2IvS4_EEN4mpl_4int_ILi0EEEEENS0_3api6objectET_RKT0_RKT1_RKSt4pairIPKNS1_7keywordESQ_ET2_
      fun:_ZN5boost6python6detail27make_keyword_range_functionIPFvP7_objectENS0_21default_call_policiesEEENS0_3api6objectET_RKT0_RKSt4pairIPKNS1_7keywordESH_E
      fun:_ZN5boost6python6detail30make_keyword_range_constructorINS_3mpl7vector0IN4mpl_2naEEENS3_4sizeIS7_EENS0_7objects12value_holderIN7eformat5write11ROBFragmentEEENS0_21default_call_policiesEEENS0_3api6objectERKT2_RKSt4pairIPKNS1_7keywordESP_EPT1_PT_PT0_
   }
   {
      ztcebf
      Memcheck:Cond
      fun:ztceb_unpadding
      fun:ztcebf
      fun:ztcef
      fun:ztcedec
      fun:ztvo5ed
   }
   {
      boost::python::objects::py_function::py_function<boost::python::detail::caller<unsigned#int#(eformat::Header<unsigned#int#const*>::*)()#const,#boost::python::default_call_policies,#boost::mpl::vector2<unsigned#int,#eformat::Header<unsigned#int#const*>=>#>#>(boost::python::detail::caller<unsigned#int#(eformat::Header<unsigned#int#const*>::*)()#const,#boost::python::default_call_policies,#boost::mpl::vector2<unsigned#int,#eformat::Header<unsigned#int#const*>=>#>#const=)
      Memcheck:Leak
      fun:_Znwj
      fun:_ZN5boost6python7objects11py_functionC1INS0_6detail6callerIMN7eformat6HeaderIPKjEEKFjvENS0_21default_call_policiesENS_3mpl7vector2IjRSA_EEEEEERKT_
      fun:_ZN5boost6python6detail17make_function_auxIMN7eformat6HeaderIPKjEEKFjvENS0_21default_call_policiesENS_3mpl7vector2IjRS7_EEN4mpl_4int_ILi0EEEEENS0_3api6objectET_RKT0_RKT1_RKSt4pairIPKNS1_7keywordESU_ET2_
      fun:_ZN5boost6python13make_functionIMN7eformat6HeaderIPKjEEKFjvENS0_21default_call_policiesENS0_6detail8keywordsILj0EEENS_3mpl7vector2IjRS6_EEEENS0_3api6objectET_RKT0_RKT1_RKT2_
      fun:_ZN5boost6python6class_IN7eformat6HeaderIPKjEENS_12noncopyable_11noncopyableENS0_6detail13not_specifiedESA_E8def_implIS6_MS6_KFjvENS9_10def_helperIPKcSA_SA_SA_EEEEvPT_SH_T0_RKT1_z
   }
   {
      boost::python::objects::py_function::py_function<boost::python::detail::caller<boost::python::objects::detail::py_iter_<std::vector<eformat::helper::StreamTag,#std::allocator<eformat::helper::StreamTag>#>,#__gnu_cxx::__normal_iterator<eformat::helper::StreamTag*,#std::vector<eformat::helper::StreamTag,#std::allocator<eformat::helper::StreamTag>#>#>,#boost::_bi::protected_bind_t<boost::_bi::bind_t<__gnu_cxx::__normal_iterator<eformat::helper::StreamTag*,#std::vector<eformat::helper::StreamTag,#std::allocator<eformat::helper::StreamTag>#>#>,#__gnu_cxx::__normal_iterator<eformat::helper::StreamTag*,#std::vector<eformat::helper::StreamTag,#std::allocator<eformat::helper::StreamTag>#>#>#(*)(std::vector<eformat::helper::StreamTag,#std::allocator<eformat::helper::StreamTag>#>=),#boost::_bi::list1<boost::arg<1>#(*)()>#>#>,#boost::_bi::protected_bind_t<boost::_bi::bind_t<__gnu_cxx::__normal_iterator<eformat::helper::StreamTag*,#std::vector<eformat::helper::StreamTag,#std::allocator<eformat::helper::StreamTag>#>#>,#__gnu_cxx::__normal_iterator<eformat::helper::StreamTag*,#std::vector<eformat::helper::StreamTag,#std::allocator<eformat::helper::StreamTag>#>#>#(*)(std::vector<eformat::helper::StreamTag,#std::allocator<eformat::helper::StreamTag>#>=),#boost::_bi::list1<boost::arg<1>#(*)()>#>#>,#boost::python::return_internal_reference<1u,#boost::python::default_call_policies>#>,#boost::python::default_call_policies,#boost::mpl::vector2<boost::python::objects::iterator_range<boost::python::return_internal_reference<1u,#boost::python::default_call_policies>,#__gnu_cxx::__normal_iterator<eformat::helper::StreamTag*,#std::vector<eformat::helper::StreamTag,#std::allocator<eformat::helper::StreamTag>#>#>#>,#boost::python::back_reference<std::vector<eformat::helper::StreamTag,#std::allocator<eformat::helper::StreamTag>#>=>#>#>#>(boost::python::detail::caller<boost::python::objects::detail::py_iter_<std::vector<eformat::helper::StreamTag,#std::allocator<eformat::helper::StreamTag>#>,#__gnu_cxx::__normal_iterator<eformat::helper::StreamTag*,#std::vector<eformat::helper::StreamTag,#std::allocator<eformat::helper::StreamTag>#>#>,#boost::_bi::protected_bind_t<boost::_bi::bind_t<__gnu_cxx::__normal_iterator<eformat::helper::StreamTag*,#std::vector<eformat::helper::StreamTag,#std::allocator<eformat::helper::StreamTag>#>#>,#__gnu_cxx::__normal_iterator<eformat::helper::StreamTag*,#std::vector<eformat::helper::StreamTag,#std::allocator<eformat::helper::StreamTag>#>#>#(*)(std::vector<eformat::helper::StreamTag,#std::allocator<eformat::helper::StreamTag>#>=),#boost::_bi::list1<boost::arg<1>#(*)()>#>#>,#boost::_bi::protected_bind_t<boost::_bi::bind_t<__gnu_cxx::__normal_iterator<eformat::helper::StreamTag*,#std::vector<eformat::helper::StreamTag,#std::allocator<eformat::helper::StreamTag>#>#>,#__gnu_cxx::__normal_iterator<eformat::helper::StreamTag*,#std::vector<eformat::helper::StreamTag,#std::allocator<eformat::helper::StreamTag>#>#>#(*)(std::vector<eformat::helper::StreamTag,#std::allocator<eformat::helper::StreamTag>#>=),#boost::_bi::list1<boost::arg<1>#(*)()>#>#>,#boost::python::return_internal_reference<1u,#boost::python::default_call_policies>#>,#boost::python::default_call_policies,#boost::mpl::vector2<boost::python::objects::iterator_range<boost::python::return_internal_reference<1u,#boost::python::default_call_policies>,#__gnu_cxx::__normal_iterator<eformat::helper::StreamTag*,#std::vector<eformat::helper::StreamTag,#std::allocator<eformat::helper::StreamTag>#>#>#>,#boost::python::back_reference<std::vector<eformat::helper::StreamTag,#std::allocator<eformat::helper::StreamTag>#>=>#>#>#const=)
      Memcheck:Leak
      fun:_Znwj
      fun:_ZN5boost6python7objects11py_functionC1INS0_6detail6callerINS1_6detail8py_iter_ISt6vectorIN7eformat6helper9StreamTagESaISB_EEN9__gnu_cxx17__normal_iteratorIPSB_SD_EENS_3_bi16protected_bind_tINSI_6bind_tISH_PFSH_RSD_ENSI_5list1IPFNS_3argILi1EEEvEEEEEEESV_NS0_25return_internal_referenceILj1ENS0_21default_call_policiesEEEEESX_NS_3mpl7vector2INS1_14iterator_rangeISY_SH_EENS0_14back_referenceISL_EEEEEEEERKT_
      fun:_ZN5boost6python6detail17make_function_auxINS0_7objects6detail8py_iter_ISt6vectorIN7eformat6helper9StreamTagESaIS9_EEN9__gnu_cxx17__normal_iteratorIPS9_SB_EENS_3_bi16protected_bind_tINSG_6bind_tISF_PFSF_RSB_ENSG_5list1IPFNS_3argILi1EEEvEEEEEEEST_NS0_25return_internal_referenceILj1ENS0_21default_call_policiesEEEEESV_NS_3mpl7vector2INS3_14iterator_rangeISW_SF_EENS0_14back_referenceISJ_EEEEEENS0_3api6objectET_RKT0_RKT1_
      fun:_ZN5boost6python6detail22make_function_dispatchINS0_7objects6detail8py_iter_ISt6vectorIN7eformat6helper9StreamTagESaIS9_EEN9__gnu_cxx17__normal_iteratorIPS9_SB_EENS_3_bi16protected_bind_tINSG_6bind_tISF_PFSF_RSB_ENSG_5list1IPFNS_3argILi1EEEvEEEEEEEST_NS0_25return_internal_referenceILj1ENS0_21default_call_policiesEEEEESV_NS_3mpl7vector2INS3_14iterator_rangeISW_SF_EENS0_14back_referenceISJ_EEEEEENS0_3api6objectET_RKT0_RKT1_N4mpl_5bool_ILb0EEE
      fun:_ZN5boost6python13make_functionINS0_7objects6detail8py_iter_ISt6vectorIN7eformat6helper9StreamTagESaIS8_EEN9__gnu_cxx17__normal_iteratorIPS8_SA_EENS_3_bi16protected_bind_tINSF_6bind_tISE_PFSE_RSA_ENSF_5list1IPFNS_3argILi1EEEvEEEEEEESS_NS0_25return_internal_referenceILj1ENS0_21default_call_policiesEEEEESU_NS_3mpl7vector2INS2_14iterator_rangeISV_SE_EENS0_14back_referenceISI_EEEEEENS0_3api6objectET_RKT0_RKT1_
   }
   {
      G__memfunc_para_setup
      Memcheck:Leak
      fun:malloc
      fun:G__memfunc_para_setup
      fun:G__parse_parameter_link
      fun:G__memfunc_setup_imp
      fun:G__memfunc_setup
   }
   {
      (anonymous#namespace)::CreateIntRefExecutor()
      Memcheck:Leak
      fun:_Znwj
      fun:_ZN38_GLOBAL__N__ZN6PyROOT14gExecFactoriesE20CreateIntRefExecutorEv
      fun:_ZN6PyROOT14CreateExecutorERKSs
      fun:_ZN6PyROOT13TMethodHolderINS_13TScopeAdapterENS_14TMemberAdapterEE13InitExecutor_ERPNS_9TExecutorE
      fun:_ZN6PyROOT13TMethodHolderINS_13TScopeAdapterENS_14TMemberAdapterEE10InitializeEv
   }
   {
      lpmmkpri
      Memcheck:Leak
      fun:malloc
      fun:lpmmkpri
      fun:lsfmai
      fun:lpmloadpkg
      fun:kpubalts
   }
   {
      Reflex::ClassBuilderImpl::AddEnum(char#const*,#char#const*,#std::type_info#const*,#unsigned#int)
      Memcheck:Leak
      fun:_Znwj
      fun:_ZN6Reflex16ClassBuilderImpl7AddEnumEPKcS2_PKSt9type_infoj
      fun:_ZN6Reflex12ClassBuilder7AddEnumEPKcS2_PKSt9type_infoj
      fun:_ZN83_GLOBAL__N_.._slc4_ia32_gcc34_dbg_dict_Reflex_ReflexDict_dict.cpp_EF105EC1_CEBF4A2A19__Reflex__Type_dictEv
      fun:_ZN83_GLOBAL__N_.._slc4_ia32_gcc34_dbg_dict_Reflex_ReflexDict_dict.cpp_EF105EC1_CEBF4A2A83_GLOBAL__N_.._slc4_ia32_gcc34_dbg_dict_Reflex_ReflexDict_dict.cpp_EF105EC1_CEBF4A2A12DictionariesC1Ev
   }
   {
      JobOptionsCatalogue::JobOptionsCatalogue()
      Memcheck:Leak
      fun:_Znwj
      fun:_ZN19JobOptionsCatalogueC1Ev
      fun:_ZN13JobOptionsSvcC1ERKSsP11ISvcLocator
      fun:_ZN10SvcFactoryI13JobOptionsSvcE6createERKSsP11ISvcLocator
      fun:_ZN67_GLOBAL__N_.._src_JobOptionsSvc_JobOptionsSvc.cpp_9D2164D3_1D26C1CA7FactoryI13JobOptionsSvcFP8IServiceSsP11ISvcLocatorEE4FuncEPvS8_RKSt6vectorIS8_SaIS8_EES8_
   }
   {
      Reflex::Environ<__gnu_cxx::__normal_iterator<LumiBlockRange_p1*,#std::vector<LumiBlockRange_p1,#std::allocator<LumiBlockRange_p1>#>#>#>::Create()
      Memcheck:Leak
      fun:_Znwj
      fun:_ZN6Reflex7EnvironIN9__gnu_cxx17__normal_iteratorIP17LumiBlockRange_p1St6vectorIS3_SaIS3_EEEEE6CreateEv
      fun:_ZNK19TGenCollectionProxy7Method06invokeEv
      fun:_ZN19TGenCollectionProxy9PushProxyEPv
      fun:_ZN23TVirtualCollectionProxy8TPushPopC1EPS_Pv
   }
   {
      PyObject_Malloc
      Memcheck:Leak
      fun:malloc
      fun:PyObject_Malloc
      fun:_PyObject_GC_Malloc
      fun:PyType_GenericAlloc
      fun:type_new
   }
   {
      boost::python::objects::py_function::py_function<boost::python::detail::caller<void#(*)(_object*,#std::basic_string<char,#std::char_traits<char>,#std::allocator<char>#>,#unsigned#int,#std::basic_string<char,#std::char_traits<char>,#std::allocator<char>#>,#std::basic_string<char,#std::char_traits<char>,#std::allocator<char>#>,#unsigned#int,#std::basic_string<char,#std::char_traits<char>,#std::allocator<char>#>,#std::basic_string<char,#std::char_traits<char>,#std::allocator<char>#>),#boost::python::default_call_policies,#boost::mpl::vector9<void,#_object*,#std::basic_string<char,#std::char_traits<char>,#std::allocator<char>#>,#unsigned#int,#std::basic_string<char,#std::char_traits<char>,#std::allocator<char>#>,#std::basic_string<char,#std::char_traits<char>,#std::allocator<char>#>,#unsigned#int,#std::basic_string<char,#std::char_traits<char>,#std::allocator<char>#>,#std::basic_string<char,#std::char_traits<char>,#std::allocator<char>#>#>#>#>(boost::python::detail::caller<void#(*)(_object*,#std::basic_string<char,#std::char_traits<char>,#std::allocator<char>#>,#unsigned#int,#std::basic_string<char,#std::char_traits<char>,#std::allocator<char>#>,#std::basic_string<char,#std::char_traits<char>,#std::allocator<char>#>,#unsigned#int,#std::basic_string<char,#std::char_traits<char>,#std::allocator<char>#>,#std::basic_string<char,#std::char_traits<char>,#std::allocator<char>#>),#boost::python::default_call_policies,#boost::mpl::vector9<void,#_object*,#std::basic_string<char,#std::char_traits<char>,#std::allocator<char>#>,#unsigned#int,#std::basic_string<char,#std::char_traits<char>,#std::allocator<char>#>,#std::basic_string<char,#std::char_traits<char>,#std::allocator<char>#>,#unsigned#int,#std::basic_string<char,#std::char_traits<char>,#std::allocator<char>#>,#std::basic_string<char,#std::char_traits<char>,#std::allocator<char>#>#>#>#const=)
      Memcheck:Leak
      fun:_Znwj
      fun:_ZN5boost6python7objects11py_functionC1INS0_6detail6callerIPFvP7_objectSsjSsSsjSsSsENS0_21default_call_policiesENS_3mpl7vector9IvS7_SsjSsSsjSsSsEEEEEERKT_
      fun:_ZN5boost6python6detail17make_function_auxIPFvP7_objectSsjSsSsjSsSsENS0_21default_call_policiesENS_3mpl7vector9IvS4_SsjSsSsjSsSsEEN4mpl_4int_ILi0EEEEENS0_3api6objectET_RKT0_RKT1_RKSt4pairIPKNS1_7keywordESQ_ET2_
      fun:_ZN5boost6python6detail27make_keyword_range_functionIPFvP7_objectSsjSsSsjSsSsENS0_21default_call_policiesEEENS0_3api6objectET_RKT0_RKSt4pairIPKNS1_7keywordESH_E
      fun:_ZN5boost6python6detail30make_keyword_range_constructorINS_3mpl10joint_viewINS1_5drop1INS1_9type_listISsjSsSsjSsNS0_8optionalISsSsjSsN4mpl_5void_ES9_S9_S9_S9_S9_S9_S9_S9_S9_S9_EES9_S9_S9_S9_S9_S9_S9_S9_S9_S9_EEEESA_EENS8_10integral_cIlLl7EEENS0_7objects12value_holderIN3daq11RawFileNameEEENS0_21default_call_policiesEEENS0_3api6objectERKT2_RKSt4pairIPKNS1_7keywordESU_EPT1_PT_PT0_
   }
   {
      dl_open_worker
      Memcheck:Leak
      fun:malloc
      fun:dl_open_worker
      fun:_dl_catch_error
      fun:_dl_open
      fun:dlopen_doit
   }
   {
      Reflex::TypeBuilder(char#const*,#unsigned#int)
      Memcheck:Leak
      fun:_Znwj
      fun:_ZN6Reflex11TypeBuilderEPKcj
      fun:_ZN6Reflex13TypeDistillerIN4ROOT6Cintex17NewDelFunctions_tEE3GetEv
      fun:_ZN6Reflex13TypeDistillerIPN4ROOT6Cintex17NewDelFunctions_tEE3GetEv
      fun:_ZN6Reflex7GetTypeIPN4ROOT6Cintex17NewDelFunctions_tEEERKNS_4TypeEv
   }
   {
      TCint::UpdateListOfTypes()
      Memcheck:Leak
      fun:_Znwj
      fun:_ZN5TCint17UpdateListOfTypesEv
      fun:_ZN5TROOT14GetListOfTypesEb
      fun:_ZNK5TROOT7GetTypeEPKcb
      fun:_ZN6TClass8GetClassEPKcbb
   }
   {
      boost::python::objects::py_function::py_function<boost::python::detail::caller<eformat::helper::u32slice#(*)(eformat::Header<unsigned#int#const*>#const=),#boost::python::with_custodian_and_ward_postcall<0u,#1u,#boost::python::default_call_policies>,#boost::mpl::vector2<eformat::helper::u32slice,#eformat::Header<unsigned#int#const*>#const=>#>#>(boost::python::detail::caller<eformat::helper::u32slice#(*)(eformat::Header<unsigned#int#const*>#const=),#boost::python::with_custodian_and_ward_postcall<0u,#1u,#boost::python::default_call_policies>,#boost::mpl::vector2<eformat::helper::u32slice,#eformat::Header<unsigned#int#const*>#const=>#>#const=)
      Memcheck:Leak
      fun:_Znwj
      fun:_ZN5boost6python7objects11py_functionC1INS0_6detail6callerIPFN7eformat6helper8u32sliceERKNS6_6HeaderIPKjEEENS0_32with_custodian_and_ward_postcallILj0ELj1ENS0_21default_call_policiesEEENS_3mpl7vector2IS8_SE_EEEEEERKT_
      fun:_ZN5boost6python6detail17make_function_auxIPFN7eformat6helper8u32sliceERKNS3_6HeaderIPKjEEENS0_32with_custodian_and_ward_postcallILj0ELj1ENS0_21default_call_policiesEEENS_3mpl7vector2IS5_SB_EEN4mpl_4int_ILi0EEEEENS0_3api6objectET_RKT0_RKT1_RKSt4pairIPKNS1_7keywordESZ_ET2_
      fun:_ZN5boost6python13make_functionIPFN7eformat6helper8u32sliceERKNS2_6HeaderIPKjEEENS0_32with_custodian_and_ward_postcallILj0ELj1ENS0_21default_call_policiesEEENS0_6detail8keywordsILj0EEENS_3mpl7vector2IS4_SA_EEEENS0_3api6objectET_RKT0_RKT1_RKT2_
      fun:_ZN5boost6python6class_IN7eformat6HeaderIPKjEENS_12noncopyable_11noncopyableENS0_6detail13not_specifiedESA_E8def_implIS6_PFNS2_6helper8u32sliceERKS6_ENS9_10def_helperINS0_32with_custodian_and_ward_postcallILj0ELj1ENS0_21default_call_policiesEEESA_SA_SA_EEEEvPT_PKcT0_RKT1_z
   }
   {
      nlrnini
      Memcheck:Leak
      fun:malloc
      fun:nlrnini
      fun:nlrngr
      fun:nlad_use_node
      fun:nladget
   }
   {
      boost::python::objects::py_function::py_function<boost::python::detail::caller<boost::python::detail::member<std::basic_string<char,#std::char_traits<char>,#std::allocator<char>#>,#eformat::helper::StreamTag>,#boost::python::default_call_policies,#boost::mpl::vector3<void,#eformat::helper::StreamTag=,#std::basic_string<char,#std::char_traits<char>,#std::allocator<char>#>#const=>#>#>(boost::python::detail::caller<boost::python::detail::member<std::basic_string<char,#std::char_traits<char>,#std::allocator<char>#>,#eformat::helper::StreamTag>,#boost::python::default_call_policies,#boost::mpl::vector3<void,#eformat::helper::StreamTag=,#std::basic_string<char,#std::char_traits<char>,#std::allocator<char>#>#const=>#>#const=)
      Memcheck:Leak
      fun:_Znwj
      fun:_ZN5boost6python7objects11py_functionC1INS0_6detail6callerINS4_6memberISsN7eformat6helper9StreamTagEEENS0_21default_call_policiesENS_3mpl7vector3IvRS9_RKSsEEEEEERKT_
      fun:_ZN5boost6python6detail17make_function_auxINS1_6memberISsN7eformat6helper9StreamTagEEENS0_21default_call_policiesENS_3mpl7vector3IvRS6_RKSsEEEENS0_3api6objectET_RKT0_RKT1_
      fun:_ZN5boost6python6detail22make_function_dispatchINS1_6memberISsN7eformat6helper9StreamTagEEENS0_21default_call_policiesENS_3mpl7vector3IvRS6_RKSsEEEENS0_3api6objectET_RKT0_RKT1_N4mpl_5bool_ILb0EEE
      fun:_ZN5boost6python13make_functionINS0_6detail6memberISsN7eformat6helper9StreamTagEEENS0_21default_call_policiesENS_3mpl7vector3IvRS6_RKSsEEEENS0_3api6objectET_RKT0_RKT1_
   }
   {
      G__incsetup_memfunc
      Memcheck:Leak
      fun:_Znwj
      fun:G__incsetup_memfunc
      fun:G__get_methodhandle_noerror
      fun:G__get_methodhandle
      fun:_ZN4Cint12G__ClassInfo9GetMethodEPKcS2_PlNS0_9MatchModeENS0_15InheritanceModeE
   }
   {
      boost::python::objects::py_function::py_function<boost::python::detail::caller<unsigned#int#(daq::RawFileName::*)(),#boost::python::default_call_policies,#boost::mpl::vector2<unsigned#int,#daq::RawFileName=>#>#>(boost::python::detail::caller<unsigned#int#(daq::RawFileName::*)(),#boost::python::default_call_policies,#boost::mpl::vector2<unsigned#int,#daq::RawFileName=>#>#const=)
      Memcheck:Leak
      fun:_Znwj
      fun:_ZN5boost6python7objects11py_functionC1INS0_6detail6callerIMN3daq11RawFileNameEFjvENS0_21default_call_policiesENS_3mpl7vector2IjRS7_EEEEEERKT_
      fun:_ZN5boost6python6detail17make_function_auxIMN3daq11RawFileNameEFjvENS0_21default_call_policiesENS_3mpl7vector2IjRS4_EEN4mpl_4int_ILi0EEEEENS0_3api6objectET_RKT0_RKT1_RKSt4pairIPKNS1_7keywordESR_ET2_
      fun:_ZN5boost6python13make_functionIMN3daq11RawFileNameEFjvENS0_21default_call_policiesENS0_6detail8keywordsILj0EEENS_3mpl7vector2IjRS3_EEEENS0_3api6objectET_RKT0_RKT1_RKT2_
      fun:_ZN5boost6python6class_IN3daq11RawFileNameENS0_6detail13not_specifiedES5_S5_E8def_implIS3_MS3_FjvENS4_10def_helperIPKcS5_S5_S5_EEEEvPT_SC_T0_RKT1_z
   }
   {
      Reflex::FunctionTypeBuilder(Reflex::Type#const=,#Reflex::Type#const=,#Reflex::Type#const=,#Reflex::Type#const=,#Reflex::Type#const=,#Reflex::Type#const=,#Reflex::Type#const=)
      Memcheck:Leak
      fun:_Znwj
      fun:_ZN6Reflex19FunctionTypeBuilderERKNS_4TypeES2_S2_S2_S2_S2_S2_
      fun:_ZN88_GLOBAL__N_.._i686_slc4_gcc34_dbg_dict_GaudiKernel_dictionary_dict.cpp_17E02520_101EBE7888_GLOBAL__N_.._i686_slc4_gcc34_dbg_dict_GaudiKernel_dictionary_dict.cpp_17E02520_101EBE7812DictionariesC1Ev
      fun:_Z41__static_initialization_and_destruction_0ii
      fun:_GLOBAL__I__ZN88_GLOBAL__N_.._i686_slc4_gcc34_dbg_dict_GaudiKernel_dictionary_dict.cpp_17E02520_101EBE784nsb0E
   }
   {
      TStorage::ObjectAlloc(unsigned#int)
      Memcheck:Leak
      fun:_Znwj
      fun:_ZN8TStorage11ObjectAllocEj
      fun:_ZN7TObjectnwEj
      fun:_ZN4TEnv8SetValueEPKcS1_9EEnvLevelS1_
      fun:_ZN14TReadEnvParser8KeyValueERK7TStringS2_S2_
   }
   {
      G__herits::operator[](int)
      Memcheck:Leak
      fun:malloc
      fun:_ZN9G__heritsixEi
      fun:G__inheritance_setup
      fun:G__cpp_setup_inheritanceG__Cont
      fun:G__cpp_setupG__Cont
   }
   {
      ROOT::TCollectionProxyInfo*#ROOT::TCollectionProxyInfo::Generate<ROOT::TCollectionProxyInfo::Pushback<std::vector<std::basic_string<char,#std::char_traits<char>,#std::allocator<char>#>,#std::allocator<std::basic_string<char,#std::char_traits<char>,#std::allocator<char>#>#>#>#>#>(ROOT::TCollectionProxyInfo::Pushback<std::vector<std::basic_string<char,#std::char_traits<char>,#std::allocator<char>#>,#std::allocator<std::basic_string<char,#std::char_traits<char>,#std::allocator<char>#>#>#>#>#const=)
      Memcheck:Leak
      fun:_Znwj
      fun:_ZN4ROOT20TCollectionProxyInfo8GenerateINS0_8PushbackISt6vectorISsSaISsEEEEEEPS0_RKT_
      fun:_ZN4ROOT25GenerateInitInstanceLocalEPKSt6vectorISsSaISsEE
      fun:_Z41__static_initialization_and_destruction_0ii
      fun:_GLOBAL__I__ZN4ROOT20GenerateInitInstanceEPK23TVirtualCollectionProxy
   }
   {
      xmalloc
      Memcheck:Leak
      fun:malloc
      fun:xmalloc
      fun:sh_set_lines_and_columns
      fun:_rl_get_screen_size
      fun:_rl_init_terminal_io
   }
   {
      G__allocvariable
      Memcheck:Leak
      fun:malloc
      fun:G__allocvariable
      fun:G__searchvariable
      fun:G__getvariable
      fun:G__getitem
   }
   {
      Reflex::ClassBuilderImpl::AddEnum(char#const*,#char#const*,#std::type_info#const*,#unsigned#int)
      Memcheck:Leak
      fun:_Znwj
      fun:_ZN6Reflex16ClassBuilderImpl7AddEnumEPKcS2_PKSt9type_infoj
      fun:_ZN6Reflex12ClassBuilder7AddEnumEPKcS2_PKSt9type_infoj
      fun:_ZN102_GLOBAL__N__ZN21T_AthenaRootConverterIN5CLHEP12HepGenMatrixE15OldHepGenMatrixE12CopyOldToNewERKS2_RS1_30__CLHEP__HepLorentzVector_dictEv
      fun:_ZN102_GLOBAL__N__ZN21T_AthenaRootConverterIN5CLHEP12HepGenMatrixE15OldHepGenMatrixE12CopyOldToNewERKS2_RS1_102_GLOBAL__N__ZN21T_AthenaRootConverterIN5CLHEP12HepGenMatrixE15OldHepGenMatrixE12CopyOldToNewERKS2_RS1_12DictionariesC1Ev
   }
   {
      Reflex::Environ<__gnu_cxx::__normal_iterator<AttrListIndexes*,#std::vector<AttrListIndexes,#std::allocator<AttrListIndexes>#>#>#>::Create()
      Memcheck:Leak
      fun:_Znwj
      fun:_ZN6Reflex7EnvironIN9__gnu_cxx17__normal_iteratorIP15AttrListIndexesSt6vectorIS3_SaIS3_EEEEE6CreateEv
      fun:_ZNK19TGenCollectionProxy7Method06invokeEv
      fun:_ZN19TGenCollectionProxy9PushProxyEPv
      fun:_ZN23TVirtualCollectionProxy8TPushPopC1EPS_Pv
   }
   {
      boost::python::objects::py_function::py_function<boost::python::detail::caller<eformat::helper::u32slice#(*)(eformat::helper::u32list#const=,#boost::python::slice#const=),#boost::python::with_custodian_and_ward_postcall<0u,#1u,#boost::python::default_call_policies>,#boost::mpl::vector3<eformat::helper::u32slice,#eformat::helper::u32list#const=,#boost::python::slice#const=>#>#>(boost::python::detail::caller<eformat::helper::u32slice#(*)(eformat::helper::u32list#const=,#boost::python::slice#const=),#boost::python::with_custodian_and_ward_postcall<0u,#1u,#boost::python::default_call_policies>,#boost::mpl::vector3<eformat::helper::u32slice,#eformat::helper::u32list#const=,#boost::python::slice#const=>#>#const=)
      Memcheck:Leak
      fun:_Znwj
      fun:_ZN5boost6python7objects11py_functionC1INS0_6detail6callerIPFN7eformat6helper8u32sliceERKNS7_7u32listERKNS0_5sliceEENS0_32with_custodian_and_ward_postcallILj0ELj1ENS0_21default_call_policiesEEENS_3mpl7vector3IS8_SB_SE_EEEEEERKT_
      fun:_ZN5boost6python6detail17make_function_auxIPFN7eformat6helper8u32sliceERKNS4_7u32listERKNS0_5sliceEENS0_32with_custodian_and_ward_postcallILj0ELj1ENS0_21default_call_policiesEEENS_3mpl7vector3IS5_S8_SB_EEN4mpl_4int_ILi0EEEEENS0_3api6objectET_RKT0_RKT1_RKSt4pairIPKNS1_7keywordESZ_ET2_
      fun:_ZN5boost6python13make_functionIPFN7eformat6helper8u32sliceERKNS3_7u32listERKNS0_5sliceEENS0_32with_custodian_and_ward_postcallILj0ELj1ENS0_21default_call_policiesEEENS0_6detail8keywordsILj0EEENS_3mpl7vector3IS4_S7_SA_EEEENS0_3api6objectET_RKT0_RKT1_RKT2_
      fun:_ZN5boost6python6class_IN7eformat6helper7u32listENS0_6detail13not_specifiedES6_S6_E8def_implIS4_PFNS3_8u32sliceERKS4_RKNS0_5sliceEENS5_10def_helperINS0_32with_custodian_and_ward_postcallILj0ELj1ENS0_21default_call_policiesEEES6_S6_S6_EEEEvPT_PKcT0_RKT1_z
   }
   {
      Reflex::TypedefTypeBuilder(char#const*,#Reflex::Type#const=)
      Memcheck:Leak
      fun:_Znwj
      fun:_ZN6Reflex18TypedefTypeBuilderEPKcRKNS_4TypeE
      fun:_Z41__static_initialization_and_destruction_0ii
      fun:_GLOBAL__I__ZN103_GLOBAL__N_.._i686_slc4_gcc34_dbg_dict_AthenaServices_AthenaServicesDict_gen_rflx.cpp_9D2164D3_9F196D4D9type_voidE
      obj:/afs/cern.ch/atlas/software/builds/nightlies/devval/AtlasCore/rel_5/Control/AthenaServices/i686-slc4-gcc34-dbg/libAthenaServicesDict.so
   }
   {
      PyInt_FromLong
      Memcheck:Leak
      fun:malloc
      fun:PyInt_FromLong
      fun:analyze_block
      fun:PySymtable_Build
      fun:PyAST_Compile
   }
   {
      boost::python::objects::py_function::py_function<boost::python::detail::caller<void#(*)(_object*,#std::basic_string<char,#std::char_traits<char>,#std::allocator<char>#>,#unsigned#int,#std::basic_string<char,#std::char_traits<char>,#std::allocator<char>#>),#boost::python::default_call_policies,#boost::mpl::vector5<void,#_object*,#std::basic_string<char,#std::char_traits<char>,#std::allocator<char>#>,#unsigned#int,#std::basic_string<char,#std::char_traits<char>,#std::allocator<char>#>#>#>#>(boost::python::detail::caller<void#(*)(_object*,#std::basic_string<char,#std::char_traits<char>,#std::allocator<char>#>,#unsigned#int,#std::basic_string<char,#std::char_traits<char>,#std::allocator<char>#>),#boost::python::default_call_policies,#boost::mpl::vector5<void,#_object*,#std::basic_string<char,#std::char_traits<char>,#std::allocator<char>#>,#unsigned#int,#std::basic_string<char,#std::char_traits<char>,#std::allocator<char>#>#>#>#const=)
      Memcheck:Leak
      fun:_Znwj
      fun:_ZN5boost6python7objects11py_functionC1INS0_6detail6callerIPFvP7_objectSsjSsENS0_21default_call_policiesENS_3mpl7vector5IvS7_SsjSsEEEEEERKT_
      fun:_ZN5boost6python6detail17make_function_auxIPFvP7_objectSsjSsENS0_21default_call_policiesENS_3mpl7vector5IvS4_SsjSsEEN4mpl_4int_ILi0EEEEENS0_3api6objectET_RKT0_RKT1_RKSt4pairIPKNS1_7keywordESQ_ET2_
      fun:_ZN5boost6python6detail27make_keyword_range_functionIPFvP7_objectSsjSsENS0_21default_call_policiesEEENS0_3api6objectET_RKT0_RKSt4pairIPKNS1_7keywordESH_E
      fun:_ZN5boost6python6detail30make_keyword_range_constructorINS_3mpl10joint_viewINS1_5drop1INS1_9type_listISsjNS0_8optionalISsN4mpl_5void_ES9_S9_S9_S9_S9_S9_S9_S9_S9_S9_S9_S9_S9_EES9_S9_S9_S9_S9_S9_S9_S9_S9_S9_S9_S9_S9_S9_EEEESA_EENS3_4sizeISD_EENS0_7objects12value_holderIN3daq11RawFileNameEEENS0_21default_call_policiesEEENS0_3api6objectERKT2_RKSt4pairIPKNS1_7keywordESU_EPT1_PT_PT0_
   }
   {
      dictresize
      Memcheck:Leak
      fun:malloc
      fun:dictresize
      fun:PyType_Ready
      fun:PyType_Ready
      fun:_Py_ReadyTypes
   }
   {
      __gnu_cxx::new_allocator<ROOT::TCollectionProxyInfo::EnvironBase*>::allocate(unsigned#int,#void#const*)
      Memcheck:Leak
      fun:_Znwj
      fun:_ZN9__gnu_cxx13new_allocatorIPN4ROOT20TCollectionProxyInfo11EnvironBaseEE8allocateEjPKv
      fun:_ZNSt12_Vector_baseIPN4ROOT20TCollectionProxyInfo11EnvironBaseESaIS3_EE11_M_allocateEj
      fun:_ZNSt6vectorIPN4ROOT20TCollectionProxyInfo11EnvironBaseESaIS3_EE13_M_insert_auxEN9__gnu_cxx17__normal_iteratorIPS3_S5_EERKS3_
      fun:_ZNSt6vectorIPN4ROOT20TCollectionProxyInfo11EnvironBaseESaIS3_EE9push_backERKS3_
   }
   {
      ROOT::TCollectionProxyInfo::Environ<__gnu_cxx::__normal_iterator<unsigned#int*,#std::vector<unsigned#int,#std::allocator<unsigned#int>#>#>#>::Create()
      Memcheck:Leak
      fun:_Znwj
      fun:_ZN4ROOT20TCollectionProxyInfo7EnvironIN9__gnu_cxx17__normal_iteratorIPjSt6vectorIjSaIjEEEEE6CreateEv
      fun:_ZNK19TGenCollectionProxy7Method06invokeEv
      fun:_ZN19TGenCollectionProxy9PushProxyEPv
      fun:_ZN23TVirtualCollectionProxy8TPushPopC1EPS_Pv
   }
   {
      boost::python::objects::py_function::py_function<boost::python::detail::caller<void#(*)(eformat::write::FullEventFragment=,#eformat::helper::u32list#const=),#boost::python::with_custodian_and_ward<1u,#2u,#boost::python::default_call_policies>,#boost::mpl::vector3<void,#eformat::write::FullEventFragment=,#eformat::helper::u32list#const=>#>#>(boost::python::detail::caller<void#(*)(eformat::write::FullEventFragment=,#eformat::helper::u32list#const=),#boost::python::with_custodian_and_ward<1u,#2u,#boost::python::default_call_policies>,#boost::mpl::vector3<void,#eformat::write::FullEventFragment=,#eformat::helper::u32list#const=>#>#const=)
      Memcheck:Leak
      fun:_Znwj
      fun:_ZN5boost6python7objects11py_functionC1INS0_6detail6callerIPFvRN7eformat5write17FullEventFragmentERKNS6_6helper7u32listEENS0_23with_custodian_and_wardILj1ELj2ENS0_21default_call_policiesEEENS_3mpl7vector3IvS9_SD_EEEEEERKT_
      fun:_ZN5boost6python6detail17make_function_auxIPFvRN7eformat5write17FullEventFragmentERKNS3_6helper7u32listEENS0_23with_custodian_and_wardILj1ELj2ENS0_21default_call_policiesEEENS_3mpl7vector3IvS6_SA_EEN4mpl_4int_ILi0EEEEENS0_3api6objectET_RKT0_RKT1_RKSt4pairIPKNS1_7keywordESY_ET2_
      fun:_ZN5boost6python13make_functionIPFvRN7eformat5write17FullEventFragmentERKNS2_6helper7u32listEENS0_23with_custodian_and_wardILj1ELj2ENS0_21default_call_policiesEEENS0_6detail8keywordsILj0EEENS_3mpl7vector3IvS5_S9_EEEENS0_3api6objectET_RKT0_RKT1_RKT2_
      fun:_ZN5boost6python6class_IN7eformat5write17FullEventFragmentENS0_6detail13not_specifiedES6_S6_E8def_implIS4_PFvRS4_RKNS2_6helper7u32listEENS5_10def_helperINS0_23with_custodian_and_wardILj1ELj2ENS0_21default_call_policiesEEES6_S6_S6_EEEEvPT_PKcT0_RKT1_z
   }
   {
      boost::python::objects::py_function::py_function<boost::python::detail::caller<eformat::helper::u32slice#(*)(eformat::ROBFragment<unsigned#int#const*>#const=),#boost::python::with_custodian_and_ward_postcall<0u,#1u,#boost::python::default_call_policies>,#boost::mpl::vector2<eformat::helper::u32slice,#eformat::ROBFragment<unsigned#int#const*>#const=>#>#>(boost::python::detail::caller<eformat::helper::u32slice#(*)(eformat::ROBFragment<unsigned#int#const*>#const=),#boost::python::with_custodian_and_ward_postcall<0u,#1u,#boost::python::default_call_policies>,#boost::mpl::vector2<eformat::helper::u32slice,#eformat::ROBFragment<unsigned#int#const*>#const=>#>#const=)
      Memcheck:Leak
      fun:_Znwj
      fun:_ZN5boost6python7objects11py_functionC1INS0_6detail6callerIPFN7eformat6helper8u32sliceERKNS6_11ROBFragmentIPKjEEENS0_32with_custodian_and_ward_postcallILj0ELj1ENS0_21default_call_policiesEEENS_3mpl7vector2IS8_SE_EEEEEERKT_
      fun:_ZN5boost6python6detail17make_function_auxIPFN7eformat6helper8u32sliceERKNS3_11ROBFragmentIPKjEEENS0_32with_custodian_and_ward_postcallILj0ELj1ENS0_21default_call_policiesEEENS_3mpl7vector2IS5_SB_EEN4mpl_4int_ILi0EEEEENS0_3api6objectET_RKT0_RKT1_RKSt4pairIPKNS1_7keywordESZ_ET2_
      fun:_ZN5boost6python13make_functionIPFN7eformat6helper8u32sliceERKNS2_11ROBFragmentIPKjEEENS0_32with_custodian_and_ward_postcallILj0ELj1ENS0_21default_call_policiesEEENS0_6detail8keywordsILj0EEENS_3mpl7vector2IS4_SA_EEEENS0_3api6objectET_RKT0_RKT1_RKT2_
      fun:_ZN5boost6python6class_IN7eformat11ROBFragmentIPKjEENS0_5basesINS2_6HeaderIS5_EEN4mpl_5void_ESB_SB_SB_SB_SB_SB_SB_SB_EENS0_6detail13not_specifiedESE_E8def_implIS6_PFNS2_6helper8u32sliceERKS6_ENSD_10def_helperINS0_32with_custodian_and_ward_postcallILj0ELj1ENS0_21default_call_policiesEEESE_SE_SE_EEEEvPT_PKcT0_RKT1_z
   }
   {
      boost::python::objects::py_function::py_function<boost::python::detail::caller<void#(*)(_object*,#std::basic_string<char,#std::char_traits<char>,#std::allocator<char>#>,#unsigned#int,#std::basic_string<char,#std::char_traits<char>,#std::allocator<char>#>,#std::basic_string<char,#std::char_traits<char>,#std::allocator<char>#>,#unsigned#int,#std::basic_string<char,#std::char_traits<char>,#std::allocator<char>#>),#boost::python::default_call_policies,#boost::mpl::vector8<void,#_object*,#std::basic_string<char,#std::char_traits<char>,#std::allocator<char>#>,#unsigned#int,#std::basic_string<char,#std::char_traits<char>,#std::allocator<char>#>,#std::basic_string<char,#std::char_traits<char>,#std::allocator<char>#>,#unsigned#int,#std::basic_string<char,#std::char_traits<char>,#std::allocator<char>#>#>#>#>(boost::python::detail::caller<void#(*)(_object*,#std::basic_string<char,#std::char_traits<char>,#std::allocator<char>#>,#unsigned#int,#std::basic_string<char,#std::char_traits<char>,#std::allocator<char>#>,#std::basic_string<char,#std::char_traits<char>,#std::allocator<char>#>,#unsigned#int,#std::basic_string<char,#std::char_traits<char>,#std::allocator<char>#>),#boost::python::default_call_policies,#boost::mpl::vector8<void,#_object*,#std::basic_string<char,#std::char_traits<char>,#std::allocator<char>#>,#unsigned#int,#std::basic_string<char,#std::char_traits<char>,#std::allocator<char>#>,#std::basic_string<char,#std::char_traits<char>,#std::allocator<char>#>,#unsigned#int,#std::basic_string<char,#std::char_traits<char>,#std::allocator<char>#>#>#>#const=)
      Memcheck:Leak
      fun:_Znwj
      fun:_ZN5boost6python7objects11py_functionC1INS0_6detail6callerIPFvP7_objectSsjSsSsjSsENS0_21default_call_policiesENS_3mpl7vector8IvS7_SsjSsSsjSsEEEEEERKT_
      fun:_ZN5boost6python6detail17make_function_auxIPFvP7_objectSsjSsSsjSsENS0_21default_call_policiesENS_3mpl7vector8IvS4_SsjSsSsjSsEEN4mpl_4int_ILi0EEEEENS0_3api6objectET_RKT0_RKT1_RKSt4pairIPKNS1_7keywordESQ_ET2_
      fun:_ZN5boost6python6detail27make_keyword_range_functionIPFvP7_objectSsjSsSsjSsENS0_21default_call_policiesEEENS0_3api6objectET_RKT0_RKSt4pairIPKNS1_7keywordESH_E
      fun:_ZN5boost6python6detail30make_keyword_range_constructorINS_3mpl10joint_viewINS1_5drop1INS1_9type_listISsjSsSsjSsNS0_8optionalISsSsjSsN4mpl_5void_ES9_S9_S9_S9_S9_S9_S9_S9_S9_S9_EES9_S9_S9_S9_S9_S9_S9_S9_S9_S9_EEEESA_EENS8_10integral_cIlLl6EEENS0_7objects12value_holderIN3daq11RawFileNameEEENS0_21default_call_policiesEEENS0_3api6objectERKT2_RKSt4pairIPKNS1_7keywordESU_EPT1_PT_PT0_
   }
   {
      pwrite64
      Memcheck:Param
      pwrite64(buf)
      fun:pwrite64
      fun:__os_io
      obj:/lib/tls/i686/libdb-4.2.so
      fun:__memp_bhwrite
      fun:__memp_sync_int
   }
   {
      (anonymous#namespace)::CreateFloatConverter(long)
      Memcheck:Leak
      fun:_Znwj
      fun:_ZN38_GLOBAL__N__ZN6PyROOT14gConvFactoriesE20CreateFloatConverterEl
      fun:_ZN6PyROOT15CreateConverterERKSsl
      fun:_ZN6PyROOT13PropertyProxy3SetEP11TDataMember
      fun:_ZN6PyROOT17PropertyProxy_NewINS_14TMemberAdapterEEEPNS_13PropertyProxyERKT_
   }
   {
      boost::python::objects::py_function::py_function<boost::python::detail::caller<eformat::SubDetector#(eformat::helper::SourceIdentifier::*)()#const,#boost::python::default_call_policies,#boost::mpl::vector2<eformat::SubDetector,#eformat::helper::SourceIdentifier=>#>#>(boost::python::detail::caller<eformat::SubDetector#(eformat::helper::SourceIdentifier::*)()#const,#boost::python::default_call_policies,#boost::mpl::vector2<eformat::SubDetector,#eformat::helper::SourceIdentifier=>#>#const=)
      Memcheck:Leak
      fun:_Znwj
      fun:_ZN5boost6python7objects11py_functionC1INS0_6detail6callerIMN7eformat6helper16SourceIdentifierEKFNS6_11SubDetectorEvENS0_21default_call_policiesENS_3mpl7vector2IS9_RS8_EEEEEERKT_
      fun:_ZN5boost6python6detail17make_function_auxIMN7eformat6helper16SourceIdentifierEKFNS3_11SubDetectorEvENS0_21default_call_policiesENS_3mpl7vector2IS6_RS5_EEN4mpl_4int_ILi0EEEEENS0_3api6objectET_RKT0_RKT1_RKSt4pairIPKNS1_7keywordEST_ET2_
      fun:_ZN5boost6python13make_functionIMN7eformat6helper16SourceIdentifierEKFNS2_11SubDetectorEvENS0_21default_call_policiesENS0_6detail8keywordsILj0EEENS_3mpl7vector2IS5_RS4_EEEENS0_3api6objectET_RKT0_RKT1_RKT2_
      fun:_ZN5boost6python6class_IN7eformat6helper16SourceIdentifierENS0_6detail13not_specifiedES6_S6_E8def_implIS4_MS4_KFNS2_11SubDetectorEvENS5_10def_helperIPKcS6_S6_S6_EEEEvPT_SE_T0_RKT1_z
   }
   {
      Reflex::Environ<__gnu_cxx::__normal_iterator<TileMu_p1*,#std::vector<TileMu_p1,#std::allocator<TileMu_p1>#>#>#>::Create()
      Memcheck:Leak
      fun:_Znwj
      fun:_ZN6Reflex7EnvironIN9__gnu_cxx17__normal_iteratorIP9TileMu_p1St6vectorIS3_SaIS3_EEEEE6CreateEv
      fun:_ZNK19TGenCollectionProxy7Method06invokeEv
      fun:_ZN19TGenCollectionProxy9PushProxyEPv
      fun:_ZN23TVirtualCollectionProxy8TPushPopC1EPS_Pv
   }
   {
      TStorage::Alloc(unsigned#int)
      Memcheck:Leak
      fun:_Znaj
      fun:_ZN8TStorage5AllocEj
      fun:_ZN9TObjArray4InitEii
      fun:_ZN9TObjArrayC1Eii
      fun:_ZN12TApplication10GetOptionsEPiPPc
   }
   {
      ztceb_encblk
      Memcheck:Value4
      fun:ztceaencbk
      fun:ztceb_encblk
      fun:ztcebn
      fun:ztcen
      fun:ztvo5pe
   }
   {
      Reflex::FunctionTypeBuilder(Reflex::Type#const=,#Reflex::Type#const=,#Reflex::Type#const=,#Reflex::Type#const=,#Reflex::Type#const=,#Reflex::Type#const=,#Reflex::Type#const=,#Reflex::Type#const=,#Reflex::Type#const=,#Reflex::Type#const=,#Reflex::Type#const=)
      Memcheck:Leak
      fun:_Znwj
      fun:_ZN6Reflex19FunctionTypeBuilderERKNS_4TypeES2_S2_S2_S2_S2_S2_S2_S2_S2_S2_
      fun:_ZN84_GLOBAL__N_.._i686_slc4_gcc34_dbg_dict_GaudiPython_kernel_dict.cpp_9D2164D3_B5DBB98A34__GaudiHistos_GaudiAlgorithm__dictEv
      fun:_ZN84_GLOBAL__N_.._i686_slc4_gcc34_dbg_dict_GaudiPython_kernel_dict.cpp_9D2164D3_B5DBB98A84_GLOBAL__N_.._i686_slc4_gcc34_dbg_dict_GaudiPython_kernel_dict.cpp_9D2164D3_B5DBB98A12DictionariesC1Ev
      fun:_Z41__static_initialization_and_destruction_0ii
   }
   {
      (anonymous#namespace)::CreateULongExecutor()
      Memcheck:Leak
      fun:_Znwj
      fun:_ZN38_GLOBAL__N__ZN6PyROOT14gExecFactoriesE19CreateULongExecutorEv
      fun:_ZN6PyROOT14CreateExecutorERKSs
      fun:_ZN6PyROOT13TMethodHolderINS_13TScopeAdapterENS_14TMemberAdapterEE13InitExecutor_ERPNS_9TExecutorE
      fun:_ZN6PyROOT13TMethodHolderINS_13TScopeAdapterENS_14TMemberAdapterEE10InitializeEv
   }
   {
      ###obj:#lib#libcrypto.so.0.9.7a
      Memcheck:Leak
      fun:malloc
      obj:/lib/libcrypto.so.0.9.7a
      fun:CRYPTO_malloc
      fun:lh_insert
      fun:OBJ_NAME_add
   }
   {
      nigini1
      Memcheck:Leak
      fun:calloc
      fun:nigini1
      fun:niqname
      fun:kwfnran
      fun:kwfcinit
   }
   {
      Reflex::ScopeName::ScopeName(char#const*,#Reflex::ScopeBase*)
      Memcheck:Leak
      fun:_Znwj
      fun:_ZN6Reflex9ScopeNameC1EPKcPNS_9ScopeBaseE
      fun:_ZN6Reflex11TypeBuilderEPKcj
      fun:_Z41__static_initialization_and_destruction_0ii
      fun:_GLOBAL__I__ZN4cool6PyCool7Helpers10IObjectPtrEPNS_7IObjectE
   }
   {
      TStorage::ReAlloc(void*,#unsigned#int,#unsigned#int)
      Memcheck:Leak
      fun:_Znaj
      fun:_ZN8TStorage7ReAllocEPvjj
      fun:_ZN9TObjArray6ExpandEi
      fun:_ZN9TObjArray8StreamerER7TBuffer
      fun:_ZNK6TClass8StreamerEPvR7TBufferPKS_
   }
   {
      slslameta
      Memcheck:Leak
      fun:malloc
      fun:slslameta
      fun:lpminitm
      fun:lpminit
      fun:LhtIntCreate
   }
   {
      G__EOFfgetc
      Memcheck:Leak
      fun:calloc
      fun:G__EOFfgetc
      fun:G__fgetc
      fun:G__exec_statement
      fun:G__loadfile_tmpfile
   }
   {
      (anonymous#namespace)::CreateDoubleConverter(long)
      Memcheck:Leak
      fun:_Znwj
      fun:_ZN38_GLOBAL__N__ZN6PyROOT14gConvFactoriesE21CreateDoubleConverterEl
      fun:_ZN6PyROOT15CreateConverterERKSsl
      fun:_ZN6PyROOT13TMethodHolderINS_13TScopeAdapterENS_14TMemberAdapterEE13InitCallFunc_Ev
      fun:_ZN6PyROOT13TMethodHolderINS_13TScopeAdapterENS_14TMemberAdapterEE10InitializeEv
   }
   {
      boost::python::objects::(anonymous#namespace)::not_implemented_function()
      Memcheck:Leak
      fun:_Znwj
      fun:_ZN5boost6python7objects64_GLOBAL__N_libs_python_src_object_function.cpp_CF14568D_F81E9B3224not_implemented_functionEv
      fun:_ZN5boost6python7objects8function16add_to_namespaceERKNS0_3api6objectEPKcS6_S8_
      fun:_ZN5boost6python7objects16add_to_namespaceERKNS0_3api6objectEPKcS5_S7_
      fun:_ZN5boost6python6class_IN7eformat6helper9StreamTagENS0_6detail13not_specifiedES6_S6_E8def_implIS4_PFP7_objectRS4_RKS4_ENS5_10def_helperIPKcS6_S6_S6_EEEEvPT_SI_T0_RKT1_z
   }
   {
      PyObject_Malloc
      Memcheck:Leak
      fun:malloc
      fun:PyObject_Malloc
      fun:_PyObject_GC_Malloc
      fun:_PyObject_GC_NewVar
      fun:PyTuple_New
   }
   {
      Reflex::MemberBase::MemberBase(char#const*,#Reflex::Type#const=,#Reflex::TYPE,#unsigned#int)
      Memcheck:Leak
      fun:_Znwj
      fun:_ZN6Reflex10MemberBaseC2EPKcRKNS_4TypeENS_4TYPEEj
      fun:_ZN6Reflex14FunctionMemberC1EPKcRKNS_4TypeEPFvPvS6_RKSt6vectorIS6_SaIS6_EES6_ES6_S2_jNS_4TYPEE
      fun:_ZNK6Reflex9ScopeBase17AddFunctionMemberEPKcRKNS_4TypeEPFvPvS6_RKSt6vectorIS6_SaIS6_EES6_ES6_S2_j
      fun:_ZNK6Reflex5Class17AddFunctionMemberEPKcRKNS_4TypeEPFvPvS6_RKSt6vectorIS6_SaIS6_EES6_ES6_S2_j
   }
   {
      _dl_lookup_symbol_x
      Memcheck:Leak
      fun:realloc
      fun:_dl_lookup_symbol_x
      fun:_dl_relocate_object
      fun:dl_open_worker
      fun:_dl_catch_error
   }
   {
      boost::python::objects::py_function::py_function<boost::python::detail::caller<unsigned#short#(eformat::helper::SourceIdentifier::*)()#const,#boost::python::default_call_policies,#boost::mpl::vector2<unsigned#short,#eformat::helper::SourceIdentifier=>#>#>(boost::python::detail::caller<unsigned#short#(eformat::helper::SourceIdentifier::*)()#const,#boost::python::default_call_policies,#boost::mpl::vector2<unsigned#short,#eformat::helper::SourceIdentifier=>#>#const=)
      Memcheck:Leak
      fun:_Znwj
      fun:_ZN5boost6python7objects11py_functionC1INS0_6detail6callerIMN7eformat6helper16SourceIdentifierEKFtvENS0_21default_call_policiesENS_3mpl7vector2ItRS8_EEEEEERKT_
      fun:_ZN5boost6python6detail17make_function_auxIMN7eformat6helper16SourceIdentifierEKFtvENS0_21default_call_policiesENS_3mpl7vector2ItRS5_EEN4mpl_4int_ILi0EEEEENS0_3api6objectET_RKT0_RKT1_RKSt4pairIPKNS1_7keywordESS_ET2_
      fun:_ZN5boost6python13make_functionIMN7eformat6helper16SourceIdentifierEKFtvENS0_21default_call_policiesENS0_6detail8keywordsILj0EEENS_3mpl7vector2ItRS4_EEEENS0_3api6objectET_RKT0_RKT1_RKT2_
      fun:_ZN5boost6python6class_IN7eformat6helper16SourceIdentifierENS0_6detail13not_specifiedES6_S6_E8def_implIS4_MS4_KFtvENS5_10def_helperIPKcS6_S6_S6_EEEEvPT_SD_T0_RKT1_z
   }
   {
      G__malloc
      Memcheck:Leak
      fun:calloc
      fun:G__malloc
      fun:_Z16G__alloc_var_refIlPFl8G__valueEEviT0_PcP12G__var_arrayiRS0_
      fun:G__allocvariable
      fun:G__letvariable
   }
   {
      boost::python::objects::py_function::py_function<boost::python::detail::caller<eformat::TagType#(*)(std::basic_string<char,#std::char_traits<char>,#std::allocator<char>#>#const=),#boost::python::default_call_policies,#boost::mpl::vector2<eformat::TagType,#std::basic_string<char,#std::char_traits<char>,#std::allocator<char>#>#const=>#>#>(boost::python::detail::caller<eformat::TagType#(*)(std::basic_string<char,#std::char_traits<char>,#std::allocator<char>#>#const=),#boost::python::default_call_policies,#boost::mpl::vector2<eformat::TagType,#std::basic_string<char,#std::char_traits<char>,#std::allocator<char>#>#const=>#>#const=)
      Memcheck:Leak
      fun:_Znwj
      fun:_ZN5boost6python7objects11py_functionC1INS0_6detail6callerIPFN7eformat7TagTypeERKSsENS0_21default_call_policiesENS_3mpl7vector2IS7_S9_EEEEEERKT_
      fun:_ZN5boost6python6detail17make_function_auxIPFN7eformat7TagTypeERKSsENS0_21default_call_policiesENS_3mpl7vector2IS4_S6_EEEENS0_3api6objectET_RKT0_RKT1_
      fun:_ZN5boost6python13make_functionIPFN7eformat7TagTypeERKSsEEENS0_3api6objectET_
      fun:_ZN5boost6python6detail14make_function1IPFN7eformat7TagTypeERKSsEEENS0_3api6objectET_z
   }
   {
      std::basic_string<char,#std::char_traits<char>,#std::allocator<char>#>::_Rep::_S_create(unsigned#int,#unsigned#int,#std::allocator<char>#const=)
      Memcheck:Leak
      fun:_Znwj
      fun:_ZNSs4_Rep9_S_createEjjRKSaIcE
      obj:/usr/lib/libstdc++.so.6.0.3
      fun:_ZNSsC1EPKcRKSaIcE
      fun:_ZN6Reflex8TypeNameC1EPKcPNS_8TypeBaseEPKSt9type_info
   }
   {
      (anonymous#namespace)::CreateFloatArrayConverter(long)
      Memcheck:Leak
      fun:_Znwj
      fun:_ZN38_GLOBAL__N__ZN6PyROOT14gConvFactoriesE25CreateFloatArrayConverterEl
      fun:_ZN6PyROOT15CreateConverterERKSsl
      fun:_ZN6PyROOT13PropertyProxy3SetEP11TDataMember
      fun:_ZN6PyROOT17PropertyProxy_NewINS_14TMemberAdapterEEEPNS_13PropertyProxyERKT_
   }
   {
      Reflex::ClassBuilderImpl::AddEnum(char#const*,#char#const*,#std::type_info#const*,#unsigned#int)
      Memcheck:Leak
      fun:_Znwj
      fun:_ZN6Reflex16ClassBuilderImpl7AddEnumEPKcS2_PKSt9type_infoj
      fun:_ZN6Reflex12ClassBuilder7AddEnumEPKcS2_PKSt9type_infoj
      fun:_ZN88_GLOBAL__N_.._i686_slc4_gcc34_dbg_dict_GaudiKernel_dictionary_dict.cpp_17E02520_101EBE7817__IConverter_dictEv
      fun:_ZN88_GLOBAL__N_.._i686_slc4_gcc34_dbg_dict_GaudiKernel_dictionary_dict.cpp_17E02520_101EBE7888_GLOBAL__N_.._i686_slc4_gcc34_dbg_dict_GaudiKernel_dictionary_dict.cpp_17E02520_101EBE7812DictionariesC1Ev
   }
   {
      Reflex::TypeBuilder(char#const*,#unsigned#int)
      Memcheck:Leak
      fun:_Znwj
      fun:_ZN6Reflex11TypeBuilderEPKcj
      fun:_Z41__static_initialization_and_destruction_0ii
      fun:_GLOBAL__I__ZN21AtlasSTLAddReflexDict16m_pair_int_floatE
      obj:/afs/cern.ch/atlas/software/builds/nightlies/devval/AtlasCore/rel_5/Database/AtlasSTLAddReflex/i686-slc4-gcc34-dbg/libAtlasSTLAddReflexDict.so
   }
   {
      G__readansiproto
      Memcheck:Leak
      fun:malloc
      fun:G__readansiproto
      fun:G__make_ifunctable
      fun:G__define_var
      fun:G__defined_type
   }
   {
      boost::python::objects::py_function::py_function<boost::python::detail::caller<void#(*)(_object*,#unsigned#int),#boost::python::default_call_policies,#boost::mpl::vector3<void,#_object*,#unsigned#int>#>#>(boost::python::detail::caller<void#(*)(_object*,#unsigned#int),#boost::python::default_call_policies,#boost::mpl::vector3<void,#_object*,#unsigned#int>#>#const=)
      Memcheck:Leak
      fun:_Znwj
      fun:_ZN5boost6python7objects11py_functionC1INS0_6detail6callerIPFvP7_objectjENS0_21default_call_policiesENS_3mpl7vector3IvS7_jEEEEEERKT_
      fun:_ZN5boost6python6detail17make_function_auxIPFvP7_objectjENS0_21default_call_policiesENS_3mpl7vector3IvS4_jEEN4mpl_4int_ILi0EEEEENS0_3api6objectET_RKT0_RKT1_RKSt4pairIPKNS1_7keywordESQ_ET2_
      fun:_ZN5boost6python6detail27make_keyword_range_functionIPFvP7_objectjENS0_21default_call_policiesEEENS0_3api6objectET_RKT0_RKSt4pairIPKNS1_7keywordESH_E
      fun:_ZN5boost6python6detail30make_keyword_range_constructorINS_3mpl7vector1IjEENS3_4sizeIS5_EENS0_7objects12value_holderIN7eformat6helper6StatusEEENS0_21default_call_policiesEEENS0_3api6objectERKT2_RKSt4pairIPKNS1_7keywordESN_EPT1_PT_PT0_
   }
   {
      Reflex::FunctionTypeBuilder(Reflex::Type#const=,#Reflex::Type#const=,#Reflex::Type#const=,#Reflex::Type#const=,#Reflex::Type#const=,#Reflex::Type#const=)
      Memcheck:Leak
      fun:_Znwj
      fun:_ZN6Reflex19FunctionTypeBuilderERKNS_4TypeES2_S2_S2_S2_S2_
      fun:_ZN60_GLOBAL__N__ZN4cool6PyCool7Helpers10IObjectPtrEPNS_7IObjectE22__cool__IDatabase_dictEv
      fun:_ZN60_GLOBAL__N__ZN4cool6PyCool7Helpers10IObjectPtrEPNS_7IObjectE60_GLOBAL__N__ZN4cool6PyCool7Helpers10IObjectPtrEPNS_7IObjectE12DictionariesC1Ev
      fun:_Z41__static_initialization_and_destruction_0ii
   }
   {
      boost::python::objects::py_function::py_function<boost::python::detail::caller<unsigned#short#(*)(eformat::Header<unsigned#int#const*>#const=),#boost::python::default_call_policies,#boost::mpl::vector2<unsigned#short,#eformat::Header<unsigned#int#const*>#const=>#>#>(boost::python::detail::caller<unsigned#short#(*)(eformat::Header<unsigned#int#const*>#const=),#boost::python::default_call_policies,#boost::mpl::vector2<unsigned#short,#eformat::Header<unsigned#int#const*>#const=>#>#const=)
      Memcheck:Leak
      fun:_Znwj
      fun:_ZN5boost6python7objects11py_functionC1INS0_6detail6callerIPFtRKN7eformat6HeaderIPKjEEENS0_21default_call_policiesENS_3mpl7vector2ItSC_EEEEEERKT_
      fun:_ZN5boost6python6detail17make_function_auxIPFtRKN7eformat6HeaderIPKjEEENS0_21default_call_policiesENS_3mpl7vector2ItS9_EEN4mpl_4int_ILi0EEEEENS0_3api6objectET_RKT0_RKT1_RKSt4pairIPKNS1_7keywordESV_ET2_
      fun:_ZN5boost6python13make_functionIPFtRKN7eformat6HeaderIPKjEEENS0_21default_call_policiesENS0_6detail8keywordsILj0EEENS_3mpl7vector2ItS8_EEEENS0_3api6objectET_RKT0_RKT1_RKT2_
      fun:_ZN5boost6python6class_IN7eformat6HeaderIPKjEENS_12noncopyable_11noncopyableENS0_6detail13not_specifiedESA_E8def_implIS6_PFtRKS6_ENS9_10def_helperIPKcSA_SA_SA_EEEEvPT_SJ_T0_RKT1_z
   }
   {
      __gnu_cxx::new_allocator<std::_Rb_tree_node<std::pair<std::basic_string<char,#std::char_traits<char>,#std::allocator<char>#>#const,#ers::PluginManager::SharedLibrary*>#>#>::allocate(unsigned#int,#void#const*)
      Memcheck:Leak
      fun:_Znwj
      fun:_ZN9__gnu_cxx13new_allocatorISt13_Rb_tree_nodeISt4pairIKSsPN3ers13PluginManager13SharedLibraryEEEE8allocateEjPKv
      fun:_ZNSt8_Rb_treeISsSt4pairIKSsPN3ers13PluginManager13SharedLibraryEESt10_Select1stIS6_ESt4lessISsESaIS6_EE11_M_get_nodeEv
      fun:_ZNSt8_Rb_treeISsSt4pairIKSsPN3ers13PluginManager13SharedLibraryEESt10_Select1stIS6_ESt4lessISsESaIS6_EE14_M_create_nodeERKS6_
      fun:_ZNSt8_Rb_treeISsSt4pairIKSsPN3ers13PluginManager13SharedLibraryEESt10_Select1stIS6_ESt4lessISsESaIS6_EE9_M_insertEPSt18_Rb_tree_node_baseSE_RKS6_
   }
   {
      boost::python::objects::py_function::py_function<boost::python::detail::caller<eformat::helper::SourceIdentifier#(*)(eformat::write::FullEventFragment#const=),#boost::python::default_call_policies,#boost::mpl::vector2<eformat::helper::SourceIdentifier,#eformat::write::FullEventFragment#const=>#>#>(boost::python::detail::caller<eformat::helper::SourceIdentifier#(*)(eformat::write::FullEventFragment#const=),#boost::python::default_call_policies,#boost::mpl::vector2<eformat::helper::SourceIdentifier,#eformat::write::FullEventFragment#const=>#>#const=)
      Memcheck:Leak
      fun:_Znwj
      fun:_ZN5boost6python7objects11py_functionC1INS0_6detail6callerIPFN7eformat6helper16SourceIdentifierERKNS6_5write17FullEventFragmentEENS0_21default_call_policiesENS_3mpl7vector2IS8_SC_EEEEEERKT_
      fun:_ZN5boost6python6detail17make_function_auxIPFN7eformat6helper16SourceIdentifierERKNS3_5write17FullEventFragmentEENS0_21default_call_policiesENS_3mpl7vector2IS5_S9_EEN4mpl_4int_ILi0EEEEENS0_3api6objectET_RKT0_RKT1_RKSt4pairIPKNS1_7keywordESV_ET2_
      fun:_ZN5boost6python13make_functionIPFN7eformat6helper16SourceIdentifierERKNS2_5write17FullEventFragmentEENS0_21default_call_policiesENS0_6detail8keywordsILj0EEENS_3mpl7vector2IS4_S8_EEEENS0_3api6objectET_RKT0_RKT1_RKT2_
      fun:_ZN5boost6python6class_IN7eformat5write17FullEventFragmentENS0_6detail13not_specifiedES6_S6_E8def_implIS4_PFNS2_6helper16SourceIdentifierERKS4_ENS5_10def_helperIPKcS6_S6_S6_EEEEvPT_SH_T0_RKT1_z
   }
   {
      boost::python::objects::py_function::py_function<boost::python::detail::caller<std::basic_string<char,#std::char_traits<char>,#std::allocator<char>#>#(daq::RawFileName::*)(),#boost::python::default_call_policies,#boost::mpl::vector2<std::basic_string<char,#std::char_traits<char>,#std::allocator<char>#>,#daq::RawFileName=>#>#>(boost::python::detail::caller<std::basic_string<char,#std::char_traits<char>,#std::allocator<char>#>#(daq::RawFileName::*)(),#boost::python::default_call_policies,#boost::mpl::vector2<std::basic_string<char,#std::char_traits<char>,#std::allocator<char>#>,#daq::RawFileName=>#>#const=)
      Memcheck:Leak
      fun:_Znwj
      fun:_ZN5boost6python7objects11py_functionC1INS0_6detail6callerIMN3daq11RawFileNameEFSsvENS0_21default_call_policiesENS_3mpl7vector2ISsRS7_EEEEEERKT_
      fun:_ZN5boost6python6detail17make_function_auxIMN3daq11RawFileNameEFSsvENS0_21default_call_policiesENS_3mpl7vector2ISsRS4_EEN4mpl_4int_ILi0EEEEENS0_3api6objectET_RKT0_RKT1_RKSt4pairIPKNS1_7keywordESR_ET2_
      fun:_ZN5boost6python13make_functionIMN3daq11RawFileNameEFSsvENS0_21default_call_policiesENS0_6detail8keywordsILj0EEENS_3mpl7vector2ISsRS3_EEEENS0_3api6objectET_RKT0_RKT1_RKT2_
      fun:_ZN5boost6python6class_IN3daq11RawFileNameENS0_6detail13not_specifiedES5_S5_E8def_implIS3_MS3_FSsvENS4_10def_helperIPKcS5_S5_S5_EEEEvPT_SC_T0_RKT1_z
   }
   {
      G__add_setup_func
      Memcheck:Leak
      fun:malloc
      fun:G__add_setup_func
      fun:_ZN29G__cpp_setup_initG__MetaUtilsC1Ev
      fun:_Z41__static_initialization_and_destruction_0ii
      fun:_GLOBAL__I_G__set_cpp_environmentG__MetaUtils
   }
   {
      boost::python::objects::py_function::py_function<boost::python::detail::caller<eformat::ROBFragment<unsigned#int#const*>#(*)(eformat::FullEventFragment<unsigned#int#const*>#const=,#unsigned#int),#boost::python::with_custodian_and_ward_postcall<0u,#1u,#boost::python::default_call_policies>,#boost::mpl::vector3<eformat::ROBFragment<unsigned#int#const*>,#eformat::FullEventFragment<unsigned#int#const*>#const=,#unsigned#int>#>#>(boost::python::detail::caller<eformat::ROBFragment<unsigned#int#const*>#(*)(eformat::FullEventFragment<unsigned#int#const*>#const=,#unsigned#int),#boost::python::with_custodian_and_ward_postcall<0u,#1u,#boost::python::default_call_policies>,#boost::mpl::vector3<eformat::ROBFragment<unsigned#int#const*>,#eformat::FullEventFragment<unsigned#int#const*>#const=,#unsigned#int>#>#const=)
      Memcheck:Leak
      fun:_Znwj
      fun:_ZN5boost6python7objects11py_functionC1INS0_6detail6callerIPFN7eformat11ROBFragmentIPKjEERKNS6_17FullEventFragmentIS9_EEjENS0_32with_custodian_and_ward_postcallILj0ELj1ENS0_21default_call_policiesEEENS_3mpl7vector3ISA_SE_jEEEEEERKT_
      fun:_ZN5boost6python6detail17make_function_auxIPFN7eformat11ROBFragmentIPKjEERKNS3_17FullEventFragmentIS6_EEjENS0_32with_custodian_and_ward_postcallILj0ELj1ENS0_21default_call_policiesEEENS_3mpl7vector3IS7_SB_jEEN4mpl_4int_ILi0EEEEENS0_3api6objectET_RKT0_RKT1_RKSt4pairIPKNS1_7keywordESZ_ET2_
      fun:_ZN5boost6python13make_functionIPFN7eformat11ROBFragmentIPKjEERKNS2_17FullEventFragmentIS5_EEjENS0_32with_custodian_and_ward_postcallILj0ELj1ENS0_21default_call_policiesEEENS0_6detail8keywordsILj0EEENS_3mpl7vector3IS6_SA_jEEEENS0_3api6objectET_RKT0_RKT1_RKT2_
      fun:_ZN5boost6python6class_IN7eformat17FullEventFragmentIPKjEENS_10shared_ptrIS6_EENS0_5basesINS2_6HeaderIS5_EEN4mpl_5void_ESD_SD_SD_SD_SD_SD_SD_SD_EENS0_6detail13not_specifiedEE8def_implIS6_PFNS2_11ROBFragmentIS5_EERKS6_jENSF_10def_helperINS0_32with_custodian_and_ward_postcallILj0ELj1ENS0_21default_call_policiesEEESG_SG_SG_EEEEvPT_PKcT0_RKT1_z
   }
   {
      TStringRef::GetRep(int,#int)
      Memcheck:Leak
      fun:_Znaj
      fun:_ZN10TStringRef6GetRepEii
      fun:_ZN7TString7ReplaceEiiPKci
      fun:_ZN7TStringaSEPKc
      fun:_ZN14TPluginHandlerC1EPKcS1_S1_S1_S1_S1_
   }
   {
      SimpleProperty<std::basic_string<char,#std::char_traits<char>,#std::allocator<char>#>,#BoundedVerifier<std::basic_string<char,#std::char_traits<char>,#std::allocator<char>#>#>#>::SimpleProperty(std::basic_string<char,#std::char_traits<char>,#std::allocator<char>#>#const=,#std::basic_string<char,#std::char_traits<char>,#std::allocator<char>#>#const=,#BoundedVerifier<std::basic_string<char,#std::char_traits<char>,#std::allocator<char>#>#>)
      Memcheck:Leak
      fun:_Znwj
      fun:_ZN14SimplePropertyISs15BoundedVerifierISsEEC1ERKSsS4_S1_
      fun:_ZN13JobOptionsSvc22addPropertyToCatalogueERKSsRK8Property
      fun:_ZN88_GLOBAL__N_.._i686_slc4_gcc34_dbg_dict_GaudiKernel_dictionary_dict.cpp_17E02520_101EBE7811method_5581EPvS0_RKSt6vectorIS0_SaIS0_EES0_
      fun:_ZN4ROOT6Cintex24Method_stub_with_contextEPNS0_13StubContext_tEP8G__valuePKcP8G__parami
   }
   {
      TGenCollectionProxy::TGenCollectionProxy(TGenCollectionProxy#const=)
      Memcheck:Leak
      fun:_Znwj
      fun:_ZN19TGenCollectionProxyC2ERKS_
      fun:_ZN15TGenVectorProxyC1ERK19TGenCollectionProxy
      fun:_ZNK19TGenCollectionProxy8GenerateEv
      fun:_ZN14TBranchElement4InitEP5TTreeP7TBranchPKcP13TStreamerInfoiPciii
   }
   {
      Reflex::FunctionTypeBuilder(Reflex::Type#const=,#Reflex::Type#const=,#Reflex::Type#const=,#Reflex::Type#const=,#Reflex::Type#const=,#Reflex::Type#const=,#Reflex::Type#const=,#Reflex::Type#const=,#Reflex::Type#const=,#Reflex::Type#const=,#Reflex::Type#const=,#Reflex::Type#const=,#Reflex::Type#const=)
      Memcheck:Leak
      fun:_Znwj
      fun:_ZN6Reflex19FunctionTypeBuilderERKNS_4TypeES2_S2_S2_S2_S2_S2_S2_S2_S2_S2_S2_S2_
      fun:_ZN84_GLOBAL__N_.._i686_slc4_gcc34_dbg_dict_GaudiPython_kernel_dict.cpp_9D2164D3_B5DBB98A34__GaudiHistos_GaudiAlgorithm__dictEv
      fun:_ZN84_GLOBAL__N_.._i686_slc4_gcc34_dbg_dict_GaudiPython_kernel_dict.cpp_9D2164D3_B5DBB98A84_GLOBAL__N_.._i686_slc4_gcc34_dbg_dict_GaudiPython_kernel_dict.cpp_9D2164D3_B5DBB98A12DictionariesC1Ev
      fun:_Z41__static_initialization_and_destruction_0ii
   }
   {
      TClassTable::SortTable()
      Memcheck:Leak
      fun:_Znaj
      fun:_ZN11TClassTable9SortTableEv
      fun:_ZN11TClassTable4InitEv
      fun:_ZN9RootUtils15ScanForAbstract10initializeEv
      fun:_ZN21AthenaRootStreamerSvc10initializeEv
   }
   {
      _nc_doalloc
      Memcheck:Leak
      fun:realloc
      fun:_nc_doalloc
      fun:_nc_read_file_entry
      fun:_nc_read_tic_entry
      fun:_nc_read_terminfo_dirs
   }
   {
      boost::python::objects::py_function::py_function<boost::python::detail::caller<unsigned#int#(eformat::helper::Version::*)()#const,#boost::python::default_call_policies,#boost::mpl::vector2<unsigned#int,#eformat::helper::Version=>#>#>(boost::python::detail::caller<unsigned#int#(eformat::helper::Version::*)()#const,#boost::python::default_call_policies,#boost::mpl::vector2<unsigned#int,#eformat::helper::Version=>#>#const=)
      Memcheck:Leak
      fun:_Znwj
      fun:_ZN5boost6python7objects11py_functionC1INS0_6detail6callerIMN7eformat6helper7VersionEKFjvENS0_21default_call_policiesENS_3mpl7vector2IjRS8_EEEEEERKT_
      fun:_ZN5boost6python6detail17make_function_auxIMN7eformat6helper7VersionEKFjvENS0_21default_call_policiesENS_3mpl7vector2IjRS5_EEN4mpl_4int_ILi0EEEEENS0_3api6objectET_RKT0_RKT1_RKSt4pairIPKNS1_7keywordESS_ET2_
      fun:_ZN5boost6python13make_functionIMN7eformat6helper7VersionEKFjvENS0_21default_call_policiesENS0_6detail8keywordsILj0EEENS_3mpl7vector2IjRS4_EEEENS0_3api6objectET_RKT0_RKT1_RKT2_
      fun:_ZN5boost6python6class_IN7eformat6helper7VersionENS0_6detail13not_specifiedES6_S6_E8def_implIS4_MS4_KFjvENS5_10def_helperIPKcS6_S6_S6_EEEEvPT_SD_T0_RKT1_z
   }
   {
      Reflex::Environ<__gnu_cxx::__normal_iterator<std::pair<unsigned#int,#LAruA2MeVP>*,#std::vector<std::pair<unsigned#int,#LAruA2MeVP>,#std::allocator<std::pair<unsigned#int,#LAruA2MeVP>#>#>#>#>::Create()
      Memcheck:Leak
      fun:_Znwj
      fun:_ZN6Reflex7EnvironIN9__gnu_cxx17__normal_iteratorIPSt4pairIj10LAruA2MeVPESt6vectorIS5_SaIS5_EEEEE6CreateEv
      fun:_ZNK19TGenCollectionProxy7Method06invokeEv
      fun:_ZN19TGenCollectionProxy9PushProxyEPv
      fun:_ZN23TVirtualCollectionProxy8TPushPopC1EPS_Pv
   }
   {
      boost::python::objects::py_function::py_function<boost::python::detail::caller<unsigned#short#(eformat::write::ROBFragment::*)()#const,#boost::python::default_call_policies,#boost::mpl::vector2<unsigned#short,#eformat::write::ROBFragment=>#>#>(boost::python::detail::caller<unsigned#short#(eformat::write::ROBFragment::*)()#const,#boost::python::default_call_policies,#boost::mpl::vector2<unsigned#short,#eformat::write::ROBFragment=>#>#const=)
      Memcheck:Leak
      fun:_Znwj
      fun:_ZN5boost6python7objects11py_functionC1INS0_6detail6callerIMN7eformat5write11ROBFragmentEKFtvENS0_21default_call_policiesENS_3mpl7vector2ItRS8_EEEEEERKT_
      fun:_ZN5boost6python6detail17make_function_auxIMN7eformat5write11ROBFragmentEKFtvENS0_21default_call_policiesENS_3mpl7vector2ItRS5_EEN4mpl_4int_ILi0EEEEENS0_3api6objectET_RKT0_RKT1_RKSt4pairIPKNS1_7keywordESS_ET2_
      fun:_ZN5boost6python13make_functionIMN7eformat5write11ROBFragmentEKFtvENS0_21default_call_policiesENS0_6detail8keywordsILj0EEENS_3mpl7vector2ItRS4_EEEENS0_3api6objectET_RKT0_RKT1_RKT2_
      fun:_ZN5boost6python6class_IN7eformat5write11ROBFragmentENS0_6detail13not_specifiedES6_S6_E8def_implIS4_MS4_KFtvENS5_10def_helperIPKcS6_S6_S6_EEEEvPT_SD_T0_RKT1_z
   }
   {
      TArrayI::Set(int)
      Memcheck:Leak
      fun:_Znaj
      fun:_ZN7TArrayI3SetEi
      fun:_ZN6TColor10SetPaletteEiPi
      fun:_ZN6TColor16InitializeColorsEv
      fun:_ZN12TApplication18InitializeGraphicsEv
   }
   {
      boost::python::objects::py_function::py_function<boost::python::detail::caller<std::basic_string<char,#std::char_traits<char>,#std::allocator<char>#>#(*)(eformat::RunType#const=),#boost::python::default_call_policies,#boost::mpl::vector2<std::basic_string<char,#std::char_traits<char>,#std::allocator<char>#>,#eformat::RunType#const=>#>#>(boost::python::detail::caller<std::basic_string<char,#std::char_traits<char>,#std::allocator<char>#>#(*)(eformat::RunType#const=),#boost::python::default_call_policies,#boost::mpl::vector2<std::basic_string<char,#std::char_traits<char>,#std::allocator<char>#>,#eformat::RunType#const=>#>#const=)
      Memcheck:Leak
      fun:_Znwj
      fun:_ZN5boost6python7objects11py_functionC1INS0_6detail6callerIPFSsRKN7eformat7RunTypeEENS0_21default_call_policiesENS_3mpl7vector2ISsS9_EEEEEERKT_
      fun:_ZN5boost6python6detail17make_function_auxIPFSsRKN7eformat7RunTypeEENS0_21default_call_policiesENS_3mpl7vector2ISsS6_EEEENS0_3api6objectET_RKT0_RKT1_
      fun:_ZN5boost6python13make_functionIPFSsRKN7eformat7RunTypeEEEENS0_3api6objectET_
      fun:_ZN5boost6python6detail14make_function1IPFSsRKN7eformat7RunTypeEEEENS0_3api6objectET_z
   }
   {
      Athena::Callback1Rep<Athena::SharedLibrary::LibraryInfo#const=>*#Athena::CreateCallback<Athena::SharedLibrary::LibraryInfo#const=,#int>(void#(*)(Athena::SharedLibrary::LibraryInfo#const=,#int),#int#const=)
      Memcheck:Leak
      fun:_Znwj
      fun:_ZN6Athena14CreateCallbackIRKNS_13SharedLibrary11LibraryInfoEiEEPNS_12Callback1RepIT_EEPFvS6_T0_ERKS9_
      fun:_ZN6Athena6Signal11handleFatalEPKciPFbiP7siginfoPvEPFviS4_S5_Ej
      fun:_ZN14AthenaServices15SetFatalHandlerEi
      fun:_ZN103_GLOBAL__N_.._i686_slc4_gcc34_dbg_dict_AthenaServices_AthenaServicesDict_gen_rflx.cpp_9D2164D3_9F196D4D11method_3725EPvS0_RKSt6vectorIS0_SaIS0_EES0_
   }
   {
      __gnu_cxx::new_allocator<std::_List_node<void#(*)()>#>::allocate(unsigned#int,#void#const*)
      Memcheck:Leak
      fun:_Znwj
      fun:_ZN9__gnu_cxx13new_allocatorISt10_List_nodeIPFvvEEE8allocateEjPKv
      fun:_ZNSt10_List_baseIPFvvESaIS1_EE11_M_get_nodeEv
      fun:_ZNSt4listIPFvvESaIS1_EE14_M_create_nodeERKS1_
      fun:_ZNSt4listIPFvvESaIS1_EE9_M_insertESt14_List_iteratorIS1_ERKS1_
   }
   {
      boost::python::objects::py_function::py_function<boost::python::detail::caller<void#(*)(_object*,#std::basic_string<char,#std::char_traits<char>,#std::allocator<char>#>,#unsigned#int,#std::basic_string<char,#std::char_traits<char>,#std::allocator<char>#>,#std::basic_string<char,#std::char_traits<char>,#std::allocator<char>#>,#unsigned#int,#std::basic_string<char,#std::char_traits<char>,#std::allocator<char>#>,#std::basic_string<char,#std::char_traits<char>,#std::allocator<char>#>,#std::basic_string<char,#std::char_traits<char>,#std::allocator<char>#>),#boost::python::default_call_policies,#boost::mpl::vector10<void,#_object*,#std::basic_string<char,#std::char_traits<char>,#std::allocator<char>#>,#unsigned#int,#std::basic_string<char,#std::char_traits<char>,#std::allocator<char>#>,#std::basic_string<char,#std::char_traits<char>,#std::allocator<char>#>,#unsigned#int,#std::basic_string<char,#std::char_traits<char>,#std::allocator<char>#>,#std::basic_string<char,#std::char_traits<char>,#std::allocator<char>#>,#std::basic_string<char,#std::char_traits<char>,#std::allocator<char>#>#>#>#>(boost::python::detail::caller<void#(*)(_object*,#std::basic_string<char,#std::char_traits<char>,#std::allocator<char>#>,#unsigned#int,#std::basic_string<char,#std::char_traits<char>,#std::allocator<char>#>,#std::basic_string<char,#std::char_traits<char>,#std::allocator<char>#>,#unsigned#int,#std::basic_string<char,#std::char_traits<char>,#std::allocator<char>#>,#std::basic_string<char,#std::char_traits<char>,#std::allocator<char>#>,#std::basic_string<char,#std::char_traits<char>,#std::allocator<char>#>),#boost::python::default_call_policies,#boost::mpl::vector10<void,#_object*,#std::basic_string<char,#std::char_traits<char>,#std::allocator<char>#>,#unsigned#int,#std::basic_string<char,#std::char_traits<char>,#std::allocator<char>#>,#std::basic_string<char,#std::char_traits<char>,#std::allocator<char>#>,#unsigned#int,#std::basic_string<char,#std::char_traits<char>,#std::allocator<char>#>,#std::basic_string<char,#std::char_traits<char>,#std::allocator<char>#>,#std::basic_string<char,#std::char_traits<char>,#std::allocator<char>#>#>#>#const=)
      Memcheck:Leak
      fun:_Znwj
      fun:_ZN5boost6python7objects11py_functionC1INS0_6detail6callerIPFvP7_objectSsjSsSsjSsSsSsENS0_21default_call_policiesENS_3mpl8vector10IvS7_SsjSsSsjSsSsSsEEEEEERKT_
      fun:_ZN5boost6python6detail17make_function_auxIPFvP7_objectSsjSsSsjSsSsSsENS0_21default_call_policiesENS_3mpl8vector10IvS4_SsjSsSsjSsSsSsEEN4mpl_4int_ILi0EEEEENS0_3api6objectET_RKT0_RKT1_RKSt4pairIPKNS1_7keywordESQ_ET2_
      fun:_ZN5boost6python6detail27make_keyword_range_functionIPFvP7_objectSsjSsSsjSsSsSsENS0_21default_call_policiesEEENS0_3api6objectET_RKT0_RKSt4pairIPKNS1_7keywordESH_E
      fun:_ZN5boost6python6detail30make_keyword_range_constructorINS_3mpl10joint_viewINS1_5drop1INS1_9type_listISsjSsSsjSsNS0_8optionalISsSsjSsN4mpl_5void_ES9_S9_S9_S9_S9_S9_S9_S9_S9_S9_EES9_S9_S9_S9_S9_S9_S9_S9_S9_S9_EEEESA_EENS8_10integral_cIlLl8EEENS0_7objects12value_holderIN3daq11RawFileNameEEENS0_21default_call_policiesEEENS0_3api6objectERKT2_RKSt4pairIPKNS1_7keywordESU_EPT1_PT_PT0_
   }
   {
      TCint::CreateListOfMethodArgs(TFunction*)
      Memcheck:Leak
      fun:_Znwj
      fun:_ZN5TCint22CreateListOfMethodArgsEP9TFunction
      fun:_ZN9TFunction19GetListOfMethodArgsEv
      fun:_ZNK6PyROOT14TMemberAdapter19FunctionParameterAtEj
      fun:_ZN6PyROOT13TMethodHolderINS_13TScopeAdapterENS_14TMemberAdapterEE11GetPriorityEv
   }
   {
      Reflex::FunctionTypeBuilder(Reflex::Type#const=,#Reflex::Type#const=,#Reflex::Type#const=,#Reflex::Type#const=,#Reflex::Type#const=,#Reflex::Type#const=,#Reflex::Type#const=,#Reflex::Type#const=,#Reflex::Type#const=)
      Memcheck:Leak
      fun:_Znwj
      fun:_ZN6Reflex19FunctionTypeBuilderERKNS_4TypeES2_S2_S2_S2_S2_S2_S2_S2_
      fun:_ZN84_GLOBAL__N_.._i686_slc4_gcc34_dbg_dict_GaudiPython_kernel_dict.cpp_9D2164D3_B5DBB98A17__IHistoTool_dictEv
      fun:_ZN84_GLOBAL__N_.._i686_slc4_gcc34_dbg_dict_GaudiPython_kernel_dict.cpp_9D2164D3_B5DBB98A84_GLOBAL__N_.._i686_slc4_gcc34_dbg_dict_GaudiPython_kernel_dict.cpp_9D2164D3_B5DBB98A12DictionariesC1Ev
      fun:_Z41__static_initialization_and_destruction_0ii
   }
   {
      Reflex::Environ<__gnu_cxx::__normal_iterator<TileDigits_p1*,#std::vector<TileDigits_p1,#std::allocator<TileDigits_p1>#>#>#>::Create()
      Memcheck:Leak
      fun:_Znwj
      fun:_ZN6Reflex7EnvironIN9__gnu_cxx17__normal_iteratorIP13TileDigits_p1St6vectorIS3_SaIS3_EEEEE6CreateEv
      fun:_ZNK19TGenCollectionProxy7Method06invokeEv
      fun:_ZN19TGenCollectionProxy9PushProxyEPv
      fun:_ZN23TVirtualCollectionProxy8TPushPopC1EPS_Pv
   }
   {
      __gnu_cxx::new_allocator<std::_Rb_tree_node<std::pair<std::type_info#const*#const,#SG::BaseInfoBase*>#>#>::allocate(unsigned#int,#void#const*)
      Memcheck:Leak
      fun:_Znwj
      fun:_ZN9__gnu_cxx13new_allocatorISt13_Rb_tree_nodeISt4pairIKPKSt9type_infoPN2SG12BaseInfoBaseEEEE8allocateEjPKv
      fun:_ZNSt8_Rb_treeIPKSt9type_infoSt4pairIKS2_PN2SG12BaseInfoBaseEESt10_Select1stIS8_ESt4lessIS2_ESaIS8_EE11_M_get_nodeEv
      fun:_ZNSt8_Rb_treeIPKSt9type_infoSt4pairIKS2_PN2SG12BaseInfoBaseEESt10_Select1stIS8_ESt4lessIS2_ESaIS8_EE14_M_create_nodeERKS8_
      fun:_ZNSt8_Rb_treeIPKSt9type_infoSt4pairIKS2_PN2SG12BaseInfoBaseEESt10_Select1stIS8_ESt4lessIS2_ESaIS8_EE9_M_insertEPSt18_Rb_tree_node_baseSG_RKS8_
   }
   {
      boost::python::objects::py_function::py_function<boost::python::detail::caller<eformat::write::ROBFragment#const*#(eformat::write::ROBFragment::*)()#const,#boost::python::return_internal_reference<1u,#boost::python::default_call_policies>,#boost::mpl::vector2<eformat::write::ROBFragment#const*,#eformat::write::ROBFragment=>#>#>(boost::python::detail::caller<eformat::write::ROBFragment#const*#(eformat::write::ROBFragment::*)()#const,#boost::python::return_internal_reference<1u,#boost::python::default_call_policies>,#boost::mpl::vector2<eformat::write::ROBFragment#const*,#eformat::write::ROBFragment=>#>#const=)
      Memcheck:Leak
      fun:_Znwj
      fun:_ZN5boost6python7objects11py_functionC1INS0_6detail6callerIMN7eformat5write11ROBFragmentEKFPKS8_vENS0_25return_internal_referenceILj1ENS0_21default_call_policiesEEENS_3mpl7vector2ISA_RS8_EEEEEERKT_
      fun:_ZN5boost6python6detail17make_function_auxIMN7eformat5write11ROBFragmentEKFPKS5_vENS0_25return_internal_referenceILj1ENS0_21default_call_policiesEEENS_3mpl7vector2IS7_RS5_EEN4mpl_4int_ILi0EEEEENS0_3api6objectET_RKT0_RKT1_RKSt4pairIPKNS1_7keywordESW_ET2_
      fun:_ZN5boost6python13make_functionIMN7eformat5write11ROBFragmentEKFPKS4_vENS0_25return_internal_referenceILj1ENS0_21default_call_policiesEEENS0_6detail8keywordsILj0EEENS_3mpl7vector2IS6_RS4_EEEENS0_3api6objectET_RKT0_RKT1_RKT2_
      fun:_ZN5boost6python6class_IN7eformat5write11ROBFragmentENS0_6detail13not_specifiedES6_S6_E8def_implIS4_MS4_KFPKS4_vENS5_10def_helperINS0_25return_internal_referenceILj1ENS0_21default_call_policiesEEES6_S6_S6_EEEEvPT_PKcT0_RKT1_z
   }
   {
      boost::python::objects::py_function::py_function<boost::python::detail::caller<unsigned#int#(eformat::helper::u32list::*)(long)#const,#boost::python::default_call_policies,#boost::mpl::vector3<unsigned#int,#eformat::helper::u32list=,#long>#>#>(boost::python::detail::caller<unsigned#int#(eformat::helper::u32list::*)(long)#const,#boost::python::default_call_policies,#boost::mpl::vector3<unsigned#int,#eformat::helper::u32list=,#long>#>#const=)
      Memcheck:Leak
      fun:_Znwj
      fun:_ZN5boost6python7objects11py_functionC1INS0_6detail6callerIMN7eformat6helper7u32listEKFjlENS0_21default_call_policiesENS_3mpl7vector3IjRS8_lEEEEEERKT_
      fun:_ZN5boost6python6detail17make_function_auxIMN7eformat6helper7u32listEKFjlENS0_21default_call_policiesENS_3mpl7vector3IjRS5_lEEN4mpl_4int_ILi0EEEEENS0_3api6objectET_RKT0_RKT1_RKSt4pairIPKNS1_7keywordESS_ET2_
      fun:_ZN5boost6python13make_functionIMN7eformat6helper7u32listEKFjlENS0_21default_call_policiesENS0_6detail8keywordsILj0EEENS_3mpl7vector3IjRS4_lEEEENS0_3api6objectET_RKT0_RKT1_RKT2_
      fun:_ZN5boost6python6class_IN7eformat6helper7u32listENS0_6detail13not_specifiedES6_S6_E8def_implIS4_MS4_KFjlENS5_10def_helperIPKcS6_S6_S6_EEEEvPT_SD_T0_RKT1_z
   }
   {
      nlerinit
      Memcheck:Leak
      fun:malloc
      fun:nlerinit
      fun:nlstdggo
      fun:nlstdgg
      fun:nigini1
   }
   {
      Reflex::TypeName::TypeName(char#const*,#Reflex::TypeBase*,#std::type_info#const*)
      Memcheck:Leak
      fun:_Znwj
      fun:_ZN6Reflex8TypeNameC1EPKcPNS_8TypeBaseEPKSt9type_info
      fun:_ZN6Reflex8TypeBaseC2EPKcjNS_4TYPEERKSt9type_infoRKNS_4TypeE
      fun:_ZN6Reflex8FunctionC1ERKNS_4TypeERKSt6vectorIS1_SaIS1_EERKSt9type_infoNS_4TYPEE
      fun:_ZN6Reflex19FunctionTypeBuilderERKNS_4TypeE
   }
   {
      Reflex::ScopeName::ScopeName(char#const*,#Reflex::ScopeBase*)
      Memcheck:Leak
      fun:_Znwj
      fun:_ZN6Reflex9ScopeNameC1EPKcPNS_9ScopeBaseE
      fun:_ZN6Reflex9ScopeBaseC2EPKcNS_4TYPEE
      fun:_ZN6Reflex5ClassC2EPKcjRKSt9type_infojNS_4TYPEE
      fun:_ZN6Reflex21ClassTemplateInstanceC1EPKcjRKSt9type_infoj
   }
   {
      Reflex::ScopeBase::ScopeBase(char#const*,#Reflex::TYPE)
      Memcheck:Leak
      fun:_Znwj
      fun:_ZN6Reflex9ScopeBaseC2EPKcNS_4TYPEE
      fun:_ZN6Reflex4EnumC1EPKcRKSt9type_infoj
      fun:_ZN6Reflex16ClassBuilderImpl7AddEnumEPKcS2_PKSt9type_infoj
      fun:_ZN6Reflex12ClassBuilder7AddEnumEPKcS2_PKSt9type_infoj
   }
   {
      G__createtemplateclass
      Memcheck:Leak
      fun:malloc
      fun:G__createtemplateclass
      fun:G__set_class_autoloading_table
      fun:_ZN5TCint14LoadLibraryMapEPKc
      fun:_ZN5TCint17EnableAutoLoadingEv
   }
   {
      (anonymous#namespace)::OutputStreamRegistrator131::create(std::basic_string<char,#std::char_traits<char>,#std::allocator<char>#>#const=)
      Memcheck:Leak
      fun:_Znwj
      fun:_ZN62_GLOBAL__N_.._src_streams_StandardStream.cxx_9D2164D3_DE5F63F926OutputStreamRegistrator1316createERKSs
      fun:_ZNK3ers13StreamFactory17create_out_streamERKSs
      fun:_ZN3ers13StreamManager12setup_streamERKSt6vectorISsSaISsEE
      fun:_ZN3ers13StreamManager12setup_streamENS_8severityE
   }
   {
      ers::StreamFactory::instance()
      Memcheck:Leak
      fun:_Znwj
      fun:_ZN3ers13StreamFactory8instanceEv
      fun:_ZN62_GLOBAL__N_.._src_streams_StandardStream.cxx_9D2164D3_DE5F63F926OutputStreamRegistrator126C1Ev
      fun:_Z41__static_initialization_and_destruction_0ii
      fun:_GLOBAL__I__ZN62_GLOBAL__N_.._src_streams_StandardStream.cxx_9D2164D3_DE5F63F920ers_NoValue_instanceE
   }
   {
      ztceb_encblk
      Memcheck:Value4
      fun:ztceaencbk
      fun:ztceb_encblk
      fun:ztceb_padding
      fun:ztcebf
      fun:ztcef
   }
   {
      boost::python::objects::py_function::py_function<boost::python::detail::caller<eformat::ROBFragment<unsigned#int#const*>#(*)(eformat::FullEventFragment<unsigned#int#const*>#const=,#eformat::helper::SourceIdentifier#const=,#bool),#boost::python::with_custodian_and_ward_postcall<0u,#1u,#boost::python::default_call_policies>,#boost::mpl::vector4<eformat::ROBFragment<unsigned#int#const*>,#eformat::FullEventFragment<unsigned#int#const*>#const=,#eformat::helper::SourceIdentifier#const=,#bool>#>#>(boost::python::detail::caller<eformat::ROBFragment<unsigned#int#const*>#(*)(eformat::FullEventFragment<unsigned#int#const*>#const=,#eformat::helper::SourceIdentifier#const=,#bool),#boost::python::with_custodian_and_ward_postcall<0u,#1u,#boost::python::default_call_policies>,#boost::mpl::vector4<eformat::ROBFragment<unsigned#int#const*>,#eformat::FullEventFragment<unsigned#int#const*>#const=,#eformat::helper::SourceIdentifier#const=,#bool>#>#const=)
      Memcheck:Leak
      fun:_Znwj
      fun:_ZN5boost6python7objects11py_functionC1INS0_6detail6callerIPFN7eformat11ROBFragmentIPKjEERKNS6_17FullEventFragmentIS9_EERKNS6_6helper16SourceIdentifierEbENS0_32with_custodian_and_ward_postcallILj0ELj1ENS0_21default_call_policiesEEENS_3mpl7vector4ISA_SE_SI_bEEEEEERKT_
      fun:_ZN5boost6python6detail17make_function_auxIPFN7eformat11ROBFragmentIPKjEERKNS3_17FullEventFragmentIS6_EERKNS3_6helper16SourceIdentifierEbENS0_32with_custodian_and_ward_postcallILj0ELj1ENS0_21default_call_policiesEEENS_3mpl7vector4IS7_SB_SF_bEEN4mpl_4int_ILi0EEEEENS0_3api6objectET_RKT0_RKT1_RKSt4pairIPKNS1_7keywordES13_ET2_
      fun:_ZN5boost6python13make_functionIPFN7eformat11ROBFragmentIPKjEERKNS2_17FullEventFragmentIS5_EERKNS2_6helper16SourceIdentifierEbENS0_32with_custodian_and_ward_postcallILj0ELj1ENS0_21default_call_policiesEEENS0_6detail8keywordsILj0EEENS_3mpl7vector4IS6_SA_SE_bEEEENS0_3api6objectET_RKT0_RKT1_RKT2_
      fun:_ZN5boost6python6class_IN7eformat17FullEventFragmentIPKjEENS_10shared_ptrIS6_EENS0_5basesINS2_6HeaderIS5_EEN4mpl_5void_ESD_SD_SD_SD_SD_SD_SD_SD_EENS0_6detail13not_specifiedEE8def_implIS6_PFNS2_11ROBFragmentIS5_EERKS6_RKNS2_6helper16SourceIdentifierEbENSF_10def_helperINS0_32with_custodian_and_ward_postcallILj0ELj1ENS0_21default_call_policiesEEESG_SG_SG_EEEEvPT_PKcT0_RKT1_z
   }
   {
      G__stack_instance
      Memcheck:Leak
      fun:_Znwj
      fun:G__stack_instance
      fun:G__resetplocal
      fun:_Z20G__cpp_setup_global0v
      fun:G__cpp_setup_globalG__MetaUtils
   }
   {
      ztcedgks
      Memcheck:Value4
      fun:ztced_einit
      fun:ztcedgks
      fun:ztcedi
      fun:ztcebi
      fun:ztcei
   }
   {
      (anonymous#namespace)::OutputStreamRegistrator132::create(std::basic_string<char,#std::char_traits<char>,#std::allocator<char>#>#const=)
      Memcheck:Leak
      fun:_Znwj
      fun:_ZN62_GLOBAL__N_.._src_streams_StandardStream.cxx_9D2164D3_DE5F63F926OutputStreamRegistrator1326createERKSs
      fun:_ZNK3ers13StreamFactory17create_out_streamERKSs
      fun:_ZN3ers13StreamManager12setup_streamERKSt6vectorISsSaISsEE
      fun:_ZN3ers13StreamManager12setup_streamENS_8severityE
   }
   {
      boost::python::objects::py_function::py_function<boost::python::detail::caller<std::basic_string<char,#std::char_traits<char>,#std::allocator<char>#>#(*)(eformat::TagType#const=),#boost::python::default_call_policies,#boost::mpl::vector2<std::basic_string<char,#std::char_traits<char>,#std::allocator<char>#>,#eformat::TagType#const=>#>#>(boost::python::detail::caller<std::basic_string<char,#std::char_traits<char>,#std::allocator<char>#>#(*)(eformat::TagType#const=),#boost::python::default_call_policies,#boost::mpl::vector2<std::basic_string<char,#std::char_traits<char>,#std::allocator<char>#>,#eformat::TagType#const=>#>#const=)
      Memcheck:Leak
      fun:_Znwj
      fun:_ZN5boost6python7objects11py_functionC1INS0_6detail6callerIPFSsRKN7eformat7TagTypeEENS0_21default_call_policiesENS_3mpl7vector2ISsS9_EEEEEERKT_
      fun:_ZN5boost6python6detail17make_function_auxIPFSsRKN7eformat7TagTypeEENS0_21default_call_policiesENS_3mpl7vector2ISsS6_EEEENS0_3api6objectET_RKT0_RKT1_
      fun:_ZN5boost6python13make_functionIPFSsRKN7eformat7TagTypeEEEENS0_3api6objectET_
      fun:_ZN5boost6python6detail14make_function1IPFSsRKN7eformat7TagTypeEEEENS0_3api6objectET_z
   }
   {
      Reflex::TypeBase::TypeBase(char#const*,#unsigned#int,#Reflex::TYPE,#std::type_info#const=,#Reflex::Type#const=)
      Memcheck:Leak
      fun:_Znwj
      fun:_ZN6Reflex8TypeBaseC2EPKcjNS_4TYPEERKSt9type_infoRKNS_4TypeE
      fun:_ZN6Reflex8FunctionC1ERKNS_4TypeERKSt6vectorIS1_SaIS1_EERKSt9type_infoNS_4TYPEE
      fun:_ZN6Reflex19FunctionTypeBuilderERKNS_4TypeES2_
      fun:_ZN60_GLOBAL__N__ZN4cool6PyCool7Helpers10IObjectPtrEPNS_7IObjectE118____gnu_cxx____normal_iterator_boost__shared_ptr_cool__IObject_p_std__vector_boost__shared_ptr_cool__IObject_s_s__dictEv
   }
   {
      Reflex::FunctionTypeBuilder(Reflex::Type#const=,#Reflex::Type#const=,#Reflex::Type#const=,#Reflex::Type#const=,#Reflex::Type#const=,#Reflex::Type#const=,#Reflex::Type#const=,#Reflex::Type#const=,#Reflex::Type#const=,#Reflex::Type#const=,#Reflex::Type#const=)
      Memcheck:Leak
      fun:_Znwj
      fun:_ZN6Reflex19FunctionTypeBuilderERKNS_4TypeES2_S2_S2_S2_S2_S2_S2_S2_S2_S2_
      fun:_ZN102_GLOBAL__N__ZN21T_AthenaRootConverterIN5CLHEP12HepGenMatrixE15OldHepGenMatrixE12CopyOldToNewERKS2_RS1_32__CLHEP__HepRep4x4Symmetric_dictEv
      fun:_ZN102_GLOBAL__N__ZN21T_AthenaRootConverterIN5CLHEP12HepGenMatrixE15OldHepGenMatrixE12CopyOldToNewERKS2_RS1_102_GLOBAL__N__ZN21T_AthenaRootConverterIN5CLHEP12HepGenMatrixE15OldHepGenMatrixE12CopyOldToNewERKS2_RS1_12DictionariesC1Ev
      fun:_Z41__static_initialization_and_destruction_0ii
   }
   {
      Reflex::Environ<__gnu_cxx::__normal_iterator<LAruA2MeVP*,#std::vector<LAruA2MeVP,#std::allocator<LAruA2MeVP>#>#>#>::Create()
      Memcheck:Leak
      fun:_Znwj
      fun:_ZN6Reflex7EnvironIN9__gnu_cxx17__normal_iteratorIP10LAruA2MeVPSt6vectorIS3_SaIS3_EEEEE6CreateEv
      fun:_ZNK19TGenCollectionProxy7Method06invokeEv
      fun:_ZN19TGenCollectionProxy9PushProxyEPv
      fun:_ZN23TVirtualCollectionProxy8TPushPopC1EPS_Pv
   }
   {
      boost::python::objects::py_function::py_function<boost::python::detail::caller<void#(*)(eformat::write::FullEventFragment=,#eformat::FullEventFragment<unsigned#int#const*>#const=),#boost::python::with_custodian_and_ward<1u,#2u,#boost::python::default_call_policies>,#boost::mpl::vector3<void,#eformat::write::FullEventFragment=,#eformat::FullEventFragment<unsigned#int#const*>#const=>#>#>(boost::python::detail::caller<void#(*)(eformat::write::FullEventFragment=,#eformat::FullEventFragment<unsigned#int#const*>#const=),#boost::python::with_custodian_and_ward<1u,#2u,#boost::python::default_call_policies>,#boost::mpl::vector3<void,#eformat::write::FullEventFragment=,#eformat::FullEventFragment<unsigned#int#const*>#const=>#>#const=)
      Memcheck:Leak
      fun:_Znwj
      fun:_ZN5boost6python7objects11py_functionC1INS0_6detail6callerIPFvRN7eformat5write17FullEventFragmentERKNS6_17FullEventFragmentIPKjEEENS0_23with_custodian_and_wardILj1ELj2ENS0_21default_call_policiesEEENS_3mpl7vector3IvS9_SF_EEEEEERKT_
      fun:_ZN5boost6python6detail17make_function_auxIPFvRN7eformat5write17FullEventFragmentERKNS3_17FullEventFragmentIPKjEEENS0_23with_custodian_and_wardILj1ELj2ENS0_21default_call_policiesEEENS_3mpl7vector3IvS6_SC_EEN4mpl_4int_ILi0EEEEENS0_3api6objectET_RKT0_RKT1_RKSt4pairIPKNS1_7keywordES10_ET2_
      fun:_ZN5boost6python13make_functionIPFvRN7eformat5write17FullEventFragmentERKNS2_17FullEventFragmentIPKjEEENS0_23with_custodian_and_wardILj1ELj2ENS0_21default_call_policiesEEENS0_6detail8keywordsILj0EEENS_3mpl7vector3IvS5_SB_EEEENS0_3api6objectET_RKT0_RKT1_RKT2_
      fun:_ZN5boost6python6class_IN7eformat5write17FullEventFragmentENS0_6detail13not_specifiedES6_S6_E8def_implIS4_PFvRS4_RKNS2_17FullEventFragmentIPKjEEENS5_10def_helperINS0_23with_custodian_and_wardILj1ELj2ENS0_21default_call_policiesEEES6_S6_S6_EEEEvPT_PKcT0_RKT1_z
   }
   {
      __gnu_cxx::new_allocator<std::_Rb_tree_node<std::pair<unsigned#int#const,#SG::BaseInfoBaseImpl::info>#>#>::allocate(unsigned#int,#void#const*)
      Memcheck:Leak
      fun:_Znwj
      fun:_ZN9__gnu_cxx13new_allocatorISt13_Rb_tree_nodeISt4pairIKjN2SG16BaseInfoBaseImpl4infoEEEE8allocateEjPKv
      fun:_ZNSt8_Rb_treeIjSt4pairIKjN2SG16BaseInfoBaseImpl4infoEESt10_Select1stIS5_ESt4lessIjESaIS5_EE11_M_get_nodeEv
      fun:_ZNSt8_Rb_treeIjSt4pairIKjN2SG16BaseInfoBaseImpl4infoEESt10_Select1stIS5_ESt4lessIjESaIS5_EE14_M_create_nodeERKS5_
      fun:_ZNSt8_Rb_treeIjSt4pairIKjN2SG16BaseInfoBaseImpl4infoEESt10_Select1stIS5_ESt4lessIjESaIS5_EE9_M_insertEPSt18_Rb_tree_node_baseSD_RKS5_
   }
   {
      __gnu_cxx::new_allocator<Reflex::Type>::allocate(unsigned#int,#void#const*)
      Memcheck:Leak
      fun:_Znwj
      fun:_ZN9__gnu_cxx13new_allocatorIN6Reflex4TypeEE8allocateEjPKv
      fun:_ZNSt12_Vector_baseIN6Reflex4TypeESaIS1_EE11_M_allocateEj
      fun:_ZNSt12_Vector_baseIN6Reflex4TypeESaIS1_EEC2EjRKS2_
      fun:_ZNSt6vectorIN6Reflex4TypeESaIS1_EEC1ERKS3_
   }
   {
      ztcedencbk
      Memcheck:Value4
      fun:ztcedecb
      fun:ztcedencbk
      fun:ztceb_encblk
      fun:ztcebn
      fun:ztcen
   }
   {
      SimpleProperty<std::basic_string<char,#std::char_traits<char>,#std::allocator<char>#>,#BoundedVerifier<std::basic_string<char,#std::char_traits<char>,#std::allocator<char>#>#>#>::SimpleProperty(BoundedVerifier<std::basic_string<char,#std::char_traits<char>,#std::allocator<char>#>#>)
      Memcheck:Leak
      fun:_Znwj
      fun:_ZN14SimplePropertyISs15BoundedVerifierISsEEC1ES1_
      fun:_ZN14ApplicationMgrC1EP10IInterface
      fun:_ZN69_GLOBAL__N_.._src_ApplicationMgr_ApplicationMgr.cpp_9D2164D3_9BE5AFB07FactoryI14ApplicationMgrFP10IInterfaceS3_EE4FuncEPvS6_RKSt6vectorIS6_SaIS6_EES6_
      fun:_ZNK6Reflex14FunctionMember6InvokeERKNS_6ObjectEPS1_RKSt6vectorIPvSaIS6_EE
   }
   {
      Athena::Signal::handleFatal(char#const*,#int,#bool#(*)(int,#siginfo*,#void*),#void#(*)(int,#siginfo*,#void*),#unsigned#int)
      Memcheck:Leak
      fun:_Znwj
      fun:_ZN6Athena6Signal11handleFatalEPKciPFbiP7siginfoPvEPFviS4_S5_Ej
      fun:_ZN14AthenaServices15SetFatalHandlerEi
      fun:_ZN103_GLOBAL__N_.._i686_slc4_gcc34_dbg_dict_AthenaServices_AthenaServicesDict_gen_rflx.cpp_9D2164D3_9F196D4D11method_3725EPvS0_RKSt6vectorIS0_SaIS0_EES0_
      fun:_ZN4ROOT6Cintex24Method_stub_with_contextEPNS0_13StubContext_tEP8G__valuePKcP8G__parami
   }
   {
      Reflex::Environ<__gnu_cxx::__normal_iterator<CaloHadWeight::HadData*,#std::vector<CaloHadWeight::HadData,#std::allocator<CaloHadWeight::HadData>#>#>#>::Create()
      Memcheck:Leak
      fun:_Znwj
      fun:_ZN6Reflex7EnvironIN9__gnu_cxx17__normal_iteratorIPN13CaloHadWeight7HadDataESt6vectorIS4_SaIS4_EEEEE6CreateEv
      fun:_ZNK19TGenCollectionProxy7Method06invokeEv
      fun:_ZN19TGenCollectionProxy9PushProxyEPv
      fun:_ZN23TVirtualCollectionProxy8TPushPopC1EPS_Pv
   }
   {
      PyObject_Malloc
      Memcheck:Leak
      fun:malloc
      fun:PyObject_Malloc
      fun:_PyObject_GC_Malloc
      fun:_PyObject_GC_NewVar
      fun:PyFrame_New
   }
   {
      __gnu_cxx::new_allocator<__gnu_cxx::_Hashtable_node<std::pair<std::basic_string<char,#std::char_traits<char>,#std::allocator<char>#>#const*#const,#Reflex::TypeName*>#>*>::allocate(unsigned#int,#void#const*)
      Memcheck:Leak
      fun:_Znwj
      fun:_ZN9__gnu_cxx13new_allocatorIPNS_15_Hashtable_nodeISt4pairIKPKSsPN6Reflex8TypeNameEEEEE8allocateEjPKv
      fun:_ZNSt12_Vector_baseIPN9__gnu_cxx15_Hashtable_nodeISt4pairIKPKSsPN6Reflex8TypeNameEEEESaISB_EE11_M_allocateEj
      fun:_ZNSt6vectorIPN9__gnu_cxx15_Hashtable_nodeISt4pairIKPKSsPN6Reflex8TypeNameEEEESaISB_EE20_M_allocate_and_copyIPSB_EESF_jT_SG_
      fun:_ZNSt6vectorIPN9__gnu_cxx15_Hashtable_nodeISt4pairIKPKSsPN6Reflex8TypeNameEEEESaISB_EE7reserveEj
   }
   {
      boost::python::objects::py_function::py_function<boost::python::detail::caller<void#(*)(eformat::write::ROBFragment=,#eformat::helper::SourceIdentifier=),#boost::python::default_call_policies,#boost::mpl::vector3<void,#eformat::write::ROBFragment=,#eformat::helper::SourceIdentifier=>#>#>(boost::python::detail::caller<void#(*)(eformat::write::ROBFragment=,#eformat::helper::SourceIdentifier=),#boost::python::default_call_policies,#boost::mpl::vector3<void,#eformat::write::ROBFragment=,#eformat::helper::SourceIdentifier=>#>#const=)
      Memcheck:Leak
      fun:_Znwj
      fun:_ZN5boost6python7objects11py_functionC1INS0_6detail6callerIPFvRN7eformat5write11ROBFragmentERNS6_6helper16SourceIdentifierEENS0_21default_call_policiesENS_3mpl7vector3IvS9_SC_EEEEEERKT_
      fun:_ZN5boost6python6detail17make_function_auxIPFvRN7eformat5write11ROBFragmentERNS3_6helper16SourceIdentifierEENS0_21default_call_policiesENS_3mpl7vector3IvS6_S9_EEN4mpl_4int_ILi0EEEEENS0_3api6objectET_RKT0_RKT1_RKSt4pairIPKNS1_7keywordESV_ET2_
      fun:_ZN5boost6python13make_functionIPFvRN7eformat5write11ROBFragmentERNS2_6helper16SourceIdentifierEENS0_21default_call_policiesENS0_6detail8keywordsILj0EEENS_3mpl7vector3IvS5_S8_EEEENS0_3api6objectET_RKT0_RKT1_RKT2_
      fun:_ZN5boost6python6class_IN7eformat5write11ROBFragmentENS0_6detail13not_specifiedES6_S6_E8def_implIS4_PFvRS4_RNS2_6helper16SourceIdentifierEENS5_10def_helperIPKcS6_S6_S6_EEEEvPT_SH_T0_RKT1_z
   }
   {
      PyROOT::(anonymous#namespace)::mp_new(_typeobject*,#_object*,#_object*)
      Memcheck:Leak
      fun:_Znwj
      fun:_ZN6PyROOT64_GLOBAL__N_bindings_pyroot_src_MethodProxy.cxx_17E02520_1BE785DB6mp_newEP11_typeobjectP7_objectS4_
      fun:_ZN6PyROOT15MethodProxy_NewERKSsRSt6vectorIPNS_10PyCallableESaIS4_EE
      fun:_ZN6PyROOT18BuildRootClassDictINS_13TScopeAdapterENS_12TBaseAdapterENS_14TMemberAdapterEEEiRKT_P7_object
      fun:_ZN6PyROOT23MakeRootClassFromStringINS_13TScopeAdapterENS_12TBaseAdapterENS_14TMemberAdapterEEEP7_objectRKSsS5_
   }
   {
      boost::python::objects::py_function::py_function<boost::python::detail::caller<void#(eformat::write::ROBFragment::*)(unsigned#int),#boost::python::default_call_policies,#boost::mpl::vector3<void,#eformat::write::ROBFragment=,#unsigned#int>#>#>(boost::python::detail::caller<void#(eformat::write::ROBFragment::*)(unsigned#int),#boost::python::default_call_policies,#boost::mpl::vector3<void,#eformat::write::ROBFragment=,#unsigned#int>#>#const=)
      Memcheck:Leak
      fun:_Znwj
      fun:_ZN5boost6python7objects11py_functionC1INS0_6detail6callerIMN7eformat5write11ROBFragmentEFvjENS0_21default_call_policiesENS_3mpl7vector3IvRS8_jEEEEEERKT_
      fun:_ZN5boost6python6detail17make_function_auxIMN7eformat5write11ROBFragmentEFvjENS0_21default_call_policiesENS_3mpl7vector3IvRS5_jEEN4mpl_4int_ILi0EEEEENS0_3api6objectET_RKT0_RKT1_RKSt4pairIPKNS1_7keywordESS_ET2_
      fun:_ZN5boost6python13make_functionIMN7eformat5write11ROBFragmentEFvjENS0_21default_call_policiesENS0_6detail8keywordsILj0EEENS_3mpl7vector3IvRS4_jEEEENS0_3api6objectET_RKT0_RKT1_RKT2_
      fun:_ZN5boost6python6class_IN7eformat5write11ROBFragmentENS0_6detail13not_specifiedES6_S6_E8def_implIS4_MS4_FvjENS5_10def_helperIPKcS6_S6_S6_EEEEvPT_SD_T0_RKT1_z
   }
   {
      ROOT::DefineBehavior(TQObject*,#TQObject*)
      Memcheck:Leak
      fun:_Znwj
      fun:_ZN4ROOT14DefineBehaviorEP8TQObjectS1_
      fun:_ZN4ROOT25GenerateInitInstanceLocalEPK6TTimer
      fun:_Z41__static_initialization_and_destruction_0ii
      fun:_GLOBAL__I__ZN4ROOT20GenerateInitInstanceEPK16TMemberInspector
   }
   {
      (anonymous#namespace)::CreateCStringConverter(long)
      Memcheck:Leak
      fun:_Znwj
      fun:_ZN38_GLOBAL__N__ZN6PyROOT14gConvFactoriesE22CreateCStringConverterEl
      fun:_ZN6PyROOT15CreateConverterERKSsl
      fun:_ZN6PyROOT13TMethodHolderINS_13TScopeAdapterENS_14TMemberAdapterEE13InitCallFunc_Ev
      fun:_ZN6PyROOT13TMethodHolderINS_13TScopeAdapterENS_14TMemberAdapterEE10InitializeEv
   }
   {
      TStreamerInfo::Compile()
      Memcheck:Leak
      fun:_Znaj
      fun:_ZN13TStreamerInfo7CompileEv
      fun:_ZN13TStreamerInfo8BuildOldEv
      fun:_ZNK6TClass15GetStreamerInfoEi
      fun:_ZN14TBranchElement8InitInfoEv
   }
   {
      open_path
      Memcheck:Leak
      fun:malloc
      fun:open_path
      fun:_dl_map_object
      fun:dl_open_worker
      fun:_dl_catch_error
   }
   {
      boost::python::objects::py_function::py_function<boost::python::detail::caller<unsigned#short#(eformat::write::FullEventFragment::*)()#const,#boost::python::default_call_policies,#boost::mpl::vector2<unsigned#short,#eformat::write::FullEventFragment=>#>#>(boost::python::detail::caller<unsigned#short#(eformat::write::FullEventFragment::*)()#const,#boost::python::default_call_policies,#boost::mpl::vector2<unsigned#short,#eformat::write::FullEventFragment=>#>#const=)
      Memcheck:Leak
      fun:_Znwj
      fun:_ZN5boost6python7objects11py_functionC1INS0_6detail6callerIMN7eformat5write17FullEventFragmentEKFtvENS0_21default_call_policiesENS_3mpl7vector2ItRS8_EEEEEERKT_
      fun:_ZN5boost6python6detail17make_function_auxIMN7eformat5write17FullEventFragmentEKFtvENS0_21default_call_policiesENS_3mpl7vector2ItRS5_EEN4mpl_4int_ILi0EEEEENS0_3api6objectET_RKT0_RKT1_RKSt4pairIPKNS1_7keywordESS_ET2_
      fun:_ZN5boost6python13make_functionIMN7eformat5write17FullEventFragmentEKFtvENS0_21default_call_policiesENS0_6detail8keywordsILj0EEENS_3mpl7vector2ItRS4_EEEENS0_3api6objectET_RKT0_RKT1_RKT2_
      fun:_ZN5boost6python6class_IN7eformat5write17FullEventFragmentENS0_6detail13not_specifiedES6_S6_E8def_implIS4_MS4_KFtvENS5_10def_helperIPKcS6_S6_S6_EEEEvPT_SD_T0_RKT1_z
   }
   {
      ###obj:#lib#libcrypto.so.0.9.7a
      Memcheck:Leak
      fun:realloc
      obj:/lib/libcrypto.so.0.9.7a
      fun:CRYPTO_realloc
      fun:lh_insert
      fun:OBJ_NAME_add
   }
   {
      Reflex::FunctionTypeBuilder(Reflex::Type#const=,#Reflex::Type#const=,#Reflex::Type#const=)
      Memcheck:Leak
      fun:_Znwj
      fun:_ZN6Reflex19FunctionTypeBuilderERKNS_4TypeES2_S2_
      fun:_ZN60_GLOBAL__N__ZN4cool6PyCool7Helpers10IObjectPtrEPNS_7IObjectE70__std___Vector_base_cool__IFieldp_std__allocator_cool__IFieldp_s__dictEv
      fun:_ZN60_GLOBAL__N__ZN4cool6PyCool7Helpers10IObjectPtrEPNS_7IObjectE60_GLOBAL__N__ZN4cool6PyCool7Helpers10IObjectPtrEPNS_7IObjectE12DictionariesC1Ev
      fun:_Z41__static_initialization_and_destruction_0ii
   }
   {
      boost::python::objects::py_function::py_function<boost::python::detail::caller<unsigned#int#(EventStorage::DataReader::*)(),#boost::python::default_call_policies,#boost::mpl::vector2<unsigned#int,#EventStorage::DataReader=>#>#>(boost::python::detail::caller<unsigned#int#(EventStorage::DataReader::*)(),#boost::python::default_call_policies,#boost::mpl::vector2<unsigned#int,#EventStorage::DataReader=>#>#const=)
      Memcheck:Leak
      fun:_Znwj
      fun:_ZN5boost6python7objects11py_functionC1INS0_6detail6callerIMN12EventStorage10DataReaderEFjvENS0_21default_call_policiesENS_3mpl7vector2IjRS7_EEEEEERKT_
      fun:_ZN5boost6python6detail17make_function_auxIMN12EventStorage10DataReaderEFjvENS0_21default_call_policiesENS_3mpl7vector2IjRS4_EEN4mpl_4int_ILi0EEEEENS0_3api6objectET_RKT0_RKT1_RKSt4pairIPKNS1_7keywordESR_ET2_
      fun:_ZN5boost6python13make_functionIMN12EventStorage10DataReaderEFjvENS0_21default_call_policiesENS0_6detail8keywordsILj0EEENS_3mpl7vector2IjRS3_EEEENS0_3api6objectET_RKT0_RKT1_RKT2_
      fun:_ZN5boost6python6class_IN12EventStorage10DataReaderENS_10shared_ptrIS3_EENS_12noncopyable_11noncopyableENS0_6detail13not_specifiedEE8def_implIS3_MS3_FjvENS8_10def_helperIPKcS9_S9_S9_EEEEvPT_SG_T0_RKT1_z
   }
   {
      nlhthnew
      Memcheck:Leak
      fun:malloc
      fun:nlhthnew
      fun:nlpaxini
      fun:nnftboot
      fun:nnfgrne
   }
   {
      (anonymous#namespace)::CreateFloatRefExecutor()
      Memcheck:Leak
      fun:_Znwj
      fun:_ZN38_GLOBAL__N__ZN6PyROOT14gExecFactoriesE22CreateFloatRefExecutorEv
      fun:_ZN6PyROOT14CreateExecutorERKSs
      fun:_ZN6PyROOT13TMethodHolderINS_13TScopeAdapterENS_14TMemberAdapterEE13InitExecutor_ERPNS_9TExecutorE
      fun:_ZN6PyROOT13TMethodHolderINS_13TScopeAdapterENS_14TMemberAdapterEE10InitializeEv
   }
   {
      Reflex::FunctionTypeBuilder(Reflex::Type#const=,#Reflex::Type#const=,#Reflex::Type#const=,#Reflex::Type#const=,#Reflex::Type#const=,#Reflex::Type#const=)
      Memcheck:Leak
      fun:_Znwj
      fun:_ZN6Reflex19FunctionTypeBuilderERKNS_4TypeES2_S2_S2_S2_S2_
      fun:_ZN60_GLOBAL__N__ZN4cool6PyCool7Helpers10IObjectPtrEPNS_7IObjectE30__std__basic_string_char__dictEv
      fun:_ZN60_GLOBAL__N__ZN4cool6PyCool7Helpers10IObjectPtrEPNS_7IObjectE60_GLOBAL__N__ZN4cool6PyCool7Helpers10IObjectPtrEPNS_7IObjectE12DictionariesC1Ev
      fun:_Z41__static_initialization_and_destruction_0ii
   }
   {
      G__params::operator[](int)
      Memcheck:Leak
      fun:malloc
      fun:_ZN9G__paramsixEi
      fun:G__memfunc_setup_imp
      fun:G__memfunc_setup
      fun:_Z18G__cpp_setup_func2v
   }
   {
      boost::python::objects::py_function::py_function<boost::python::detail::caller<void#(*)(_object*),#boost::python::default_call_policies,#boost::mpl::vector2<void,#_object*>#>#>(boost::python::detail::caller<void#(*)(_object*),#boost::python::default_call_policies,#boost::mpl::vector2<void,#_object*>#>#const=)
      Memcheck:Leak
      fun:_Znwj
      fun:_ZN5boost6python7objects11py_functionC1INS0_6detail6callerIPFvP7_objectENS0_21default_call_policiesENS_3mpl7vector2IvS7_EEEEEERKT_
      fun:_ZN5boost6python6detail17make_function_auxIPFvP7_objectENS0_21default_call_policiesENS_3mpl7vector2IvS4_EEN4mpl_4int_ILi0EEEEENS0_3api6objectET_RKT0_RKT1_RKSt4pairIPKNS1_7keywordESQ_ET2_
      fun:_ZN5boost6python6detail27make_keyword_range_functionIPFvP7_objectENS0_21default_call_policiesEEENS0_3api6objectET_RKT0_RKSt4pairIPKNS1_7keywordESH_E
      fun:_ZN5boost6python6detail30make_keyword_range_constructorINS_3mpl7vector0IN4mpl_2naEEENS3_4sizeIS7_EENS0_7objects12value_holderIN12EventStorage21run_parameters_recordEEENS0_21default_call_policiesEEENS0_3api6objectERKT2_RKSt4pairIPKNS1_7keywordESO_EPT1_PT_PT0_
   }
   {
      Reflex::TypeName::TypeName(char#const*,#Reflex::TypeBase*,#std::type_info#const*)
      Memcheck:Leak
      fun:_Znwj
      fun:_ZN6Reflex8TypeNameC1EPKcPNS_8TypeBaseEPKSt9type_info
      fun:_ZN6Reflex8TypeBaseC2EPKcjNS_4TYPEERKSt9type_infoRKNS_4TypeE
      fun:_ZN6Reflex7PointerC1ERKNS_4TypeERKSt9type_info
      fun:_ZN6Reflex14PointerBuilderERKNS_4TypeERKSt9type_info
   }
   {
      newarrayobject
      Memcheck:Leak
      fun:malloc
      fun:newarrayobject
      fun:array_new
      fun:type_call
      fun:PyObject_Call
   }
   {
      boost::python::objects::py_function::py_function<boost::python::detail::caller<unsigned#int#(*)(eformat::CheckSum#const=,#eformat::helper::u32slice#const=),#boost::python::default_call_policies,#boost::mpl::vector3<unsigned#int,#eformat::CheckSum#const=,#eformat::helper::u32slice#const=>#>#>(boost::python::detail::caller<unsigned#int#(*)(eformat::CheckSum#const=,#eformat::helper::u32slice#const=),#boost::python::default_call_policies,#boost::mpl::vector3<unsigned#int,#eformat::CheckSum#const=,#eformat::helper::u32slice#const=>#>#const=)
      Memcheck:Leak
      fun:_Znwj
      fun:_ZN5boost6python7objects11py_functionC1INS0_6detail6callerIPFjRKN7eformat8CheckSumERKNS6_6helper8u32sliceEENS0_21default_call_policiesENS_3mpl7vector3IjS9_SD_EEEEEERKT_
      fun:_ZN5boost6python6detail17make_function_auxIPFjRKN7eformat8CheckSumERKNS3_6helper8u32sliceEENS0_21default_call_policiesENS_3mpl7vector3IjS6_SA_EEEENS0_3api6objectET_RKT0_RKT1_
      fun:_ZN5boost6python13make_functionIPFjRKN7eformat8CheckSumERKNS2_6helper8u32sliceEEEENS0_3api6objectET_
      fun:_ZN5boost6python6detail14make_function1IPFjRKN7eformat8CheckSumERKNS3_6helper8u32sliceEEEENS0_3api6objectET_z
   }
   {
      boost::python::objects::py_function::py_function<boost::python::detail::caller<void#(*)(_object*,#std::basic_string<char,#std::char_traits<char>,#std::allocator<char>#>,#unsigned#int,#std::basic_string<char,#std::char_traits<char>,#std::allocator<char>#>,#std::basic_string<char,#std::char_traits<char>,#std::allocator<char>#>,#unsigned#int,#std::basic_string<char,#std::char_traits<char>,#std::allocator<char>#>,#std::basic_string<char,#std::char_traits<char>,#std::allocator<char>#>,#std::basic_string<char,#std::char_traits<char>,#std::allocator<char>#>,#unsigned#int,#std::basic_string<char,#std::char_traits<char>,#std::allocator<char>#>),#boost::python::default_call_policies,#boost::mpl::vector12<void,#_object*,#std::basic_string<char,#std::char_traits<char>,#std::allocator<char>#>,#unsigned#int,#std::basic_string<char,#std::char_traits<char>,#std::allocator<char>#>,#std::basic_string<char,#std::char_traits<char>,#std::allocator<char>#>,#unsigned#int,#std::basic_string<char,#std::char_traits<char>,#std::allocator<char>#>,#std::basic_string<char,#std::char_traits<char>,#std::allocator<char>#>,#std::basic_string<char,#std::char_traits<char>,#std::allocator<char>#>,#unsigned#int,#std::basic_string<char,#std::char_traits<char>,#std::allocator<char>#>#>#>#>(boost::python::detail::caller<void#(*)(_object*,#std::basic_string<char,#std::char_traits<char>,#std::allocator<char>#>,#unsigned#int,#std::basic_string<char,#std::char_traits<char>,#std::allocator<char>#>,#std::basic_string<char,#std::char_traits<char>,#std::allocator<char>#>,#unsigned#int,#std::basic_string<char,#std::char_traits<char>,#std::allocator<char>#>,#std::basic_string<char,#std::char_traits<char>,#std::allocator<char>#>,#std::basic_string<char,#std::char_traits<char>,#std::allocator<char>#>,#unsigned#int,#std::basic_string<char,#std::char_traits<char>,#std::allocator<char>#>),#boost::python::default_call_policies,#boost::mpl::vector12<void,#_object*,#std::basic_string<char,#std::char_traits<char>,#std::allocator<char>#>,#unsigned#int,#std::basic_string<char,#std::char_traits<char>,#std::allocator<char>#>,#std::basic_string<char,#std::char_traits<char>,#std::allocator<char>#>,#unsigned#int,#std::basic_string<char,#std::char_traits<char>,#std::allocator<char>#>,#std::basic_string<char,#std::char_traits<char>,#std::allocator<char>#>,#std::basic_string<char,#std::char_traits<char>,#std::allocator<char>#>,#unsigned#int,#std::basic_string<char,#std::char_traits<char>,#std::allocator<char>#>#>#>#const=)
      Memcheck:Leak
      fun:_Znwj
      fun:_ZN5boost6python7objects11py_functionC1INS0_6detail6callerIPFvP7_objectSsjSsSsjSsSsSsjSsENS0_21default_call_policiesENS_3mpl8vector12IvS7_SsjSsSsjSsSsSsjSsEEEEEERKT_
      fun:_ZN5boost6python6detail17make_function_auxIPFvP7_objectSsjSsSsjSsSsSsjSsENS0_21default_call_policiesENS_3mpl8vector12IvS4_SsjSsSsjSsSsSsjSsEEN4mpl_4int_ILi0EEEEENS0_3api6objectET_RKT0_RKT1_RKSt4pairIPKNS1_7keywordESQ_ET2_
      fun:_ZN5boost6python6detail27make_keyword_range_functionIPFvP7_objectSsjSsSsjSsSsSsjSsENS0_21default_call_policiesEEENS0_3api6objectET_RKT0_RKSt4pairIPKNS1_7keywordESH_E
      fun:_ZN5boost6python6detail30make_keyword_range_constructorINS_3mpl10joint_viewINS1_5drop1INS1_9type_listISsjSsSsjSsNS0_8optionalISsSsjSsN4mpl_5void_ES9_S9_S9_S9_S9_S9_S9_S9_S9_S9_EES9_S9_S9_S9_S9_S9_S9_S9_S9_S9_EEEESA_EENS3_4sizeISD_EENS0_7objects12value_holderIN3daq11RawFileNameEEENS0_21default_call_policiesEEENS0_3api6objectERKT2_RKSt4pairIPKNS1_7keywordESU_EPT1_PT_PT0_
   }
   {
      __gnu_cxx::new_allocator<ROOT::Cintex::ROOTClassEnhancerInfo*>::allocate(unsigned#int,#void#const*)
      Memcheck:Leak
      fun:_Znwj
      fun:_ZN9__gnu_cxx13new_allocatorIPN4ROOT6Cintex21ROOTClassEnhancerInfoEE8allocateEjPKv
      fun:_ZNSt12_Vector_baseIPN4ROOT6Cintex21ROOTClassEnhancerInfoESaIS3_EE11_M_allocateEj
      fun:_ZNSt6vectorIPN4ROOT6Cintex21ROOTClassEnhancerInfoESaIS3_EE13_M_insert_auxEN9__gnu_cxx17__normal_iteratorIPS3_S5_EERKS3_
      fun:_ZNSt6vectorIPN4ROOT6Cintex21ROOTClassEnhancerInfoESaIS3_EE9push_backERKS3_
   }
   {
      Reflex::Environ<__gnu_cxx::__normal_iterator<TileCosmicMuon_p2*,#std::vector<TileCosmicMuon_p2,#std::allocator<TileCosmicMuon_p2>#>#>#>::Create()
      Memcheck:Leak
      fun:_Znwj
      fun:_ZN6Reflex7EnvironIN9__gnu_cxx17__normal_iteratorIP17TileCosmicMuon_p2St6vectorIS3_SaIS3_EEEEE6CreateEv
      fun:_ZNK19TGenCollectionProxy7Method06invokeEv
      fun:_ZN19TGenCollectionProxy9PushProxyEPv
      fun:_ZN23TVirtualCollectionProxy8TPushPopC1EPS_Pv
   }
   {
      boost::python::objects::py_function::py_function<boost::python::detail::caller<void#(*)(EventStorage::DataWriter=,#eformat::helper::u32list#const=),#boost::python::default_call_policies,#boost::mpl::vector3<void,#EventStorage::DataWriter=,#eformat::helper::u32list#const=>#>#>(boost::python::detail::caller<void#(*)(EventStorage::DataWriter=,#eformat::helper::u32list#const=),#boost::python::default_call_policies,#boost::mpl::vector3<void,#EventStorage::DataWriter=,#eformat::helper::u32list#const=>#>#const=)
      Memcheck:Leak
      fun:_Znwj
      fun:_ZN5boost6python7objects11py_functionC1INS0_6detail6callerIPFvRN12EventStorage10DataWriterERKN7eformat6helper7u32listEENS0_21default_call_policiesENS_3mpl7vector3IvS8_SD_EEEEEERKT_
      fun:_ZN5boost6python6detail17make_function_auxIPFvRN12EventStorage10DataWriterERKN7eformat6helper7u32listEENS0_21default_call_policiesENS_3mpl7vector3IvS5_SA_EEN4mpl_4int_ILi0EEEEENS0_3api6objectET_RKT0_RKT1_RKSt4pairIPKNS1_7keywordESW_ET2_
      fun:_ZN5boost6python13make_functionIPFvRN12EventStorage10DataWriterERKN7eformat6helper7u32listEENS0_21default_call_policiesENS0_6detail8keywordsILj0EEENS_3mpl7vector3IvS4_S9_EEEENS0_3api6objectET_RKT0_RKT1_RKT2_
      fun:_ZN5boost6python6class_IN12EventStorage10DataWriterENS_12noncopyable_11noncopyableENS0_6detail13not_specifiedES7_E8def_implIS3_PFvRS3_RKN7eformat6helper7u32listEENS6_10def_helperIPKcS7_S7_S7_EEEEvPT_SK_T0_RKT1_z
   }
   {
      Reflex::CFTGenerator<Reflex::Pushback<std::vector<boost::shared_ptr<cool::IObject>,#std::allocator<boost::shared_ptr<cool::IObject>#>#>#>#>::Generate()
      Memcheck:Leak
      fun:_Znwj
      fun:_ZN6Reflex12CFTGeneratorINS_8PushbackISt6vectorIN5boost10shared_ptrIN4cool7IObjectEEESaIS7_EEEEE8GenerateEv
      fun:_ZN6Reflex5ProxyISt6vectorIN5boost10shared_ptrIN4cool7IObjectEEESaIS6_EEE8GenerateEv
      fun:_ZN60_GLOBAL__N__ZN4cool6PyCool7Helpers10IObjectPtrEPNS_7IObjectE10method_x14EPvS0_RKSt6vectorIS0_SaIS0_EES0_
      fun:_ZNK6Reflex14FunctionMember6InvokeEPNS_6ObjectERKSt6vectorIPvSaIS4_EE
   }
   {
      TCollectionProxyFactory::GenExplicitStreamer(ROOT::TCollectionProxyInfo#const=,#TClass*)
      Memcheck:Leak
      fun:_Znwj
      fun:_ZN23TCollectionProxyFactory19GenExplicitStreamerERKN4ROOT20TCollectionProxyInfoEP6TClass
      fun:_ZN23TCollectionProxyFactory24GenExplicitClassStreamerERKN4ROOT20TCollectionProxyInfoEP6TClass
      fun:_ZN4pool11createClassEN6Reflex4TypeEPN4ROOT17TGenericClassInfoE
      fun:_ZN4ROOT6Cintex21ROOTClassEnhancerInfo15Stub_DictionaryEPv
   }
   {
      Reflex::FunctionTypeBuilder(Reflex::Type#const=,#Reflex::Type#const=,#Reflex::Type#const=,#Reflex::Type#const=,#Reflex::Type#const=,#Reflex::Type#const=,#Reflex::Type#const=,#Reflex::Type#const=,#Reflex::Type#const=,#Reflex::Type#const=,#Reflex::Type#const=)
      Memcheck:Leak
      fun:_Znwj
      fun:_ZN6Reflex19FunctionTypeBuilderERKNS_4TypeES2_S2_S2_S2_S2_S2_S2_S2_S2_S2_
      fun:_ZN84_GLOBAL__N_.._i686_slc4_gcc34_dbg_dict_GaudiPython_kernel_dict.cpp_9D2164D3_B5DBB98A17__IHistoTool_dictEv
      fun:_ZN84_GLOBAL__N_.._i686_slc4_gcc34_dbg_dict_GaudiPython_kernel_dict.cpp_9D2164D3_B5DBB98A84_GLOBAL__N_.._i686_slc4_gcc34_dbg_dict_GaudiPython_kernel_dict.cpp_9D2164D3_B5DBB98A12DictionariesC1Ev
      fun:_Z41__static_initialization_and_destruction_0ii
   }
   {
      Property*#PropertyMgr::declareProperty<std::map<std::basic_string<char,#std::char_traits<char>,#std::allocator<char>#>,#std::basic_string<char,#std::char_traits<char>,#std::allocator<char>#>,#std::less<std::basic_string<char,#std::char_traits<char>,#std::allocator<char>#>#>,#std::allocator<std::pair<std::basic_string<char,#std::char_traits<char>,#std::allocator<char>#>#const,#std::basic_string<char,#std::char_traits<char>,#std::allocator<char>#>#>#>#>#>(std::basic_string<char,#std::char_traits<char>,#std::allocator<char>#>#const=,#std::map<std::basic_string<char,#std::char_traits<char>,#std::allocator<char>#>,#std::basic_string<char,#std::char_traits<char>,#std::allocator<char>#>,#std::less<std::basic_string<char,#std::char_traits<char>,#std::allocator<char>#>#>,#std::allocator<std::pair<std::basic_string<char,#std::char_traits<char>,#std::allocator<char>#>#const,#std::basic_string<char,#std::char_traits<char>,#std::allocator<char>#>#>#>#>=,#std::basic_string<char,#std::char_traits<char>,#std::allocator<char>#>#const=)
      Memcheck:Leak
      fun:_Znwj
      fun:_ZN11PropertyMgr15declarePropertyISt3mapISsSsSt4lessISsESaISt4pairIKSsSsEEEEEP8PropertyRS5_RT_SB_
      fun:_ZN14ApplicationMgrC1EP10IInterface
      fun:_ZN69_GLOBAL__N_.._src_ApplicationMgr_ApplicationMgr.cpp_9D2164D3_9BE5AFB07FactoryI14ApplicationMgrFP10IInterfaceS3_EE4FuncEPvS6_RKSt6vectorIS6_SaIS6_EES6_
      fun:_ZNK6Reflex14FunctionMember6InvokeERKNS_6ObjectEPS1_RKSt6vectorIPvSaIS6_EE
   }
   {
      listextend
      Memcheck:Leak
      fun:realloc
      fun:listextend
      fun:list_inplace_concat
      fun:PyNumber_InPlaceAdd
      fun:PyEval_EvalFrameEx
   }
   {
      ROOT::TCollectionProxyInfo*#ROOT::TCollectionProxyInfo::Generate<ROOT::TCollectionProxyInfo::Pushback<std::vector<bool,#std::allocator<bool>#>#>#>(ROOT::TCollectionProxyInfo::Pushback<std::vector<bool,#std::allocator<bool>#>#>#const=)
      Memcheck:Leak
      fun:_Znwj
      fun:_ZN4ROOT20TCollectionProxyInfo8GenerateINS0_8PushbackISt6vectorIbSaIbEEEEEEPS0_RKT_
      fun:_ZN4ROOT25GenerateInitInstanceLocalEPKSt6vectorIbSaIbEE
      fun:_Z41__static_initialization_and_destruction_0ii
      fun:_GLOBAL__I_G__set_cpp_environmentrootcint_vector
   }
   {
      boost::python::objects::py_function::py_function<boost::python::detail::caller<eformat::GenericStatus#(eformat::helper::Status::*)()#const,#boost::python::default_call_policies,#boost::mpl::vector2<eformat::GenericStatus,#eformat::helper::Status=>#>#>(boost::python::detail::caller<eformat::GenericStatus#(eformat::helper::Status::*)()#const,#boost::python::default_call_policies,#boost::mpl::vector2<eformat::GenericStatus,#eformat::helper::Status=>#>#const=)
      Memcheck:Leak
      fun:_Znwj
      fun:_ZN5boost6python7objects11py_functionC1INS0_6detail6callerIMN7eformat6helper6StatusEKFNS6_13GenericStatusEvENS0_21default_call_policiesENS_3mpl7vector2IS9_RS8_EEEEEERKT_
      fun:_ZN5boost6python6detail17make_function_auxIMN7eformat6helper6StatusEKFNS3_13GenericStatusEvENS0_21default_call_policiesENS_3mpl7vector2IS6_RS5_EEN4mpl_4int_ILi0EEEEENS0_3api6objectET_RKT0_RKT1_RKSt4pairIPKNS1_7keywordEST_ET2_
      fun:_ZN5boost6python13make_functionIMN7eformat6helper6StatusEKFNS2_13GenericStatusEvENS0_21default_call_policiesENS0_6detail8keywordsILj0EEENS_3mpl7vector2IS5_RS4_EEEENS0_3api6objectET_RKT0_RKT1_RKT2_
      fun:_ZN5boost6python6class_IN7eformat6helper6StatusENS0_6detail13not_specifiedES6_S6_E8def_implIS4_MS4_KFNS2_13GenericStatusEvENS5_10def_helperIPKcS6_S6_S6_EEEEvPT_SE_T0_RKT1_z
   }
   {
      (anonymous#namespace)::CreateVoidPtrPtrConverter(long)
      Memcheck:Leak
      fun:_Znwj
      fun:_ZN38_GLOBAL__N__ZN6PyROOT14gConvFactoriesE25CreateVoidPtrPtrConverterEl
      fun:_ZN6PyROOT15CreateConverterERKSsl
      fun:_ZN6PyROOT13TMethodHolderINS_13TScopeAdapterENS_14TMemberAdapterEE13InitCallFunc_Ev
      fun:_ZN6PyROOT13TMethodHolderINS_13TScopeAdapterENS_14TMemberAdapterEE10InitializeEv
   }
   {
      kpu8lgn
      Memcheck:Cond
      fun:ztvo5ke
      fun:kpu8lgn
      fun:kpuauthxa
      fun:kpuauth
      fun:OCISessionBegin
   }
   {
      Reflex::Environ<__gnu_cxx::__normal_iterator<std::pair<unsigned#int,#std::basic_string<char,#std::char_traits<char>,#std::allocator<char>#>#>*,#std::vector<std::pair<unsigned#int,#std::basic_string<char,#std::char_traits<char>,#std::allocator<char>#>#>,#std::allocator<std::pair<unsigned#int,#std::basic_string<char,#std::char_traits<char>,#std::allocator<char>#>#>#>#>#>#>::Create()
      Memcheck:Leak
      fun:_Znwj
      fun:_ZN6Reflex7EnvironIN9__gnu_cxx17__normal_iteratorIPSt4pairIjSsESt6vectorIS4_SaIS4_EEEEE6CreateEv
      fun:_ZNK19TGenCollectionProxy7Method06invokeEv
      fun:_ZN19TGenCollectionProxy9PushProxyEPv
      fun:_ZN23TVirtualCollectionProxy8TPushPopC1EPS_Pv
   }
   {
      lxldalc
      Memcheck:Leak
      fun:malloc
      fun:lxldalc
      fun:lxldlod
      fun:lxdlobj
      fun:lxdgetobj
   }
   {
      boost::python::objects::py_function::py_function<boost::python::detail::caller<unsigned#int#(eformat::helper::u32list::*)(long,#unsigned#int),#boost::python::default_call_policies,#boost::mpl::vector4<unsigned#int,#eformat::helper::u32list=,#long,#unsigned#int>#>#>(boost::python::detail::caller<unsigned#int#(eformat::helper::u32list::*)(long,#unsigned#int),#boost::python::default_call_policies,#boost::mpl::vector4<unsigned#int,#eformat::helper::u32list=,#long,#unsigned#int>#>#const=)
      Memcheck:Leak
      fun:_Znwj
      fun:_ZN5boost6python7objects11py_functionC1INS0_6detail6callerIMN7eformat6helper7u32listEFjljENS0_21default_call_policiesENS_3mpl7vector4IjRS8_ljEEEEEERKT_
      fun:_ZN5boost6python6detail17make_function_auxIMN7eformat6helper7u32listEFjljENS0_21default_call_policiesENS_3mpl7vector4IjRS5_ljEEN4mpl_4int_ILi0EEEEENS0_3api6objectET_RKT0_RKT1_RKSt4pairIPKNS1_7keywordESS_ET2_
      fun:_ZN5boost6python13make_functionIMN7eformat6helper7u32listEFjljENS0_21default_call_policiesENS0_6detail8keywordsILj0EEENS_3mpl7vector4IjRS4_ljEEEENS0_3api6objectET_RKT0_RKT1_RKT2_
      fun:_ZN5boost6python6class_IN7eformat6helper7u32listENS0_6detail13not_specifiedES6_S6_E8def_implIS4_MS4_FjljENS5_10def_helperIPKcS6_S6_S6_EEEEvPT_SD_T0_RKT1_z
   }
   {
      _nc_read_file_entry
      Memcheck:Leak
      fun:calloc
      fun:_nc_read_file_entry
      fun:_nc_read_tic_entry
      fun:_nc_read_terminfo_dirs
      fun:_nc_read_entry
   }
   {
      boost::python::objects::py_function::py_function<boost::python::detail::caller<unsigned#int#(*)(std::map<eformat::helper::SourceIdentifier,#eformat::ROBFragment<unsigned#int#const*>,#std::less<eformat::helper::SourceIdentifier>,#std::allocator<std::pair<eformat::helper::SourceIdentifier#const,#eformat::ROBFragment<unsigned#int#const*>#>#>#>=),#boost::python::default_call_policies,#boost::mpl::vector2<unsigned#int,#std::map<eformat::helper::SourceIdentifier,#eformat::ROBFragment<unsigned#int#const*>,#std::less<eformat::helper::SourceIdentifier>,#std::allocator<std::pair<eformat::helper::SourceIdentifier#const,#eformat::ROBFragment<unsigned#int#const*>#>#>#>=>#>#>(boost::python::detail::caller<unsigned#int#(*)(std::map<eformat::helper::SourceIdentifier,#eformat::ROBFragment<unsigned#int#const*>,#std::less<eformat::helper::SourceIdentifier>,#std::allocator<std::pair<eformat::helper::SourceIdentifier#const,#eformat::ROBFragment<unsigned#int#const*>#>#>#>=),#boost::python::default_call_policies,#boost::mpl::vector2<unsigned#int,#std::map<eformat::helper::SourceIdentifier,#eformat::ROBFragment<unsigned#int#const*>,#std::less<eformat::helper::SourceIdentifier>,#std::allocator<std::pair<eformat::helper::SourceIdentifier#const,#eformat::ROBFragment<unsigned#int#const*>#>#>#>=>#>#const=)
      Memcheck:Leak
      fun:_Znwj
      fun:_ZN5boost6python7objects11py_functionC1INS0_6detail6callerIPFjRSt3mapIN7eformat6helper16SourceIdentifierENS7_11ROBFragmentIPKjEESt4lessIS9_ESaISt4pairIKS9_SD_EEEENS0_21default_call_policiesENS_3mpl7vector2IjSL_EEEEEERKT_
      fun:_ZN5boost6python6detail17make_function_auxIPFjRSt3mapIN7eformat6helper16SourceIdentifierENS4_11ROBFragmentIPKjEESt4lessIS6_ESaISt4pairIKS6_SA_EEEENS0_21default_call_policiesENS_3mpl7vector2IjSI_EEN4mpl_4int_ILi0EEEEENS0_3api6objectET_RKT0_RKT1_RKSD_IPKNS1_7keywordES13_ET2_
      fun:_ZN5boost6python13make_functionIPFjRSt3mapIN7eformat6helper16SourceIdentifierENS3_11ROBFragmentIPKjEESt4lessIS5_ESaISt4pairIKS5_S9_EEEENS0_21default_call_policiesENS0_6detail8keywordsILj0EEENS_3mpl7vector2IjSH_EEEENS0_3api6objectET_RKT0_RKT1_RKT2_
      fun:_ZN5boost6python6class_ISt3mapIN7eformat6helper16SourceIdentifierENS3_11ROBFragmentIPKjEESt4lessIS5_ESaISt4pairIKS5_S9_EEENS0_6detail13not_specifiedESI_SI_E8def_implISG_PFjRSG_ENSH_10def_helperIPKcSI_SI_SI_EEEEvPT_SQ_T0_RKT1_z
   }
   {
      ROOT::TCollectionProxyInfo*#ROOT::TCollectionProxyInfo::Generate<ROOT::TCollectionProxyInfo::Pushback<std::vector<char,#std::allocator<char>#>#>#>(ROOT::TCollectionProxyInfo::Pushback<std::vector<char,#std::allocator<char>#>#>#const=)
      Memcheck:Leak
      fun:_Znwj
      fun:_ZN4ROOT20TCollectionProxyInfo8GenerateINS0_8PushbackISt6vectorIcSaIcEEEEEEPS0_RKT_
      fun:_ZN4ROOT25GenerateInitInstanceLocalEPKSt6vectorIcSaIcEE
      fun:_Z41__static_initialization_and_destruction_0ii
      fun:_GLOBAL__I_G__set_cpp_environmentrootcint_vector
   }
   {
      (anonymous#namespace)::CreateConstructorExecutor()
      Memcheck:Leak
      fun:_Znwj
      fun:_ZN38_GLOBAL__N__ZN6PyROOT14gExecFactoriesE25CreateConstructorExecutorEv
      fun:_ZN6PyROOT18TConstructorHolderINS_13TScopeAdapterENS_14TMemberAdapterEE13InitExecutor_ERPNS_9TExecutorE
      fun:_ZN6PyROOT13TMethodHolderINS_13TScopeAdapterENS_14TMemberAdapterEE10InitializeEv
      fun:_ZN6PyROOT18TConstructorHolderINS_13TScopeAdapterENS_14TMemberAdapterEEclEPNS_11ObjectProxyEP7_objectS7_
   }
   {
      boost::python::objects::py_function::py_function<boost::python::detail::caller<void#(*)(_object*,#eformat::helper::u32list#const=),#boost::python::with_custodian_and_ward<1u,#2u,#boost::python::default_call_policies>,#boost::mpl::vector3<void,#_object*,#eformat::helper::u32list#const=>#>#>(boost::python::detail::caller<void#(*)(_object*,#eformat::helper::u32list#const=),#boost::python::with_custodian_and_ward<1u,#2u,#boost::python::default_call_policies>,#boost::mpl::vector3<void,#_object*,#eformat::helper::u32list#const=>#>#const=)
      Memcheck:Leak
      fun:_Znwj
      fun:_ZN5boost6python7objects11py_functionC1INS0_6detail6callerIPFvP7_objectRKN7eformat6helper7u32listEENS0_23with_custodian_and_wardILj1ELj2ENS0_21default_call_policiesEEENS_3mpl7vector3IvS7_SC_EEEEEERKT_
      fun:_ZN5boost6python6detail17make_function_auxIPFvP7_objectRKN7eformat6helper7u32listEENS0_23with_custodian_and_wardILj1ELj2ENS0_21default_call_policiesEEENS_3mpl7vector3IvS4_S9_EEN4mpl_4int_ILi0EEEEENS0_3api6objectET_RKT0_RKT1_RKSt4pairIPKNS1_7keywordESX_ET2_
      fun:_ZN5boost6python6detail27make_keyword_range_functionIPFvP7_objectRKN7eformat6helper7u32listEENS0_23with_custodian_and_wardILj1ELj2ENS0_21default_call_policiesEEEEENS0_3api6objectET_RKT0_RKSt4pairIPKNS1_7keywordESO_E
      fun:_ZN5boost6python6detail30make_keyword_range_constructorINS_3mpl7vector1IRKN7eformat6helper7u32listEEENS3_4sizeISA_EENS0_7objects14pointer_holderINS_10shared_ptrINS5_17FullEventFragmentIPKjEEEESJ_EENS0_23with_custodian_and_wardILj1ELj2ENS0_21default_call_policiesEEEEENS0_3api6objectERKT2_RKSt4pairIPKNS1_7keywordESX_EPT1_PT_PT0_
   }
   {
      boost::python::objects::py_function::py_function<boost::python::detail::caller<eformat::helper::Version#(*)(eformat::Header<unsigned#int#const*>#const=),#boost::python::default_call_policies,#boost::mpl::vector2<eformat::helper::Version,#eformat::Header<unsigned#int#const*>#const=>#>#>(boost::python::detail::caller<eformat::helper::Version#(*)(eformat::Header<unsigned#int#const*>#const=),#boost::python::default_call_policies,#boost::mpl::vector2<eformat::helper::Version,#eformat::Header<unsigned#int#const*>#const=>#>#const=)
      Memcheck:Leak
      fun:_Znwj
      fun:_ZN5boost6python7objects11py_functionC1INS0_6detail6callerIPFN7eformat6helper7VersionERKNS6_6HeaderIPKjEEENS0_21default_call_policiesENS_3mpl7vector2IS8_SE_EEEEEERKT_
      fun:_ZN5boost6python6detail17make_function_auxIPFN7eformat6helper7VersionERKNS3_6HeaderIPKjEEENS0_21default_call_policiesENS_3mpl7vector2IS5_SB_EEN4mpl_4int_ILi0EEEEENS0_3api6objectET_RKT0_RKT1_RKSt4pairIPKNS1_7keywordESX_ET2_
      fun:_ZN5boost6python13make_functionIPFN7eformat6helper7VersionERKNS2_6HeaderIPKjEEENS0_21default_call_policiesENS0_6detail8keywordsILj0EEENS_3mpl7vector2IS4_SA_EEEENS0_3api6objectET_RKT0_RKT1_RKT2_
      fun:_ZN5boost6python6class_IN7eformat6HeaderIPKjEENS_12noncopyable_11noncopyableENS0_6detail13not_specifiedESA_E8def_implIS6_PFNS2_6helper7VersionERKS6_ENS9_10def_helperIPKcSA_SA_SA_EEEEvPT_SL_T0_RKT1_z
   }
   {
      TStorage::Alloc(unsigned#int)
      Memcheck:Leak
      fun:_Znaj
      fun:_ZN8TStorage5AllocEj
      fun:_ZN9TObjArray4InitEii
      fun:_ZN9TObjArrayC1Eii
      fun:_ZN5TFile4InitEb
   }
   {
      TStorage::Alloc(unsigned#int)
      Memcheck:Leak
      fun:_Znaj
      fun:_ZN8TStorage5AllocEj
      fun:_ZN9TObjArray4InitEii
      fun:_ZN9TObjArrayC1Eii
      fun:_ZN6TClass4InitEPKcsPKSt9type_infoP16TVirtualIsAProxyPFvPvR16TMemberInspectorPcES1_S1_iib
   }
   {
      (anonymous#namespace)::CreateVoidArrayConverter(long)
      Memcheck:Leak
      fun:_Znwj
      fun:_ZN38_GLOBAL__N__ZN6PyROOT14gConvFactoriesE24CreateVoidArrayConverterEl
      fun:_ZN6PyROOT15CreateConverterERKSsl
      fun:_ZN6PyROOT13PropertyProxy3SetEP11TDataMember
      fun:_ZN6PyROOT17PropertyProxy_NewINS_14TMemberAdapterEEEPNS_13PropertyProxyERKT_
   }
   {
      setupterm
      Memcheck:Leak
      fun:calloc
      fun:setupterm
      fun:tgetent
      fun:_rl_init_terminal_io
      fun:rl_initialize
   }
   {
      CMP_ModularReduce
      Memcheck:Cond
      fun:CMP_Compare
      fun:CMP_ModularReduce
      fun:Alg_ComputeModQ_GHash
      fun:A_X931RandomGenerateBytes
      fun:ztcr2rnd
   }
   {
      nnfgspd
      Memcheck:Leak
      fun:calloc
      fun:nnfgspd
      fun:nnfgsrsp
      fun:nnfgiinit
      fun:nnfgauto
   }
   {
      Reflex::FunctionTypeBuilder(Reflex::Type#const=,#Reflex::Type#const=,#Reflex::Type#const=)
      Memcheck:Leak
      fun:_Znwj
      fun:_ZN6Reflex19FunctionTypeBuilderERKNS_4TypeES2_S2_
      fun:_ZN84_GLOBAL__N_.._i686_slc4_gcc34_dbg_dict_GaudiPython_kernel_dict.cpp_9D2164D3_B5DBB98A84_GLOBAL__N_.._i686_slc4_gcc34_dbg_dict_GaudiPython_kernel_dict.cpp_9D2164D3_B5DBB98A12DictionariesC1Ev
      fun:_Z41__static_initialization_and_destruction_0ii
      fun:_GLOBAL__I__ZN84_GLOBAL__N_.._i686_slc4_gcc34_dbg_dict_GaudiPython_kernel_dict.cpp_9D2164D3_B5DBB98A4nsb0E
   }
   {
      __gnu_cxx::new_allocator<std::_Rb_tree_node<std::pair<int#const,#std::set<G__ifunc_table,#std::less<G__ifunc_table>,#std::allocator<G__ifunc_table>#>#>#>#>::allocate(unsigned#int,#void#const*)
      Memcheck:Leak
      fun:_Znwj
      fun:_ZN9__gnu_cxx13new_allocatorISt13_Rb_tree_nodeISt4pairIKiSt3setI14G__ifunc_tableSt4lessIS5_ESaIS5_EEEEE8allocateEjPKv
      fun:_ZNSt8_Rb_treeIiSt4pairIKiSt3setI14G__ifunc_tableSt4lessIS3_ESaIS3_EEESt10_Select1stIS8_ES4_IiESaIS8_EE11_M_get_nodeEv
      fun:_ZNSt8_Rb_treeIiSt4pairIKiSt3setI14G__ifunc_tableSt4lessIS3_ESaIS3_EEESt10_Select1stIS8_ES4_IiESaIS8_EE14_M_create_nodeERKS8_
      fun:_ZNSt8_Rb_treeIiSt4pairIKiSt3setI14G__ifunc_tableSt4lessIS3_ESaIS3_EEESt10_Select1stIS8_ES4_IiESaIS8_EE9_M_insertEPSt18_Rb_tree_node_baseSF_RKS8_
   }
   {
      G__search_typename
      Memcheck:Leak
      fun:malloc
      fun:G__search_typename
      fun:G__search_typename2
      fun:_ZN4ROOT6Cintex18CINTTypedefBuilder3SetEPKcS3_
      fun:_ZN55_GLOBAL__N_cint_cintex_src_Cintex.cxx_EF105EC1_30BF528132Declare_additional_CINT_typedefsEv
   }
   {
      _PyImport_Init
      Memcheck:Leak
      fun:malloc
      fun:_PyImport_Init
      fun:Py_InitializeEx
      fun:Py_Initialize
      fun:Py_Main
   }
   {
      boost::python::objects::py_function::py_function<boost::python::detail::caller<boost::python::detail::member<bool,#eformat::helper::StreamTag>,#boost::python::return_value_policy<boost::python::return_by_value,#boost::python::default_call_policies>,#boost::mpl::vector2<bool=,#eformat::helper::StreamTag=>#>#>(boost::python::detail::caller<boost::python::detail::member<bool,#eformat::helper::StreamTag>,#boost::python::return_value_policy<boost::python::return_by_value,#boost::python::default_call_policies>,#boost::mpl::vector2<bool=,#eformat::helper::StreamTag=>#>#const=)
      Memcheck:Leak
      fun:_Znwj
      fun:_ZN5boost6python7objects11py_functionC1INS0_6detail6callerINS4_6memberIbN7eformat6helper9StreamTagEEENS0_19return_value_policyINS0_15return_by_valueENS0_21default_call_policiesEEENS_3mpl7vector2IRbRS9_EEEEEERKT_
      fun:_ZN5boost6python6detail17make_function_auxINS1_6memberIbN7eformat6helper9StreamTagEEENS0_19return_value_policyINS0_15return_by_valueENS0_21default_call_policiesEEENS_3mpl7vector2IRbRS6_EEEENS0_3api6objectET_RKT0_RKT1_
      fun:_ZN5boost6python6detail22make_function_dispatchINS1_6memberIbN7eformat6helper9StreamTagEEENS0_19return_value_policyINS0_15return_by_valueENS0_21default_call_policiesEEENS_3mpl7vector2IRbRS6_EEEENS0_3api6objectET_RKT0_RKT1_N4mpl_5bool_ILb0EEE
      fun:_ZN5boost6python13make_functionINS0_6detail6memberIbN7eformat6helper9StreamTagEEENS0_19return_value_policyINS0_15return_by_valueENS0_21default_call_policiesEEENS_3mpl7vector2IRbRS6_EEEENS0_3api6objectET_RKT0_RKT1_
   }
   {
      ROOT::TCollectionProxyInfo*#ROOT::TCollectionProxyInfo::Generate<ROOT::TCollectionProxyInfo::Pushback<std::vector<std::pair<double,#double>,#std::allocator<std::pair<double,#double>#>#>#>#>(ROOT::TCollectionProxyInfo::Pushback<std::vector<std::pair<double,#double>,#std::allocator<std::pair<double,#double>#>#>#>#const=)
      Memcheck:Leak
      fun:_Znwj
      fun:_ZN4ROOT20TCollectionProxyInfo8GenerateINS0_8PushbackISt6vectorISt4pairIddESaIS5_EEEEEEPS0_RKT_
      fun:_ZN4ROOT25GenerateInitInstanceLocalEPKSt6vectorISt4pairIddESaIS2_EE
      fun:_Z41__static_initialization_and_destruction_0ii
      fun:_GLOBAL__I__ZN4ROOT20GenerateInitInstanceEPKNS_3Fit11DataOptionsE
   }
   {
      Reflex::Scope::__NIRVANA__()
      Memcheck:Leak
      fun:_Znwj
      fun:_ZN6Reflex5Scope11__NIRVANA__Ev
      fun:_ZN6Reflex9ScopeBaseC2Ev
      fun:_ZN6Reflex9NamespaceC1Ev
      fun:_ZN6Reflex9Namespace11GlobalScopeEv
   }
   {
      Cint::Internal::G__StrBuf::GetBuf(int=)
      Memcheck:Leak
      fun:_Znaj
      fun:_ZN4Cint8Internal9G__StrBuf6GetBufERi
      fun:_ZN4Cint8Internal9G__StrBufC1Ei
      fun:G__RegisterLibrary
      fun:G__add_setup_func
   }
   {
      Reflex::Environ<__gnu_cxx::__normal_iterator<CaloHadDMCoeff2::HadDMArea*,#std::vector<CaloHadDMCoeff2::HadDMArea,#std::allocator<CaloHadDMCoeff2::HadDMArea>#>#>#>::Create()
      Memcheck:Leak
      fun:_Znwj
      fun:_ZN6Reflex7EnvironIN9__gnu_cxx17__normal_iteratorIPN15CaloHadDMCoeff29HadDMAreaESt6vectorIS4_SaIS4_EEEEE6CreateEv
      fun:_ZNK19TGenCollectionProxy7Method06invokeEv
      fun:_ZN19TGenCollectionProxy9PushProxyEPv
      fun:_ZN23TVirtualCollectionProxy8TPushPopC1EPS_Pv
   }
   {
      __gnu_cxx::new_allocator<std::_Rb_tree_node<std::pair<void*#const,#_object*>#>#>::allocate(unsigned#int,#void#const*)
      Memcheck:Leak
      fun:_Znwj
      fun:_ZN9__gnu_cxx13new_allocatorISt13_Rb_tree_nodeISt4pairIKPvP7_objectEEE8allocateEjPKv
      fun:_ZNSt8_Rb_treeIPvSt4pairIKS0_P7_objectESt10_Select1stIS5_ESt4lessIS0_ESaIS5_EE11_M_get_nodeEv
      fun:_ZNSt8_Rb_treeIPvSt4pairIKS0_P7_objectESt10_Select1stIS5_ESt4lessIS0_ESaIS5_EE14_M_create_nodeERKS5_
      fun:_ZNSt8_Rb_treeIPvSt4pairIKS0_P7_objectESt10_Select1stIS5_ESt4lessIS0_ESaIS5_EE9_M_insertEPSt18_Rb_tree_node_baseSD_RKS5_
   }
   {
      boost::python::objects::py_function::py_function<boost::python::detail::caller<boost::python::detail::member<unsigned#int,#EventStorage::run_parameters_record>,#boost::python::return_value_policy<boost::python::return_by_value,#boost::python::default_call_policies>,#boost::mpl::vector2<unsigned#int=,#EventStorage::run_parameters_record=>#>#>(boost::python::detail::caller<boost::python::detail::member<unsigned#int,#EventStorage::run_parameters_record>,#boost::python::return_value_policy<boost::python::return_by_value,#boost::python::default_call_policies>,#boost::mpl::vector2<unsigned#int=,#EventStorage::run_parameters_record=>#>#const=)
      Memcheck:Leak
      fun:_Znwj
      fun:_ZN5boost6python7objects11py_functionC1INS0_6detail6callerINS4_6memberIjN12EventStorage21run_parameters_recordEEENS0_19return_value_policyINS0_15return_by_valueENS0_21default_call_policiesEEENS_3mpl7vector2IRjRS8_EEEEEERKT_
      fun:_ZN5boost6python6detail17make_function_auxINS1_6memberIjN12EventStorage21run_parameters_recordEEENS0_19return_value_policyINS0_15return_by_valueENS0_21default_call_policiesEEENS_3mpl7vector2IRjRS5_EEEENS0_3api6objectET_RKT0_RKT1_
      fun:_ZN5boost6python6detail22make_function_dispatchINS1_6memberIjN12EventStorage21run_parameters_recordEEENS0_19return_value_policyINS0_15return_by_valueENS0_21default_call_policiesEEENS_3mpl7vector2IRjRS5_EEEENS0_3api6objectET_RKT0_RKT1_N4mpl_5bool_ILb0EEE
      fun:_ZN5boost6python13make_functionINS0_6detail6memberIjN12EventStorage21run_parameters_recordEEENS0_19return_value_policyINS0_15return_by_valueENS0_21default_call_policiesEEENS_3mpl7vector2IRjRS5_EEEENS0_3api6objectET_RKT0_RKT1_
   }
   {
      Reflex::Environ<__gnu_cxx::__normal_iterator<DataHeaderElement_p4*,#std::vector<DataHeaderElement_p4,#std::allocator<DataHeaderElement_p4>#>#>#>::Create()
      Memcheck:Leak
      fun:_Znwj
      fun:_ZN6Reflex7EnvironIN9__gnu_cxx17__normal_iteratorIP20DataHeaderElement_p4St6vectorIS3_SaIS3_EEEEE6CreateEv
      fun:_ZNK19TGenCollectionProxy7Method06invokeEv
      fun:_ZN19TGenCollectionProxy9PushProxyEPv
      fun:_ZN23TVirtualCollectionProxy8TPushPopC1EPS_Pv
   }
   {
      __gnu_cxx::new_allocator<Reflex::Member>::allocate(unsigned#int,#void#const*)
      Memcheck:Leak
      fun:_Znwj
      fun:_ZN9__gnu_cxx13new_allocatorIN6Reflex6MemberEE8allocateEjPKv
      fun:_ZNSt12_Vector_baseIN6Reflex6MemberESaIS1_EE11_M_allocateEj
      fun:_ZNSt6vectorIN6Reflex6MemberESaIS1_EE13_M_insert_auxEN9__gnu_cxx17__normal_iteratorIPS1_S3_EERKS1_
      fun:_ZNSt6vectorIN6Reflex6MemberESaIS1_EE9push_backERKS1_
   }
   {
      PyArena_New
      Memcheck:Leak
      fun:malloc
      fun:PyArena_New
      fun:PyRun_FileExFlags
      fun:builtin_execfile
      fun:PyCFunction_Call
   }
   {
      boost::python::objects::py_function::py_function<boost::python::detail::caller<std::basic_string<char,#std::char_traits<char>,#std::allocator<char>#>#(eformat::helper::Version::*)()#const,#boost::python::default_call_policies,#boost::mpl::vector2<std::basic_string<char,#std::char_traits<char>,#std::allocator<char>#>,#eformat::helper::Version=>#>#>(boost::python::detail::caller<std::basic_string<char,#std::char_traits<char>,#std::allocator<char>#>#(eformat::helper::Version::*)()#const,#boost::python::default_call_policies,#boost::mpl::vector2<std::basic_string<char,#std::char_traits<char>,#std::allocator<char>#>,#eformat::helper::Version=>#>#const=)
      Memcheck:Leak
      fun:_Znwj
      fun:_ZN5boost6python7objects11py_functionC1INS0_6detail6callerIMN7eformat6helper7VersionEKFSsvENS0_21default_call_policiesENS_3mpl7vector2ISsRS8_EEEEEERKT_
      fun:_ZN5boost6python6detail17make_function_auxIMN7eformat6helper7VersionEKFSsvENS0_21default_call_policiesENS_3mpl7vector2ISsRS5_EEN4mpl_4int_ILi0EEEEENS0_3api6objectET_RKT0_RKT1_RKSt4pairIPKNS1_7keywordESS_ET2_
      fun:_ZN5boost6python13make_functionIMN7eformat6helper7VersionEKFSsvENS0_21default_call_policiesENS0_6detail8keywordsILj0EEENS_3mpl7vector2ISsRS4_EEEENS0_3api6objectET_RKT0_RKT1_RKT2_
      fun:_ZN5boost6python6class_IN7eformat6helper7VersionENS0_6detail13not_specifiedES6_S6_E8def_implIS4_MS4_KFSsvENS5_10def_helperIPKcS6_S6_S6_EEEEvPT_SD_T0_RKT1_z
   }
   {
      Reflex::TypeBuilder(char#const*,#unsigned#int)
      Memcheck:Leak
      fun:_Znwj
      fun:_ZN6Reflex11TypeBuilderEPKcj
      fun:_ZN109_GLOBAL__N_.._i686_slc4_gcc34_dbg_dict_LArRawConditions1_LArRawConditionsDict1_gen_rflx.cpp_9D2164D3_E58A64A210method_x70EPvS0_RKSt6vectorIS0_SaIS0_EES0_
      fun:_ZNK6Reflex14FunctionMember6InvokeEPNS_6ObjectERKSt6vectorIPvSaIS4_EE
      fun:_ZNK6Reflex6Member6InvokeEPNS_6ObjectERKSt6vectorIPvSaIS4_EE
   }
   {
      std::vector<boost::tuples::cons<boost::python::type_info,#boost::tuples::cons<unsigned#int,#boost::tuples::cons<std::pair<void*,#boost::python::type_info>#(*)(void*),#boost::tuples::null_type>#>#>,#std::allocator<boost::tuples::cons<boost::python::type_info,#boost::tuples::cons<unsigned#int,#boost::tuples::cons<std::pair<void*,#boost::python::type_info>#(*)(void*),#boost::tuples::null_type>#>#>#>#>::_M_insert_aux(__gnu_cxx::__normal_iterator<boost::tuples::cons<boost::python::type_info,#boost::tuples::cons<unsigned#int,#boost::tuples::cons<std::pair<void*,#boost::python::type_info>#(*)(void*),#boost::tuples::null_type>#>#>*,#std::vector<boost::tuples::cons<boost::python::type_info,#boost::tuples::cons<unsigned#int,#boost::tuples::cons<std::pair<void*,#boost::python::type_info>#(*)(void*),#boost::tuples::null_type>#>#>,#std::allocator<boost::tuples::cons<boost::python::type_info,#boost::tuples::cons<unsigned#int,#boost::tuples::cons<std::pair<void*,#boost::python::type_info>#(*)(void*),#boost::tuples::null_type>#>#>#>#>#>,#boost::tuples::cons<boost::python::type_info,#boost::tuples::cons<unsigned#int,#boost::tuples::cons<std::pair<void*,#boost::python::type_info>#(*)(void*),#boost::tuples::null_type>#>#>#const=)
      Memcheck:Leak
      fun:_Znwj
      fun:_ZNSt6vectorIN5boost6tuples4consINS0_6python9type_infoENS2_IjNS2_IPFSt4pairIPvS4_ES6_ENS1_9null_typeEEEEEEESaISD_EE13_M_insert_auxEN9__gnu_cxx17__normal_iteratorIPSD_SF_EERKSD_
      fun:_ZNSt6vectorIN5boost6tuples4consINS0_6python9type_infoENS2_IjNS2_IPFSt4pairIPvS4_ES6_ENS1_9null_typeEEEEEEESaISD_EE6insertEN9__gnu_cxx17__normal_iteratorIPSD_SF_EERKSD_
      fun:_ZN5boost67_GLOBAL__N_libs_python_src_object_inheritance.cpp_CF14568D_462478FE11demand_typeENS_6python9type_infoE
      fun:_ZN5boost6python7objects23register_dynamic_id_auxENS0_9type_infoEPFSt4pairIPvS2_ES4_E
   }
   {
      boost::python::objects::py_function::py_function<boost::python::detail::caller<eformat::helper::u32list#(*)(eformat::write::ROBFragment=),#boost::python::default_call_policies,#boost::mpl::vector2<eformat::helper::u32list,#eformat::write::ROBFragment=>#>#>(boost::python::detail::caller<eformat::helper::u32list#(*)(eformat::write::ROBFragment=),#boost::python::default_call_policies,#boost::mpl::vector2<eformat::helper::u32list,#eformat::write::ROBFragment=>#>#const=)
      Memcheck:Leak
      fun:_Znwj
      fun:_ZN5boost6python7objects11py_functionC1INS0_6detail6callerIPFN7eformat6helper7u32listERNS6_5write11ROBFragmentEENS0_21default_call_policiesENS_3mpl7vector2IS8_SB_EEEEEERKT_
      fun:_ZN5boost6python6detail17make_function_auxIPFN7eformat6helper7u32listERNS3_5write11ROBFragmentEENS0_21default_call_policiesENS_3mpl7vector2IS5_S8_EEN4mpl_4int_ILi0EEEEENS0_3api6objectET_RKT0_RKT1_RKSt4pairIPKNS1_7keywordESU_ET2_
      fun:_ZN5boost6python13make_functionIPFN7eformat6helper7u32listERNS2_5write11ROBFragmentEENS0_21default_call_policiesENS0_6detail8keywordsILj0EEENS_3mpl7vector2IS4_S7_EEEENS0_3api6objectET_RKT0_RKT1_RKT2_
      fun:_ZN5boost6python6class_IN7eformat5write11ROBFragmentENS0_6detail13not_specifiedES6_S6_E8def_implIS4_PFNS2_6helper7u32listERS4_ENS5_10def_helperIPKcS6_S6_S6_EEEEvPT_SG_T0_RKT1_z
   }
   {
      lfvLoadPkg
      Memcheck:Leak
      fun:malloc
      fun:lfvLoadPkg
      fun:lfvSetShlMode
      fun:lfvini1
      fun:lfvinit
   }
   {
      ROOT::Cintex::CINTFunctionBuilder::Setup(Reflex::Member#const=)
      Memcheck:Leak
      fun:_Znwj
      fun:_ZN4ROOT6Cintex19CINTFunctionBuilder5SetupERKN6Reflex6MemberE
      fun:_ZN4ROOT6Cintex16CINTClassBuilder13Setup_memfuncEv
      fun:_ZN4ROOT6Cintex16CINTClassBuilder26Setup_memfunc_with_contextEPv
      obj:*
   }
   {
      Reflex::MemberTemplateImpl::MemberTemplateImpl(char#const*,#Reflex::Scope#const=,#std::vector<std::basic_string<char,#std::char_traits<char>,#std::allocator<char>#>,#std::allocator<std::basic_string<char,#std::char_traits<char>,#std::allocator<char>#>#>#>#const=,#std::vector<std::basic_string<char,#std::char_traits<char>,#std::allocator<char>#>,#std::allocator<std::basic_string<char,#std::char_traits<char>,#std::allocator<char>#>#>#>#const=)
      Memcheck:Leak
      fun:_Znwj
      fun:_ZN6Reflex18MemberTemplateImplC1EPKcRKNS_5ScopeERKSt6vectorISsSaISsEESA_
      fun:_ZN6Reflex30FunctionMemberTemplateInstanceC1EPKcRKNS_4TypeEPFvPvS6_RKSt6vectorIS6_SaIS6_EES6_ES6_S2_jRKNS_5ScopeE
      fun:_ZN6Reflex16ClassBuilderImpl17AddFunctionMemberEPKcRKNS_4TypeEPFvPvS6_RKSt6vectorIS6_SaIS6_EES6_ES6_S2_j
      fun:_ZN6Reflex12ClassBuilder17AddFunctionMemberERKNS_4TypeEPKcPFvPvS6_RKSt6vectorIS6_SaIS6_EES6_ES6_S5_j
   }
   {
      PyObject_Malloc
      Memcheck:Leak
      fun:malloc
      fun:PyObject_Malloc
      fun:PyString_FromStringAndSize
      fun:r_object
      fun:r_object
   }
   {
      TStreamerInfo::Compile()
      Memcheck:Leak
      fun:_Znaj
      fun:_ZN13TStreamerInfo7CompileEv
      fun:_ZN13TStreamerInfo5BuildEv
      fun:_ZNK6TClass15GetStreamerInfoEi
      fun:_ZN5TTree17BuildStreamerInfoEP6TClassPv
   }
   {
      PyObject_Malloc
      Memcheck:Leak
      fun:realloc
      fun:PyObject_Malloc
      fun:PyObject_Realloc
      fun:PyNode_AddChild
      fun:PyParser_AddToken
   }
   {
      (anonymous#namespace)::Factory<ChronoAuditor,#IAuditor*#()(std::basic_string<char,#std::char_traits<char>,#std::allocator<char>#>,#ISvcLocator*)>::Func(void*,#void*,#std::vector<void*,#std::allocator<void*>#>#const=,#void*)
      Memcheck:Leak
      fun:_Znwj
      fun:_ZN53_GLOBAL__N_.._src_ChronoAuditor.cpp_9D2164D3_8637D6FF7FactoryI13ChronoAuditorFP8IAuditorSsP11ISvcLocatorEE4FuncEPvS8_RKSt6vectorIS8_SaIS8_EES8_
      fun:_ZNK6Reflex14FunctionMember6InvokeERKNS_6ObjectEPS1_RKSt6vectorIPvSaIS6_EE
      fun:_ZNK6Reflex6Member6InvokeERKNS_6ObjectEPS1_RKSt6vectorIPvSaIS6_EE
      fun:_ZNK6Reflex6Member6InvokeIPvEEvRKNS_6ObjectERT_RKSt6vectorIS2_SaIS2_EE
   }
   {
      __gnu_cxx::new_allocator<unsigned#long>::allocate(unsigned#int,#void#const*)
      Memcheck:Leak
      fun:_Znwj
      fun:_ZN9__gnu_cxx13new_allocatorImE8allocateEjPKv
      fun:_ZNSt13_Bvector_baseISaIbEE11_M_allocateEj
      fun:_ZNSt6vectorIbSaIbEE13_M_insert_auxESt13_Bit_iteratorb
      fun:_ZNSt6vectorIbSaIbEE9push_backEb
   }
   {
      Auditor::Auditor(std::basic_string<char,#std::char_traits<char>,#std::allocator<char>#>#const=,#ISvcLocator*)
      Memcheck:Leak
      fun:_Znwj
      fun:_ZN7AuditorC2ERKSsP11ISvcLocator
      fun:_ZN11NameAuditorC1ERKSsP11ISvcLocator
      fun:_ZN51_GLOBAL__N_.._src_NameAuditor.cpp_9D2164D3_D73FEC677FactoryI11NameAuditorFP8IAuditorSsP11ISvcLocatorEE4FuncEPvS8_RKSt6vectorIS8_SaIS8_EES8_
      fun:_ZNK6Reflex14FunctionMember6InvokeERKNS_6ObjectEPS1_RKSt6vectorIPvSaIS6_EE
   }
   {
      OraMemInit
      Memcheck:Leak
      fun:malloc
      fun:OraMemInit
      fun:lmlinit
      fun:lpminitm
      fun:lpminit
   }
   {
      boost::python::objects::py_function::py_function<boost::python::detail::caller<bool#(*)(eformat::ROBFragment<unsigned#int#const*>=,#unsigned#short,#unsigned#short),#boost::python::default_call_policies,#boost::mpl::vector4<bool,#eformat::ROBFragment<unsigned#int#const*>=,#unsigned#short,#unsigned#short>#>#>(boost::python::detail::caller<bool#(*)(eformat::ROBFragment<unsigned#int#const*>=,#unsigned#short,#unsigned#short),#boost::python::default_call_policies,#boost::mpl::vector4<bool,#eformat::ROBFragment<unsigned#int#const*>=,#unsigned#short,#unsigned#short>#>#const=)
      Memcheck:Leak
      fun:_Znwj
      fun:_ZN5boost6python7objects11py_functionC1INS0_6detail6callerIPFbRN7eformat11ROBFragmentIPKjEEttENS0_21default_call_policiesENS_3mpl7vector4IbSB_ttEEEEEERKT_
      fun:_ZN5boost6python6detail17make_function_auxIPFbRN7eformat11ROBFragmentIPKjEEttENS0_21default_call_policiesENS_3mpl7vector4IbS8_ttEEN4mpl_4int_ILi0EEEEENS0_3api6objectET_RKT0_RKT1_RKSt4pairIPKNS1_7keywordESU_ET2_
      fun:_ZN5boost6python6detail27make_keyword_range_functionIPFbRN7eformat11ROBFragmentIPKjEEttENS0_21default_call_policiesENS_3mpl7vector4IbS8_ttEEEENS0_3api6objectET_RKT0_RKSt4pairIPKNS1_7keywordESO_ERKT1_
      fun:_ZN5boost6python6detail14name_space_defIPFbRN7eformat11ROBFragmentIPKjEEttENS0_21default_call_policiesENS0_6class_IS7_NS0_5basesINS3_6HeaderIS6_EEN4mpl_5void_ESH_SH_SH_SH_SH_SH_SH_SH_EENS1_13not_specifiedESJ_EEEEvRT1_PKcT_RKSt4pairIPKNS1_7keywordEST_ERKT0_SO_PNS0_7objects10class_baseE
   }
   {
      boost::python::objects::py_function::py_function<boost::python::detail::caller<void#(*)(_object*,#std::basic_string<char,#std::char_traits<char>,#std::allocator<char>#>,#unsigned#int),#boost::python::default_call_policies,#boost::mpl::vector4<void,#_object*,#std::basic_string<char,#std::char_traits<char>,#std::allocator<char>#>,#unsigned#int>#>#>(boost::python::detail::caller<void#(*)(_object*,#std::basic_string<char,#std::char_traits<char>,#std::allocator<char>#>,#unsigned#int),#boost::python::default_call_policies,#boost::mpl::vector4<void,#_object*,#std::basic_string<char,#std::char_traits<char>,#std::allocator<char>#>,#unsigned#int>#>#const=)
      Memcheck:Leak
      fun:_Znwj
      fun:_ZN5boost6python7objects11py_functionC1INS0_6detail6callerIPFvP7_objectSsjENS0_21default_call_policiesENS_3mpl7vector4IvS7_SsjEEEEEERKT_
      fun:_ZN5boost6python6detail17make_function_auxIPFvP7_objectSsjENS0_21default_call_policiesENS_3mpl7vector4IvS4_SsjEEN4mpl_4int_ILi0EEEEENS0_3api6objectET_RKT0_RKT1_RKSt4pairIPKNS1_7keywordESQ_ET2_
      fun:_ZN5boost6python6detail27make_keyword_range_functionIPFvP7_objectSsjENS0_21default_call_policiesEEENS0_3api6objectET_RKT0_RKSt4pairIPKNS1_7keywordESH_E
      fun:_ZN5boost6python6detail30make_keyword_range_constructorINS_3mpl10joint_viewINS1_5drop1INS1_9type_listISsjNS0_8optionalISsN4mpl_5void_ES9_S9_S9_S9_S9_S9_S9_S9_S9_S9_S9_S9_S9_EES9_S9_S9_S9_S9_S9_S9_S9_S9_S9_S9_S9_S9_S9_EEEESA_EENS8_10integral_cIlLl2EEENS0_7objects12value_holderIN3daq11RawFileNameEEENS0_21default_call_policiesEEENS0_3api6objectERKT2_RKSt4pairIPKNS1_7keywordESU_EPT1_PT_PT0_
   }
   {
      Reflex::TypeTemplateImpl::TypeTemplateImpl(char#const*,#Reflex::Scope#const=,#std::vector<std::basic_string<char,#std::char_traits<char>,#std::allocator<char>#>,#std::allocator<std::basic_string<char,#std::char_traits<char>,#std::allocator<char>#>#>#>,#std::vector<std::basic_string<char,#std::char_traits<char>,#std::allocator<char>#>,#std::allocator<std::basic_string<char,#std::char_traits<char>,#std::allocator<char>#>#>#>)
      Memcheck:Leak
      fun:_Znwj
      fun:_ZN6Reflex16TypeTemplateImplC1EPKcRKNS_5ScopeESt6vectorISsSaISsEES8_
      fun:_ZN6Reflex21ClassTemplateInstanceC1EPKcjRKSt9type_infoj
      fun:_ZN6Reflex16ClassBuilderImplC1EPKcRKSt9type_infojjNS_4TYPEE
      fun:_ZN6Reflex12ClassBuilderC1EPKcRKSt9type_infojjNS_4TYPEE
   }
   {
      SvcFactory<MessageSvc>::create(std::basic_string<char,#std::char_traits<char>,#std::allocator<char>#>#const=,#ISvcLocator*)
      Memcheck:Leak
      fun:_Znwj
      fun:_ZN10SvcFactoryI10MessageSvcE6createERKSsP11ISvcLocator
      fun:_ZN61_GLOBAL__N_.._src_MessageSvc_MessageSvc.cpp_9D2164D3_E48091907FactoryI10MessageSvcFP8IServiceSsP11ISvcLocatorEE4FuncEPvS8_RKSt6vectorIS8_SaIS8_EES8_
      fun:_ZNK6Reflex14FunctionMember6InvokeERKNS_6ObjectEPS1_RKSt6vectorIPvSaIS6_EE
      fun:_ZNK6Reflex6Member6InvokeERKNS_6ObjectEPS1_RKSt6vectorIPvSaIS6_EE
   }
   {
      boost::python::objects::py_function::py_function<boost::python::detail::caller<void#(*)(std::map<eformat::helper::SourceIdentifier,#eformat::ROBFragment<unsigned#int#const*>,#std::less<eformat::helper::SourceIdentifier>,#std::allocator<std::pair<eformat::helper::SourceIdentifier#const,#eformat::ROBFragment<unsigned#int#const*>#>#>#>=,#_object*),#boost::python::default_call_policies,#boost::mpl::vector3<void,#std::map<eformat::helper::SourceIdentifier,#eformat::ROBFragment<unsigned#int#const*>,#std::less<eformat::helper::SourceIdentifier>,#std::allocator<std::pair<eformat::helper::SourceIdentifier#const,#eformat::ROBFragment<unsigned#int#const*>#>#>#>=,#_object*>#>#>(boost::python::detail::caller<void#(*)(std::map<eformat::helper::SourceIdentifier,#eformat::ROBFragment<unsigned#int#const*>,#std::less<eformat::helper::SourceIdentifier>,#std::allocator<std::pair<eformat::helper::SourceIdentifier#const,#eformat::ROBFragment<unsigned#int#const*>#>#>#>=,#_object*),#boost::python::default_call_policies,#boost::mpl::vector3<void,#std::map<eformat::helper::SourceIdentifier,#eformat::ROBFragment<unsigned#int#const*>,#std::less<eformat::helper::SourceIdentifier>,#std::allocator<std::pair<eformat::helper::SourceIdentifier#const,#eformat::ROBFragment<unsigned#int#const*>#>#>#>=,#_object*>#>#const=)
      Memcheck:Leak
      fun:_Znwj
      fun:_ZN5boost6python7objects11py_functionC1INS0_6detail6callerIPFvRSt3mapIN7eformat6helper16SourceIdentifierENS7_11ROBFragmentIPKjEESt4lessIS9_ESaISt4pairIKS9_SD_EEEP7_objectENS0_21default_call_policiesENS_3mpl7vector3IvSL_SN_EEEEEERKT_
      fun:_ZN5boost6python6detail17make_function_auxIPFvRSt3mapIN7eformat6helper16SourceIdentifierENS4_11ROBFragmentIPKjEESt4lessIS6_ESaISt4pairIKS6_SA_EEEP7_objectENS0_21default_call_policiesENS_3mpl7vector3IvSI_SK_EEN4mpl_4int_ILi0EEEEENS0_3api6objectET_RKT0_RKT1_RKSD_IPKNS1_7keywordES15_ET2_
      fun:_ZN5boost6python13make_functionIPFvRSt3mapIN7eformat6helper16SourceIdentifierENS3_11ROBFragmentIPKjEESt4lessIS5_ESaISt4pairIKS5_S9_EEEP7_objectENS0_21default_call_policiesENS0_6detail8keywordsILj0EEENS_3mpl7vector3IvSH_SJ_EEEENS0_3api6objectET_RKT0_RKT1_RKT2_
      fun:_ZN5boost6python6class_ISt3mapIN7eformat6helper16SourceIdentifierENS3_11ROBFragmentIPKjEESt4lessIS5_ESaISt4pairIKS5_S9_EEENS0_6detail13not_specifiedESI_SI_E8def_implISG_PFvRSG_P7_objectENSH_10def_helperIPKcSI_SI_SI_EEEEvPT_SS_T0_RKT1_z
   }
   {
      Reflex::ClassTemplateInstance::ClassTemplateInstance(char#const*,#unsigned#int,#std::type_info#const=,#unsigned#int)
      Memcheck:Leak
      fun:_Znwj
      fun:_ZN6Reflex21ClassTemplateInstanceC1EPKcjRKSt9type_infoj
      fun:_ZN6Reflex16ClassBuilderImplC1EPKcRKSt9type_infojjNS_4TYPEE
      fun:_ZN6Reflex12ClassBuilderC1EPKcRKSt9type_infojjNS_4TYPEE
      fun:_ZN84_GLOBAL__N_.._i686_slc4_gcc34_dbg_dict_GaudiPython_kernel_dict.cpp_9D2164D3_B5DBB98A81__PropertyWithValue_std__map_std__basic_string_char__std__vector_double_s_s__dictEv
   }
   {
      G__store_dictposition
      Memcheck:Leak
      fun:malloc
      fun:G__store_dictposition
      fun:G__store_undo_position
      fun:G__process_cmd
      fun:_ZN5TCint11ProcessLineEPKcPN12TInterpreter10EErrorCodeE
   }
   {
      boost::python::objects::py_function::py_function<boost::python::detail::caller<void#(eformat::write::ROBFragment::*)(unsigned#short),#boost::python::default_call_policies,#boost::mpl::vector3<void,#eformat::write::ROBFragment=,#unsigned#short>#>#>(boost::python::detail::caller<void#(eformat::write::ROBFragment::*)(unsigned#short),#boost::python::default_call_policies,#boost::mpl::vector3<void,#eformat::write::ROBFragment=,#unsigned#short>#>#const=)
      Memcheck:Leak
      fun:_Znwj
      fun:_ZN5boost6python7objects11py_functionC1INS0_6detail6callerIMN7eformat5write11ROBFragmentEFvtENS0_21default_call_policiesENS_3mpl7vector3IvRS8_tEEEEEERKT_
      fun:_ZN5boost6python6detail17make_function_auxIMN7eformat5write11ROBFragmentEFvtENS0_21default_call_policiesENS_3mpl7vector3IvRS5_tEEN4mpl_4int_ILi0EEEEENS0_3api6objectET_RKT0_RKT1_RKSt4pairIPKNS1_7keywordESS_ET2_
      fun:_ZN5boost6python13make_functionIMN7eformat5write11ROBFragmentEFvtENS0_21default_call_policiesENS0_6detail8keywordsILj0EEENS_3mpl7vector3IvRS4_tEEEENS0_3api6objectET_RKT0_RKT1_RKT2_
      fun:_ZN5boost6python6class_IN7eformat5write11ROBFragmentENS0_6detail13not_specifiedES6_S6_E8def_implIS4_MS4_FvtENS5_10def_helperIPKcS6_S6_S6_EEEEvPT_SD_T0_RKT1_z
   }
   {
      __gnu_cxx::new_allocator<std::_Rb_tree_node<G__ifunc_table>#>::allocate(unsigned#int,#void#const*)
      Memcheck:Leak
      fun:_Znwj
      fun:_ZN9__gnu_cxx13new_allocatorISt13_Rb_tree_nodeI14G__ifunc_tableEE8allocateEjPKv
      fun:_ZNSt8_Rb_treeI14G__ifunc_tableS0_St9_IdentityIS0_ESt4lessIS0_ESaIS0_EE11_M_get_nodeEv
      fun:_ZNSt8_Rb_treeI14G__ifunc_tableS0_St9_IdentityIS0_ESt4lessIS0_ESaIS0_EE14_M_create_nodeERKS0_
      fun:_ZNSt8_Rb_treeI14G__ifunc_tableS0_St9_IdentityIS0_ESt4lessIS0_ESaIS0_EE9_M_insertEPSt18_Rb_tree_node_baseS8_RKS0_
   }
   {
      __gnu_cxx::new_allocator<__gnu_cxx::_Hashtable_node<std::pair<std::basic_string<char,#std::char_traits<char>,#std::allocator<char>#>#const*#const,#Reflex::TypeName*>#>#>::allocate(unsigned#int,#void#const*)
      Memcheck:Leak
      fun:_Znwj
      fun:_ZN9__gnu_cxx13new_allocatorINS_15_Hashtable_nodeISt4pairIKPKSsPN6Reflex8TypeNameEEEEE8allocateEjPKv
      fun:_ZN9__gnu_cxx9hashtableISt4pairIKPKSsPN6Reflex8TypeNameEES3_NS_4hashIS3_EESt10_Select1stIS8_ESt8equal_toIS3_ESaIS7_EE11_M_get_nodeEv
      fun:_ZN9__gnu_cxx9hashtableISt4pairIKPKSsPN6Reflex8TypeNameEES3_NS_4hashIS3_EESt10_Select1stIS8_ESt8equal_toIS3_ESaIS7_EE11_M_new_nodeERKS8_
      fun:_ZN9__gnu_cxx9hashtableISt4pairIKPKSsPN6Reflex8TypeNameEES3_NS_4hashIS3_EESt10_Select1stIS8_ESt8equal_toIS3_ESaIS7_EE14find_or_insertERKS8_
   }
   {
      ROOT::TCollectionProxyInfo*#ROOT::TCollectionProxyInfo::Generate<ROOT::TCollectionProxyInfo::Pushback<std::vector<short,#std::allocator<short>#>#>#>(ROOT::TCollectionProxyInfo::Pushback<std::vector<short,#std::allocator<short>#>#>#const=)
      Memcheck:Leak
      fun:_Znwj
      fun:_ZN4ROOT20TCollectionProxyInfo8GenerateINS0_8PushbackISt6vectorIsSaIsEEEEEEPS0_RKT_
      fun:_ZN4ROOT25GenerateInitInstanceLocalEPKSt6vectorIsSaIsEE
      fun:_Z41__static_initialization_and_destruction_0ii
      fun:_GLOBAL__I_G__set_cpp_environmentrootcint_vector
   }
   {
      Reflex::ClassBuilderImpl::AddEnum(char#const*,#char#const*,#std::type_info#const*,#unsigned#int)
      Memcheck:Leak
      fun:_Znwj
      fun:_ZN6Reflex16ClassBuilderImpl7AddEnumEPKcS2_PKSt9type_infoj
      fun:_ZN6Reflex12ClassBuilder7AddEnumEPKcS2_PKSt9type_infoj
      fun:_ZN88_GLOBAL__N_.._i686_slc4_gcc34_dbg_dict_GaudiKernel_dictionary_dict.cpp_17E02520_101EBE7818__Gaudi__Time_dictEv
      fun:_ZN88_GLOBAL__N_.._i686_slc4_gcc34_dbg_dict_GaudiKernel_dictionary_dict.cpp_17E02520_101EBE7888_GLOBAL__N_.._i686_slc4_gcc34_dbg_dict_GaudiKernel_dictionary_dict.cpp_17E02520_101EBE7812DictionariesC1Ev
   }
   {
      TList::NewOptLink(TObject*,#char#const*,#TObjLink*)
      Memcheck:Leak
      fun:_Znwj
      fun:_ZN5TList10NewOptLinkEP7TObjectPKcP8TObjLink
      fun:_ZN5TList7AddLastEP7TObjectPKc
      fun:_ZN5TList3AddEP7TObjectPKc
      fun:_ZN5TROOTC1EPKcS1_PPFvvE
   }
   {
      boost::python::objects::py_function::py_function<boost::python::detail::caller<eformat::helper::Version#(*)(eformat::ROBFragment<unsigned#int#const*>#const=),#boost::python::default_call_policies,#boost::mpl::vector2<eformat::helper::Version,#eformat::ROBFragment<unsigned#int#const*>#const=>#>#>(boost::python::detail::caller<eformat::helper::Version#(*)(eformat::ROBFragment<unsigned#int#const*>#const=),#boost::python::default_call_policies,#boost::mpl::vector2<eformat::helper::Version,#eformat::ROBFragment<unsigned#int#const*>#const=>#>#const=)
      Memcheck:Leak
      fun:_Znwj
      fun:_ZN5boost6python7objects11py_functionC1INS0_6detail6callerIPFN7eformat6helper7VersionERKNS6_11ROBFragmentIPKjEEENS0_21default_call_policiesENS_3mpl7vector2IS8_SE_EEEEEERKT_
      fun:_ZN5boost6python6detail17make_function_auxIPFN7eformat6helper7VersionERKNS3_11ROBFragmentIPKjEEENS0_21default_call_policiesENS_3mpl7vector2IS5_SB_EEN4mpl_4int_ILi0EEEEENS0_3api6objectET_RKT0_RKT1_RKSt4pairIPKNS1_7keywordESX_ET2_
      fun:_ZN5boost6python13make_functionIPFN7eformat6helper7VersionERKNS2_11ROBFragmentIPKjEEENS0_21default_call_policiesENS0_6detail8keywordsILj0EEENS_3mpl7vector2IS4_SA_EEEENS0_3api6objectET_RKT0_RKT1_RKT2_
      fun:_ZN5boost6python6class_IN7eformat11ROBFragmentIPKjEENS0_5basesINS2_6HeaderIS5_EEN4mpl_5void_ESB_SB_SB_SB_SB_SB_SB_SB_EENS0_6detail13not_specifiedESE_E8def_implIS6_PFNS2_6helper7VersionERKS6_ENSD_10def_helperIPKcSE_SE_SE_EEEEvPT_SP_T0_RKT1_z
   }
   {
      nlpaxini
      Memcheck:Leak
      fun:calloc
      fun:nlpaxini
      fun:nnftboot
      fun:nnfgrne
      fun:nlolgobj
   }
   {
      TWebPalette::TWebPalette()
      Memcheck:Leak
      fun:_Znaj
      fun:_ZN11TWebPaletteC1Ev
      fun:_Z41__static_initialization_and_destruction_0ii
      fun:_GLOBAL__I_gWebImagePalette
      obj:/afs/cern.ch/sw/lcg/app/releases/ROOT/5.22.00d/slc4_ia32_gcc34_dbg/root/lib/libGraf.so
   }
   {
      ExpatCoreParser::do_comment(char#const*)
      Memcheck:Leak
      fun:_Znwj
      fun:_ZN15ExpatCoreParser10do_commentEPKc
      fun:_ZN15ExpatCoreParser7commentEPvPKc
      fun:reportComment
      fun:doProlog
   }
   {
      Reflex::TypeBase::FinalType()#const
      Memcheck:Leak
      fun:_Znwj
      fun:_ZNK6Reflex8TypeBase9FinalTypeEv
      fun:_ZNK6Reflex4Type9FinalTypeEv
      fun:_ZN4ROOT6Cintex13StubContext_t10InitializeEv
      fun:_ZN4ROOT6Cintex24Method_stub_with_contextEPNS0_13StubContext_tEP8G__valuePKcP8G__parami
   }
   {
      boost::python::objects::py_function::py_function<boost::python::detail::caller<unsigned#short#(eformat::helper::Status::*)()#const,#boost::python::default_call_policies,#boost::mpl::vector2<unsigned#short,#eformat::helper::Status=>#>#>(boost::python::detail::caller<unsigned#short#(eformat::helper::Status::*)()#const,#boost::python::default_call_policies,#boost::mpl::vector2<unsigned#short,#eformat::helper::Status=>#>#const=)
      Memcheck:Leak
      fun:_Znwj
      fun:_ZN5boost6python7objects11py_functionC1INS0_6detail6callerIMN7eformat6helper6StatusEKFtvENS0_21default_call_policiesENS_3mpl7vector2ItRS8_EEEEEERKT_
      fun:_ZN5boost6python6detail17make_function_auxIMN7eformat6helper6StatusEKFtvENS0_21default_call_policiesENS_3mpl7vector2ItRS5_EEN4mpl_4int_ILi0EEEEENS0_3api6objectET_RKT0_RKT1_RKSt4pairIPKNS1_7keywordESS_ET2_
      fun:_ZN5boost6python13make_functionIMN7eformat6helper6StatusEKFtvENS0_21default_call_policiesENS0_6detail8keywordsILj0EEENS_3mpl7vector2ItRS4_EEEENS0_3api6objectET_RKT0_RKT1_RKT2_
      fun:_ZN5boost6python6class_IN7eformat6helper6StatusENS0_6detail13not_specifiedES6_S6_E8def_implIS4_MS4_KFtvENS5_10def_helperIPKcS6_S6_S6_EEEEvPT_SD_T0_RKT1_z
   }
   {
      add_to_global
      Memcheck:Leak
      fun:realloc
      fun:add_to_global
      fun:dl_open_worker
      fun:_dl_catch_error
      fun:_dl_open
   }
   {
      ers::IssueFactory::instance()
      Memcheck:Leak
      fun:_Znwj
      fun:_ZN3ers12IssueFactory8instanceEv
      fun:_ZN3ers16IssueRegistratorINS_7NoValueEEC1Ev
      fun:_Z41__static_initialization_and_destruction_0ii
      fun:_GLOBAL__I__ZN52_GLOBAL__N_.._src_OutputStream.cxx_9D2164D3_09F86C9720ers_NoValue_instanceE
   }
   {
      Reflex::FunctionTypeBuilder(Reflex::Type#const=)
      Memcheck:Leak
      fun:_Znwj
      fun:_ZN6Reflex19FunctionTypeBuilderERKNS_4TypeE
      fun:_ZN83_GLOBAL__N_.._slc4_ia32_gcc34_dbg_dict_Reflex_ReflexDict_dict.cpp_EF105EC1_CEBF4A2A103____gnu_cxx____normal_iterator_constsReflex__MemberTemplatep_std__vector_Reflex__MemberTemplate_s__dictEv
      fun:_ZN83_GLOBAL__N_.._slc4_ia32_gcc34_dbg_dict_Reflex_ReflexDict_dict.cpp_EF105EC1_CEBF4A2A83_GLOBAL__N_.._slc4_ia32_gcc34_dbg_dict_Reflex_ReflexDict_dict.cpp_EF105EC1_CEBF4A2A12DictionariesC1Ev
      fun:_Z41__static_initialization_and_destruction_0ii
   }
   {
      Reflex::MemberTemplateImpl::MemberTemplateImpl(char#const*,#Reflex::Scope#const=,#std::vector<std::basic_string<char,#std::char_traits<char>,#std::allocator<char>#>,#std::allocator<std::basic_string<char,#std::char_traits<char>,#std::allocator<char>#>#>#>#const=,#std::vector<std::basic_string<char,#std::char_traits<char>,#std::allocator<char>#>,#std::allocator<std::basic_string<char,#std::char_traits<char>,#std::allocator<char>#>#>#>#const=)
      Memcheck:Leak
      fun:_Znwj
      fun:_ZN6Reflex18MemberTemplateImplC1EPKcRKNS_5ScopeERKSt6vectorISsSaISsEESA_
      fun:_ZN6Reflex30FunctionMemberTemplateInstanceC1EPKcRKNS_4TypeEPFvPvS6_RKSt6vectorIS6_SaIS6_EES6_ES6_S2_jRKNS_5ScopeE
      fun:_ZN6Reflex15FunctionBuilderC1ERKNS_4TypeEPKcPFvPvS6_RKSt6vectorIS6_SaIS6_EES6_ES6_S5_h
      fun:_ZN88_GLOBAL__N_.._i686_slc4_gcc34_dbg_dict_GaudiKernel_dictionary_dict.cpp_17E02520_101EBE7888_GLOBAL__N_.._i686_slc4_gcc34_dbg_dict_GaudiKernel_dictionary_dict.cpp_17E02520_101EBE7812DictionariesC1Ev
   }
   {
      G__createtemplateclass
      Memcheck:Leak
      fun:malloc
      fun:G__createtemplateclass
      fun:G__declare_template
      fun:G__exec_statement
      fun:G__loadfile
   }
   {
      __gnu_cxx::new_allocator<std::_Rb_tree_node<std::pair<std::basic_string<char,#std::char_traits<char>,#std::allocator<char>#>#const,#PyROOT::TExecutor*#(*)()>#>#>::allocate(unsigned#int,#void#const*)
      Memcheck:Leak
      fun:_Znwj
      fun:_ZN9__gnu_cxx13new_allocatorISt13_Rb_tree_nodeISt4pairIKSsPFPN6PyROOT9TExecutorEvEEEE8allocateEjPKv
      fun:_ZNSt8_Rb_treeISsSt4pairIKSsPFPN6PyROOT9TExecutorEvEESt10_Select1stIS7_ESt4lessISsESaIS7_EE11_M_get_nodeEv
      fun:_ZNSt8_Rb_treeISsSt4pairIKSsPFPN6PyROOT9TExecutorEvEESt10_Select1stIS7_ESt4lessISsESaIS7_EE14_M_create_nodeERKS7_
      fun:_ZNSt8_Rb_treeISsSt4pairIKSsPFPN6PyROOT9TExecutorEvEESt10_Select1stIS7_ESt4lessISsESaIS7_EE9_M_insertEPSt18_Rb_tree_node_baseSF_RKS7_
   }
   {
      ROOT::Cintex::ROOTClassEnhancer::Setup()
      Memcheck:Leak
      fun:_Znwj
      fun:_ZN4ROOT6Cintex17ROOTClassEnhancer5SetupEv
      fun:_ZN4ROOT6Cintex8CallbackclERKN6Reflex4TypeE
      fun:_ZN6Reflex17FireClassCallbackERKNS_4TypeE
      fun:_ZN6Reflex16ClassBuilderImplD1Ev
   }
   {
      boost::python::objects::py_function::py_function<boost::python::detail::caller<bool#(*)(eformat::FullEventFragment<unsigned#int#const*>=,#unsigned#short),#boost::python::default_call_policies,#boost::mpl::vector3<bool,#eformat::FullEventFragment<unsigned#int#const*>=,#unsigned#short>#>#>(boost::python::detail::caller<bool#(*)(eformat::FullEventFragment<unsigned#int#const*>=,#unsigned#short),#boost::python::default_call_policies,#boost::mpl::vector3<bool,#eformat::FullEventFragment<unsigned#int#const*>=,#unsigned#short>#>#const=)
      Memcheck:Leak
      fun:_Znwj
      fun:_ZN5boost6python7objects11py_functionC1INS0_6detail6callerIPFbRN7eformat17FullEventFragmentIPKjEEtENS0_21default_call_policiesENS_3mpl7vector3IbSB_tEEEEEERKT_
      fun:_ZN5boost6python6detail17make_function_auxIPFbRN7eformat17FullEventFragmentIPKjEEtENS0_21default_call_policiesENS_3mpl7vector3IbS8_tEEN4mpl_4int_ILi0EEEEENS0_3api6objectET_RKT0_RKT1_RKSt4pairIPKNS1_7keywordESU_ET2_
      fun:_ZN5boost6python6detail27make_keyword_range_functionIPFbRN7eformat17FullEventFragmentIPKjEEtENS0_21default_call_policiesENS_3mpl7vector3IbS8_tEEEENS0_3api6objectET_RKT0_RKSt4pairIPKNS1_7keywordESO_ERKT1_
      fun:_ZN5boost6python6detail14name_space_defIPFbRN7eformat17FullEventFragmentIPKjEEtENS0_21default_call_policiesENS0_6class_IS7_NS_10shared_ptrIS7_EENS0_5basesINS3_6HeaderIS6_EEN4mpl_5void_ESJ_SJ_SJ_SJ_SJ_SJ_SJ_SJ_EENS1_13not_specifiedEEEEEvRT1_PKcT_RKSt4pairIPKNS1_7keywordESV_ERKT0_SQ_PNS0_7objects10class_baseE
   }
   {
      boost::python::objects::py_function::py_function<boost::python::detail::caller<void#(*)(std::vector<eformat::helper::StreamTag,#std::allocator<eformat::helper::StreamTag>#>=,#_object*,#_object*),#boost::python::default_call_policies,#boost::mpl::vector4<void,#std::vector<eformat::helper::StreamTag,#std::allocator<eformat::helper::StreamTag>#>=,#_object*,#_object*>#>#>(boost::python::detail::caller<void#(*)(std::vector<eformat::helper::StreamTag,#std::allocator<eformat::helper::StreamTag>#>=,#_object*,#_object*),#boost::python::default_call_policies,#boost::mpl::vector4<void,#std::vector<eformat::helper::StreamTag,#std::allocator<eformat::helper::StreamTag>#>=,#_object*,#_object*>#>#const=)
      Memcheck:Leak
      fun:_Znwj
      fun:_ZN5boost6python7objects11py_functionC1INS0_6detail6callerIPFvRSt6vectorIN7eformat6helper9StreamTagESaIS9_EEP7_objectSE_ENS0_21default_call_policiesENS_3mpl7vector4IvSC_SE_SE_EEEEEERKT_
      fun:_ZN5boost6python6detail17make_function_auxIPFvRSt6vectorIN7eformat6helper9StreamTagESaIS6_EEP7_objectSB_ENS0_21default_call_policiesENS_3mpl7vector4IvS9_SB_SB_EEN4mpl_4int_ILi0EEEEENS0_3api6objectET_RKT0_RKT1_RKSt4pairIPKNS1_7keywordESX_ET2_
      fun:_ZN5boost6python13make_functionIPFvRSt6vectorIN7eformat6helper9StreamTagESaIS5_EEP7_objectSA_ENS0_21default_call_policiesENS0_6detail8keywordsILj0EEENS_3mpl7vector4IvS8_SA_SA_EEEENS0_3api6objectET_RKT0_RKT1_RKT2_
      fun:_ZN5boost6python6class_ISt6vectorIN7eformat6helper9StreamTagESaIS5_EENS0_6detail13not_specifiedES9_S9_E8def_implIS7_PFvRS7_P7_objectSE_ENS8_10def_helperIPKcS9_S9_S9_EEEEvPT_SJ_T0_RKT1_z
   }
   {
      Reflex::ScopeName::ScopeName(char#const*,#Reflex::ScopeBase*)
      Memcheck:Leak
      fun:_Znwj
      fun:_ZN6Reflex9ScopeNameC1EPKcPNS_9ScopeBaseE
      fun:_ZN6Reflex11TypeBuilderEPKcj
      fun:_ZN6Reflex13TypeDistillerIN4ROOT6Cintex17NewDelFunctions_tEE3GetEv
      fun:_ZN6Reflex13TypeDistillerIPN4ROOT6Cintex17NewDelFunctions_tEE3GetEv
   }
   {
      __gnu_cxx::new_allocator<std::_Rb_tree_node<std::pair<std::basic_string<char,#std::char_traits<char>,#std::allocator<char>#>#const,#ers::format::Token>#>#>::allocate(unsigned#int,#void#const*)
      Memcheck:Leak
      fun:_Znwj
      fun:_ZN9__gnu_cxx13new_allocatorISt13_Rb_tree_nodeISt4pairIKSsN3ers6format5TokenEEEE8allocateEjPKv
      fun:_ZNSt8_Rb_treeISsSt4pairIKSsN3ers6format5TokenEESt10_Select1stIS5_ESt4lessISsESaIS5_EE11_M_get_nodeEv
      fun:_ZNSt8_Rb_treeISsSt4pairIKSsN3ers6format5TokenEESt10_Select1stIS5_ESt4lessISsESaIS5_EE14_M_create_nodeERKS5_
      fun:_ZNSt8_Rb_treeISsSt4pairIKSsN3ers6format5TokenEESt10_Select1stIS5_ESt4lessISsESaIS5_EE9_M_insertEPSt18_Rb_tree_node_baseSD_RKS5_
   }
   {
      xrealloc
      Memcheck:Leak
      fun:realloc
      fun:xrealloc
      fun:rl_add_funmap_entry
      fun:rl_initialize_funmap
      fun:rl_initialize
   }
   {
      boost::python::objects::py_function::py_function<boost::python::detail::caller<std::map<eformat::helper::SourceIdentifier,#eformat::ROBFragment<unsigned#int#const*>,#std::less<eformat::helper::SourceIdentifier>,#std::allocator<std::pair<eformat::helper::SourceIdentifier#const,#eformat::ROBFragment<unsigned#int#const*>#>#>#>*#(*)(eformat::FullEventFragment<unsigned#int#const*>#const=,#bool),#boost::python::return_value_policy<boost::python::manage_new_object,#boost::python::with_custodian_and_ward_postcall<0u,#1u,#boost::python::default_call_policies>#>,#boost::mpl::vector3<std::map<eformat::helper::SourceIdentifier,#eformat::ROBFragment<unsigned#int#const*>,#std::less<eformat::helper::SourceIdentifier>,#std::allocator<std::pair<eformat::helper::SourceIdentifier#const,#eformat::ROBFragment<unsigned#int#const*>#>#>#>*,#eformat::FullEventFragment<unsigned#int#const*>#const=,#bool>#>#>(boost::python::detail::caller<std::map<eformat::helper::SourceIdentifier,#eformat::ROBFragment<unsigned#int#const*>,#std::less<eformat::helper::SourceIdentifier>,#std::allocator<std::pair<eformat::helper::SourceIdentifier#const,#eformat::ROBFragment<unsigned#int#const*>#>#>#>*#(*)(eformat::FullEventFragment<unsigned#int#const*>#const=,#bool),#boost::python::return_value_policy<boost::python::manage_new_object,#boost::python::with_custodian_and_ward_postcall<0u,#1u,#boost::python::default_call_policies>#>,#boost::mpl::vector3<std::map<eformat::helper::SourceIdentifier,#eformat::ROBFragment<unsigned#int#const*>,#std::less<eformat::helper::SourceIdentifier>,#std::allocator<std::pair<eformat::helper::SourceIdentifier#const,#eformat::ROBFragment<unsigned#int#const*>#>#>#>*,#eformat::FullEventFragment<unsigned#int#const*>#const=,#bool>#>#const=)
      Memcheck:Leak
      fun:_Znwj
      fun:_ZN5boost6python7objects11py_functionC1INS0_6detail6callerIPFPSt3mapIN7eformat6helper16SourceIdentifierENS7_11ROBFragmentIPKjEESt4lessIS9_ESaISt4pairIKS9_SD_EEERKNS7_17FullEventFragmentISC_EEbENS0_19return_value_policyINS0_17manage_new_objectENS0_32with_custodian_and_ward_postcallILj0ELj1ENS0_21default_call_policiesEEEEENS_3mpl7vector3ISL_SP_bEEEEEERKT_
      fun:_ZN5boost6python6detail17make_function_auxIPFPSt3mapIN7eformat6helper16SourceIdentifierENS4_11ROBFragmentIPKjEESt4lessIS6_ESaISt4pairIKS6_SA_EEERKNS4_17FullEventFragmentIS9_EEbENS0_19return_value_policyINS0_17manage_new_objectENS0_32with_custodian_and_ward_postcallILj0ELj1ENS0_21default_call_policiesEEEEENS_3mpl7vector3ISI_SM_bEEN4mpl_4int_ILi0EEEEENS0_3api6objectET_RKT0_RKT1_RKSD_IPKNS1_7keywordES1C_ET2_
      fun:_ZN5boost6python13make_functionIPFPSt3mapIN7eformat6helper16SourceIdentifierENS3_11ROBFragmentIPKjEESt4lessIS5_ESaISt4pairIKS5_S9_EEERKNS3_17FullEventFragmentIS8_EEbENS0_19return_value_policyINS0_17manage_new_objectENS0_32with_custodian_and_ward_postcallILj0ELj1ENS0_21default_call_policiesEEEEENS0_6detail8keywordsILj0EEENS_3mpl7vector3ISH_SL_bEEEENS0_3api6objectET_RKT0_RKT1_RKT2_
      fun:_ZN5boost6python6class_IN7eformat17FullEventFragmentIPKjEENS_10shared_ptrIS6_EENS0_5basesINS2_6HeaderIS5_EEN4mpl_5void_ESD_SD_SD_SD_SD_SD_SD_SD_EENS0_6detail13not_specifiedEE8def_implIS6_PFPSt3mapINS2_6helper16SourceIdentifierENS2_11ROBFragmentIS5_EESt4lessISL_ESaISt4pairIKSL_SN_EEERKS6_bENSF_10def_helperINS0_19return_value_policyINS0_17manage_new_objectENS0_32with_custodian_and_ward_postcallILj0ELj1ENS0_21default_call_policiesEEEEESG_SG_SG_EEEEvPT_PKcT0_RKT1_z
   }
   {
      PyObject_Realloc
      Memcheck:Leak
      fun:realloc
      fun:PyObject_Realloc
      fun:_PyString_Resize
      fun:assemble
      fun:PyAST_Compile
   }
   {
      boost::python::objects::py_function::py_function<boost::python::detail::caller<void#(daq::RawFileName::*)(std::basic_string<char,#std::char_traits<char>,#std::allocator<char>#>,#unsigned#int,#std::basic_string<char,#std::char_traits<char>,#std::allocator<char>#>,#std::basic_string<char,#std::char_traits<char>,#std::allocator<char>#>,#unsigned#int,#std::basic_string<char,#std::char_traits<char>,#std::allocator<char>#>,#std::basic_string<char,#std::char_traits<char>,#std::allocator<char>#>,#std::basic_string<char,#std::char_traits<char>,#std::allocator<char>#>,#unsigned#int,#std::basic_string<char,#std::char_traits<char>,#std::allocator<char>#>),#boost::python::default_call_policies,#boost::mpl::vector12<void,#daq::RawFileName=,#std::basic_string<char,#std::char_traits<char>,#std::allocator<char>#>,#unsigned#int,#std::basic_string<char,#std::char_traits<char>,#std::allocator<char>#>,#std::basic_string<char,#std::char_traits<char>,#std::allocator<char>#>,#unsigned#int,#std::basic_string<char,#std::char_traits<char>,#std::allocator<char>#>,#std::basic_string<char,#std::char_traits<char>,#std::allocator<char>#>,#std::basic_string<char,#std::char_traits<char>,#std::allocator<char>#>,#unsigned#int,#std::basic_string<char,#std::char_traits<char>,#std::allocator<char>#>#>#>#>(boost::python::detail::caller<void#(daq::RawFileName::*)(std::basic_string<char,#std::char_traits<char>,#std::allocator<char>#>,#unsigned#int,#std::basic_string<char,#std::char_traits<char>,#std::allocator<char>#>,#std::basic_string<char,#std::char_traits<char>,#std::allocator<char>#>,#unsigned#int,#std::basic_string<char,#std::char_traits<char>,#std::allocator<char>#>,#std::basic_string<char,#std::char_traits<char>,#std::allocator<char>#>,#std::basic_string<char,#std::char_traits<char>,#std::allocator<char>#>,#unsigned#int,#std::basic_string<char,#std::char_traits<char>,#std::allocator<char>#>),#boost::python::default_call_policies,#boost::mpl::vector12<void,#daq::RawFileName=,#std::basic_string<char,#std::char_traits<char>,#std::allocator<char>#>,#unsigned#int,#std::basic_string<char,#std::char_traits<char>,#std::allocator<char>#>,#std::basic_string<char,#std::char_traits<char>,#std::allocator<char>#>,#unsigned#int,#std::basic_string<char,#std::char_traits<char>,#std::allocator<char>#>,#std::basic_string<char,#std::char_traits<char>,#std::allocator<char>#>,#std::basic_string<char,#std::char_traits<char>,#std::allocator<char>#>,#unsigned#int,#std::basic_string<char,#std::char_traits<char>,#std::allocator<char>#>#>#>#const=)
      Memcheck:Leak
      fun:_Znwj
      fun:_ZN5boost6python7objects11py_functionC1INS0_6detail6callerIMN3daq11RawFileNameEFvSsjSsSsjSsSsSsjSsENS0_21default_call_policiesENS_3mpl8vector12IvRS7_SsjSsSsjSsSsSsjSsEEEEEERKT_
      fun:_ZN5boost6python6detail17make_function_auxIMN3daq11RawFileNameEFvSsjSsSsjSsSsSsjSsENS0_21default_call_policiesENS_3mpl8vector12IvRS4_SsjSsSsjSsSsSsjSsEEN4mpl_4int_ILi0EEEEENS0_3api6objectET_RKT0_RKT1_RKSt4pairIPKNS1_7keywordESR_ET2_
      fun:_ZN5boost6python13make_functionIMN3daq11RawFileNameEFvSsjSsSsjSsSsSsjSsENS0_21default_call_policiesENS0_6detail8keywordsILj0EEENS_3mpl8vector12IvRS3_SsjSsSsjSsSsSsjSsEEEENS0_3api6objectET_RKT0_RKT1_RKT2_
      fun:_ZN5boost6python6class_IN3daq11RawFileNameENS0_6detail13not_specifiedES5_S5_E8def_implIS3_MS3_FvSsjSsSsjSsSsSsjSsENS4_10def_helperIPKcS5_S5_S5_EEEEvPT_SC_T0_RKT1_z
   }
   {
      set_table_resize
      Memcheck:Leak
      fun:malloc
      fun:set_table_resize
      fun:set_update_internal
      fun:make_new_set
      fun:frozenset_new
   }
   {
      boost::python::objects::py_function::py_function<boost::python::detail::caller<bool#(*)(std::map<eformat::helper::SourceIdentifier,#eformat::ROBFragment<unsigned#int#const*>,#std::less<eformat::helper::SourceIdentifier>,#std::allocator<std::pair<eformat::helper::SourceIdentifier#const,#eformat::ROBFragment<unsigned#int#const*>#>#>#>=,#_object*),#boost::python::default_call_policies,#boost::mpl::vector3<bool,#std::map<eformat::helper::SourceIdentifier,#eformat::ROBFragment<unsigned#int#const*>,#std::less<eformat::helper::SourceIdentifier>,#std::allocator<std::pair<eformat::helper::SourceIdentifier#const,#eformat::ROBFragment<unsigned#int#const*>#>#>#>=,#_object*>#>#>(boost::python::detail::caller<bool#(*)(std::map<eformat::helper::SourceIdentifier,#eformat::ROBFragment<unsigned#int#const*>,#std::less<eformat::helper::SourceIdentifier>,#std::allocator<std::pair<eformat::helper::SourceIdentifier#const,#eformat::ROBFragment<unsigned#int#const*>#>#>#>=,#_object*),#boost::python::default_call_policies,#boost::mpl::vector3<bool,#std::map<eformat::helper::SourceIdentifier,#eformat::ROBFragment<unsigned#int#const*>,#std::less<eformat::helper::SourceIdentifier>,#std::allocator<std::pair<eformat::helper::SourceIdentifier#const,#eformat::ROBFragment<unsigned#int#const*>#>#>#>=,#_object*>#>#const=)
      Memcheck:Leak
      fun:_Znwj
      fun:_ZN5boost6python7objects11py_functionC1INS0_6detail6callerIPFbRSt3mapIN7eformat6helper16SourceIdentifierENS7_11ROBFragmentIPKjEESt4lessIS9_ESaISt4pairIKS9_SD_EEEP7_objectENS0_21default_call_policiesENS_3mpl7vector3IbSL_SN_EEEEEERKT_
      fun:_ZN5boost6python6detail17make_function_auxIPFbRSt3mapIN7eformat6helper16SourceIdentifierENS4_11ROBFragmentIPKjEESt4lessIS6_ESaISt4pairIKS6_SA_EEEP7_objectENS0_21default_call_policiesENS_3mpl7vector3IbSI_SK_EEN4mpl_4int_ILi0EEEEENS0_3api6objectET_RKT0_RKT1_RKSD_IPKNS1_7keywordES15_ET2_
      fun:_ZN5boost6python13make_functionIPFbRSt3mapIN7eformat6helper16SourceIdentifierENS3_11ROBFragmentIPKjEESt4lessIS5_ESaISt4pairIKS5_S9_EEEP7_objectENS0_21default_call_policiesENS0_6detail8keywordsILj0EEENS_3mpl7vector3IbSH_SJ_EEEENS0_3api6objectET_RKT0_RKT1_RKT2_
      fun:_ZN5boost6python6class_ISt3mapIN7eformat6helper16SourceIdentifierENS3_11ROBFragmentIPKjEESt4lessIS5_ESaISt4pairIKS5_S9_EEENS0_6detail13not_specifiedESI_SI_E8def_implISG_PFbRSG_P7_objectENSH_10def_helperIPKcSI_SI_SI_EEEEvPT_SS_T0_RKT1_z
   }
   {
      Reflex::FunctionTypeBuilder(Reflex::Type#const=,#std::vector<Reflex::Type,#std::allocator<Reflex::Type>#>#const=,#std::type_info#const=)
      Memcheck:Leak
      fun:_Znwj
      fun:_ZN6Reflex19FunctionTypeBuilderERKNS_4TypeERKSt6vectorIS0_SaIS0_EERKSt9type_info
      fun:_ZN6Reflex17FunctionDistillerIFP10IAlgorithmSsP11ISvcLocatorEE3GetEv
      fun:_ZN60_GLOBAL__N_.._src_ToyNextPassFilterAlg.cxx_EF105EC1_348EAF1526ToyNextPassFilterAlg_dict5C1Ev
      fun:_Z41__static_initialization_and_destruction_0ii
   }
   {
      boost::python::objects::identity_function()
      Memcheck:Leak
      fun:_Znwj
      fun:_ZN5boost6python7objects17identity_functionEv
      fun:_ZN5boost6python7objects6detail21demand_iterator_classIN9__gnu_cxx17__normal_iteratorIPN7eformat6helper9StreamTagESt6vectorIS8_SaIS8_EEEENS0_25return_internal_referenceILj1ENS0_21default_call_policiesEEEEENS0_3api6objectEPKcPT_RKT0_
      fun:_ZNK5boost6python7objects6detail8py_iter_ISt6vectorIN7eformat6helper9StreamTagESaIS7_EEN9__gnu_cxx17__normal_iteratorIPS7_S9_EENS_3_bi16protected_bind_tINSE_6bind_tISD_PFSD_RS9_ENSE_5list1IPFNS_3argILi1EEEvEEEEEEESR_NS0_25return_internal_referenceILj1ENS0_21default_call_policiesEEEEclENS0_14back_referenceISH_EE
      fun:_ZN5boost6python6detail6invokeINS0_15to_python_valueIRKNS0_7objects14iterator_rangeINS0_25return_internal_referenceILj1ENS0_21default_call_policiesEEEN9__gnu_cxx17__normal_iteratorIPN7eformat6helper9StreamTagESt6vectorISD_SaISD_EEEEEEEENS4_6detail8py_iter_ISH_SI_NS_3_bi16protected_bind_tINSP_6bind_tISI_PFSI_RSH_ENSP_5list1IPFNS_3argILi1EEEvEEEEEEES12_S8_EENS0_15arg_from_pythonINS0_14back_referenceISS_EEEEEEP7_objectNS1_11invoke_tag_ILb0ELb0EEERKT_RT0_RT1_
   }
   {
      Reflex::ScopeBase::AddFunctionMember(char#const*,#Reflex::Type#const=,#void#(*)(void*,#void*,#std::vector<void*,#std::allocator<void*>#>#const=,#void*),#void*,#char#const*,#unsigned#int)#const
      Memcheck:Leak
      fun:_Znwj
      fun:_ZNK6Reflex9ScopeBase17AddFunctionMemberEPKcRKNS_4TypeEPFvPvS6_RKSt6vectorIS6_SaIS6_EES6_ES6_S2_j
      fun:_ZNK6Reflex5Class17AddFunctionMemberEPKcRKNS_4TypeEPFvPvS6_RKSt6vectorIS6_SaIS6_EES6_ES6_S2_j
      fun:_ZNK6Reflex4Type17AddFunctionMemberEPKcRKS0_PFvPvS5_RKSt6vectorIS5_SaIS5_EES5_ES5_S2_j
      fun:_ZN4ROOT6Cintex21ROOTClassEnhancerInfo11AddFunctionERKSsRKN6Reflex4TypeEPFvPvS8_RKSt6vectorIS8_SaIS8_EES8_ES8_i
   }
   {
      __gnu_cxx::new_allocator<std::_Rb_tree_node<std::pair<std::basic_string<char,#std::char_traits<char>,#std::allocator<char>#>#const,#std::list<std::basic_string<char,#std::char_traits<char>,#std::allocator<char>#>,#std::allocator<std::basic_string<char,#std::char_traits<char>,#std::allocator<char>#>#>#>#>#>#>::allocate(unsigned#int,#void#const*)
      Memcheck:Leak
      fun:_Znwj
      fun:_ZN9__gnu_cxx13new_allocatorISt13_Rb_tree_nodeISt4pairIKSsSt4listISsSaISsEEEEE8allocateEjPKv
      fun:_ZNSt8_Rb_treeISsSt4pairIKSsSt4listISsSaISsEEESt10_Select1stIS5_ESt4lessISsESaIS5_EE11_M_get_nodeEv
      fun:_ZNSt8_Rb_treeISsSt4pairIKSsSt4listISsSaISsEEESt10_Select1stIS5_ESt4lessISsESaIS5_EE14_M_create_nodeERKS5_
      fun:_ZNSt8_Rb_treeISsSt4pairIKSsSt4listISsSaISsEEESt10_Select1stIS5_ESt4lessISsESaIS5_EE9_M_insertEPSt18_Rb_tree_node_baseSD_RKS5_
   }
   {
      (anonymous#namespace)::CreateUIntRefExecutor()
      Memcheck:Leak
      fun:_Znwj
      fun:_ZN38_GLOBAL__N__ZN6PyROOT14gExecFactoriesE21CreateUIntRefExecutorEv
      fun:_ZN6PyROOT14CreateExecutorERKSs
      fun:_ZN6PyROOT13TMethodHolderINS_13TScopeAdapterENS_14TMemberAdapterEE13InitExecutor_ERPNS_9TExecutorE
      fun:_ZN6PyROOT13TMethodHolderINS_13TScopeAdapterENS_14TMemberAdapterEE10InitializeEv
   }
   {
      PyArena_Malloc
      Memcheck:Leak
      fun:malloc
      fun:PyArena_Malloc
      fun:_Py_Num
      fun:ast_for_atom
      fun:ast_for_expr
   }
   {
      boost::python::objects::py_function::py_function<boost::python::detail::caller<std::vector<std::basic_string<char,#std::char_traits<char>,#std::allocator<char>#>,#std::allocator<std::basic_string<char,#std::char_traits<char>,#std::allocator<char>#>#>#>#(EventStorage::DataReader::*)()#const,#boost::python::default_call_policies,#boost::mpl::vector2<std::vector<std::basic_string<char,#std::char_traits<char>,#std::allocator<char>#>,#std::allocator<std::basic_string<char,#std::char_traits<char>,#std::allocator<char>#>#>#>,#EventStorage::DataReader=>#>#>(boost::python::detail::caller<std::vector<std::basic_string<char,#std::char_traits<char>,#std::allocator<char>#>,#std::allocator<std::basic_string<char,#std::char_traits<char>,#std::allocator<char>#>#>#>#(EventStorage::DataReader::*)()#const,#boost::python::default_call_policies,#boost::mpl::vector2<std::vector<std::basic_string<char,#std::char_traits<char>,#std::allocator<char>#>,#std::allocator<std::basic_string<char,#std::char_traits<char>,#std::allocator<char>#>#>#>,#EventStorage::DataReader=>#>#const=)
      Memcheck:Leak
      fun:_Znwj
      fun:_ZN5boost6python7objects11py_functionC1INS0_6detail6callerIMN12EventStorage10DataReaderEKFSt6vectorISsSaISsEEvENS0_21default_call_policiesENS_3mpl7vector2ISA_RS7_EEEEEERKT_
      fun:_ZN5boost6python6detail17make_function_auxIMN12EventStorage10DataReaderEKFSt6vectorISsSaISsEEvENS0_21default_call_policiesENS_3mpl7vector2IS7_RS4_EEN4mpl_4int_ILi0EEEEENS0_3api6objectET_RKT0_RKT1_RKSt4pairIPKNS1_7keywordESU_ET2_
      fun:_ZN5boost6python13make_functionIMN12EventStorage10DataReaderEKFSt6vectorISsSaISsEEvENS0_21default_call_policiesENS0_6detail8keywordsILj0EEENS_3mpl7vector2IS6_RS3_EEEENS0_3api6objectET_RKT0_RKT1_RKT2_
      fun:_ZN5boost6python6class_IN12EventStorage10DataReaderENS_10shared_ptrIS3_EENS_12noncopyable_11noncopyableENS0_6detail13not_specifiedEE8def_implIS3_MS3_KFSt6vectorISsSaISsEEvENS8_10def_helperIPKcS9_S9_S9_EEEEvPT_SJ_T0_RKT1_z
   }
   {
      SimpleProperty<std::vector<std::basic_string<char,#std::char_traits<char>,#std::allocator<char>#>,#std::allocator<std::basic_string<char,#std::char_traits<char>,#std::allocator<char>#>#>#>,#BoundedVerifier<std::vector<std::basic_string<char,#std::char_traits<char>,#std::allocator<char>#>,#std::allocator<std::basic_string<char,#std::char_traits<char>,#std::allocator<char>#>#>#>#>#>::SimpleProperty(BoundedVerifier<std::vector<std::basic_string<char,#std::char_traits<char>,#std::allocator<char>#>,#std::allocator<std::basic_string<char,#std::char_traits<char>,#std::allocator<char>#>#>#>#>)
      Memcheck:Leak
      fun:_Znwj
      fun:_ZN14SimplePropertyISt6vectorISsSaISsEE15BoundedVerifierIS2_EEC1ES4_
      fun:_ZN11NameAuditorC1ERKSsP11ISvcLocator
      fun:_ZN51_GLOBAL__N_.._src_NameAuditor.cpp_9D2164D3_D73FEC677FactoryI11NameAuditorFP8IAuditorSsP11ISvcLocatorEE4FuncEPvS8_RKSt6vectorIS8_SaIS8_EES8_
      fun:_ZNK6Reflex14FunctionMember6InvokeERKNS_6ObjectEPS1_RKSt6vectorIPvSaIS6_EE
   }
   {
      std::basic_string<char,#std::char_traits<char>,#std::allocator<char>#>::_Rep::_S_create(unsigned#int,#unsigned#int,#std::allocator<char>#const=)
      Memcheck:Leak
      fun:_Znwj
      fun:_ZNSs4_Rep9_S_createEjjRKSaIcE
      obj:/usr/lib/libstdc++.so.6.0.3
      fun:_ZNSsC1EPKcRKSaIcE
      fun:_ZN6Reflex16PluginFactoryMap7FillMapERKSs
   }
   {
      boost::python::objects::py_function::py_function<boost::python::detail::caller<eformat::RunType#(*)(eformat::FullEventFragment<unsigned#int#const*>#const=),#boost::python::default_call_policies,#boost::mpl::vector2<eformat::RunType,#eformat::FullEventFragment<unsigned#int#const*>#const=>#>#>(boost::python::detail::caller<eformat::RunType#(*)(eformat::FullEventFragment<unsigned#int#const*>#const=),#boost::python::default_call_policies,#boost::mpl::vector2<eformat::RunType,#eformat::FullEventFragment<unsigned#int#const*>#const=>#>#const=)
      Memcheck:Leak
      fun:_Znwj
      fun:_ZN5boost6python7objects11py_functionC1INS0_6detail6callerIPFN7eformat7RunTypeERKNS6_17FullEventFragmentIPKjEEENS0_21default_call_policiesENS_3mpl7vector2IS7_SD_EEEEEERKT_
      fun:_ZN5boost6python6detail17make_function_auxIPFN7eformat7RunTypeERKNS3_17FullEventFragmentIPKjEEENS0_21default_call_policiesENS_3mpl7vector2IS4_SA_EEN4mpl_4int_ILi0EEEEENS0_3api6objectET_RKT0_RKT1_RKSt4pairIPKNS1_7keywordESW_ET2_
      fun:_ZN5boost6python13make_functionIPFN7eformat7RunTypeERKNS2_17FullEventFragmentIPKjEEENS0_21default_call_policiesENS0_6detail8keywordsILj0EEENS_3mpl7vector2IS3_S9_EEEENS0_3api6objectET_RKT0_RKT1_RKT2_
      fun:_ZN5boost6python6class_IN7eformat17FullEventFragmentIPKjEENS_10shared_ptrIS6_EENS0_5basesINS2_6HeaderIS5_EEN4mpl_5void_ESD_SD_SD_SD_SD_SD_SD_SD_EENS0_6detail13not_specifiedEE8def_implIS6_PFNS2_7RunTypeERKS6_ENSF_10def_helperIPKcSG_SG_SG_EEEEvPT_SQ_T0_RKT1_z
   }
   {
      boost::python::objects::py_function::py_function<boost::python::detail::caller<void#(*)(eformat::write::ROBFragment=,#eformat::ROBFragment<unsigned#int#const*>#const=),#boost::python::with_custodian_and_ward<1u,#2u,#boost::python::default_call_policies>,#boost::mpl::vector3<void,#eformat::write::ROBFragment=,#eformat::ROBFragment<unsigned#int#const*>#const=>#>#>(boost::python::detail::caller<void#(*)(eformat::write::ROBFragment=,#eformat::ROBFragment<unsigned#int#const*>#const=),#boost::python::with_custodian_and_ward<1u,#2u,#boost::python::default_call_policies>,#boost::mpl::vector3<void,#eformat::write::ROBFragment=,#eformat::ROBFragment<unsigned#int#const*>#const=>#>#const=)
      Memcheck:Leak
      fun:_Znwj
      fun:_ZN5boost6python7objects11py_functionC1INS0_6detail6callerIPFvRN7eformat5write11ROBFragmentERKNS6_11ROBFragmentIPKjEEENS0_23with_custodian_and_wardILj1ELj2ENS0_21default_call_policiesEEENS_3mpl7vector3IvS9_SF_EEEEEERKT_
      fun:_ZN5boost6python6detail17make_function_auxIPFvRN7eformat5write11ROBFragmentERKNS3_11ROBFragmentIPKjEEENS0_23with_custodian_and_wardILj1ELj2ENS0_21default_call_policiesEEENS_3mpl7vector3IvS6_SC_EEN4mpl_4int_ILi0EEEEENS0_3api6objectET_RKT0_RKT1_RKSt4pairIPKNS1_7keywordES10_ET2_
      fun:_ZN5boost6python13make_functionIPFvRN7eformat5write11ROBFragmentERKNS2_11ROBFragmentIPKjEEENS0_23with_custodian_and_wardILj1ELj2ENS0_21default_call_policiesEEENS0_6detail8keywordsILj0EEENS_3mpl7vector3IvS5_SB_EEEENS0_3api6objectET_RKT0_RKT1_RKT2_
      fun:_ZN5boost6python6class_IN7eformat5write11ROBFragmentENS0_6detail13not_specifiedES6_S6_E8def_implIS4_PFvRS4_RKNS2_11ROBFragmentIPKjEEENS5_10def_helperINS0_23with_custodian_and_wardILj1ELj2ENS0_21default_call_policiesEEES6_S6_S6_EEEEvPT_PKcT0_RKT1_z
   }
   {
      boost::python::objects::py_function::py_function<boost::python::detail::caller<void#(eformat::write::FullEventFragment::*)(eformat::write::FullEventFragment#const=),#boost::python::with_custodian_and_ward<1u,#2u,#boost::python::default_call_policies>,#boost::mpl::vector3<void,#eformat::write::FullEventFragment=,#eformat::write::FullEventFragment#const=>#>#>(boost::python::detail::caller<void#(eformat::write::FullEventFragment::*)(eformat::write::FullEventFragment#const=),#boost::python::with_custodian_and_ward<1u,#2u,#boost::python::default_call_policies>,#boost::mpl::vector3<void,#eformat::write::FullEventFragment=,#eformat::write::FullEventFragment#const=>#>#const=)
      Memcheck:Leak
      fun:_Znwj
      fun:_ZN5boost6python7objects11py_functionC1INS0_6detail6callerIMN7eformat5write17FullEventFragmentEFvRKS8_ENS0_23with_custodian_and_wardILj1ELj2ENS0_21default_call_policiesEEENS_3mpl7vector3IvRS8_SA_EEEEEERKT_
      fun:_ZN5boost6python6detail17make_function_auxIMN7eformat5write17FullEventFragmentEFvRKS5_ENS0_23with_custodian_and_wardILj1ELj2ENS0_21default_call_policiesEEENS_3mpl7vector3IvRS5_S7_EEN4mpl_4int_ILi0EEEEENS0_3api6objectET_RKT0_RKT1_RKSt4pairIPKNS1_7keywordESW_ET2_
      fun:_ZN5boost6python13make_functionIMN7eformat5write17FullEventFragmentEFvRKS4_ENS0_23with_custodian_and_wardILj1ELj2ENS0_21default_call_policiesEEENS0_6detail8keywordsILj0EEENS_3mpl7vector3IvRS4_S6_EEEENS0_3api6objectET_RKT0_RKT1_RKT2_
      fun:_ZN5boost6python6class_IN7eformat5write17FullEventFragmentENS0_6detail13not_specifiedES6_S6_E8def_implIS4_MS4_FvRKS4_ENS5_10def_helperINS0_23with_custodian_and_wardILj1ELj2ENS0_21default_call_policiesEEES6_S6_S6_EEEEvPT_PKcT0_RKT1_z
   }
   {
      nngtini_init_msg
      Memcheck:Leak
      fun:calloc
      fun:nngtini_init_msg
      fun:nncpcin_maybe_init
      fun:nnfgiinit
      fun:nnfgauto
   }
   {
      ntgblini
      Memcheck:Leak
      fun:malloc
      fun:ntgblini
      fun:nsgblini
      fun:nngsini_init_streams
      fun:nncpcin_maybe_init
   }
   {
      boost::python::objects::py_function::py_function<boost::python::detail::caller<void#(*)(_object*,#eformat::GenericStatus,#unsigned#short),#boost::python::default_call_policies,#boost::mpl::vector4<void,#_object*,#eformat::GenericStatus,#unsigned#short>#>#>(boost::python::detail::caller<void#(*)(_object*,#eformat::GenericStatus,#unsigned#short),#boost::python::default_call_policies,#boost::mpl::vector4<void,#_object*,#eformat::GenericStatus,#unsigned#short>#>#const=)
      Memcheck:Leak
      fun:_Znwj
      fun:_ZN5boost6python7objects11py_functionC1INS0_6detail6callerIPFvP7_objectN7eformat13GenericStatusEtENS0_21default_call_policiesENS_3mpl7vector4IvS7_S9_tEEEEEERKT_
      fun:_ZN5boost6python6detail17make_function_auxIPFvP7_objectN7eformat13GenericStatusEtENS0_21default_call_policiesENS_3mpl7vector4IvS4_S6_tEEN4mpl_4int_ILi0EEEEENS0_3api6objectET_RKT0_RKT1_RKSt4pairIPKNS1_7keywordESS_ET2_
      fun:_ZN5boost6python6detail27make_keyword_range_functionIPFvP7_objectN7eformat13GenericStatusEtENS0_21default_call_policiesEEENS0_3api6objectET_RKT0_RKSt4pairIPKNS1_7keywordESJ_E
      fun:_ZN5boost6python6detail30make_keyword_range_constructorINS_3mpl7vector2IN7eformat13GenericStatusEtEENS3_4sizeIS7_EENS0_7objects12value_holderINS5_6helper6StatusEEENS0_21default_call_policiesEEENS0_3api6objectERKT2_RKSt4pairIPKNS1_7keywordESO_EPT1_PT_PT0_
   }
   {
      nlpaputval
      Memcheck:Leak
      fun:malloc
      fun:nlpaputval
      fun:nlpainzert
      fun:nlpaparse
      fun:nlpardfile
   }
   {
      PyThreadState_New
      Memcheck:Leak
      fun:malloc
      fun:PyThreadState_New
      fun:Py_InitializeEx
      fun:Py_Initialize
      fun:Py_Main
   }
   {
      Reflex::TypedefTypeBuilder(char#const*,#Reflex::Type#const=)
      Memcheck:Leak
      fun:_Znwj
      fun:_ZN6Reflex18TypedefTypeBuilderEPKcRKNS_4TypeE
      fun:_Z41__static_initialization_and_destruction_0ii
      fun:_GLOBAL__I__ZN4cool6PyCool7Helpers10IObjectPtrEPNS_7IObjectE
      obj:/afs/cern.ch/sw/lcg/app/releases/COOL/COOL_2_8_2/slc4_ia32_gcc34_dbg/lib/liblcg_PyCoolDict.so
   }
   {
      Property*#PropertyMgr::declareProperty<bool>(std::basic_string<char,#std::char_traits<char>,#std::allocator<char>#>#const=,#bool=,#std::basic_string<char,#std::char_traits<char>,#std::allocator<char>#>#const=)
      Memcheck:Leak
      fun:_Znwj
      fun:_ZN11PropertyMgr15declarePropertyIbEEP8PropertyRKSsRT_S4_
      fun:_ZNK7Auditor15declarePropertyIbEEP8PropertyRKSsRT_S4_
      fun:_ZN7AuditorC2ERKSsP11ISvcLocator
      fun:_ZN13ChronoAuditorC1ERKSsP11ISvcLocator
   }
   {
      G__read_formal_templatearg
      Memcheck:Leak
      fun:malloc
      fun:G__read_formal_templatearg
      fun:G__declare_template
      fun:G__exec_statement
      fun:G__loadfile
   }
   {
      (anonymous#namespace)::OutputStreamRegistrator48::create(std::basic_string<char,#std::char_traits<char>,#std::allocator<char>#>#const=)
      Memcheck:Leak
      fun:_Znwj
      fun:_ZN62_GLOBAL__N_.._src_streams_ThrottleStream.cxx_9D2164D3_B746E03925OutputStreamRegistrator486createERKSs
      fun:_ZNK3ers13StreamFactory17create_out_streamERKSs
      fun:_ZN3ers13StreamManager12setup_streamERKSt6vectorISsSaISsEE
      fun:_ZN3ers13StreamManager12setup_streamENS_8severityE
   }
   {
      AthenaRootStreamerSvc::AddStreamer(T_AthenaRootConverterBase*,#bool)
      Memcheck:Leak
      fun:_Znwj
      fun:_ZN21AthenaRootStreamerSvc11AddStreamerEP25T_AthenaRootConverterBaseb
      fun:_ZN21AthenaRootStreamerSvc11AddStreamerERKSsb
      fun:_ZN21AthenaRootStreamerSvc10initializeEv
      fun:_ZN7Service13sysInitializeEv
   }
   {
      __gnu_cxx::new_allocator<G__value>::allocate(unsigned#int,#void#const*)
      Memcheck:Leak
      fun:_Znwj
      fun:_ZN9__gnu_cxx13new_allocatorI8G__valueE8allocateEjPKv
      fun:_ZNSt12_Vector_baseI8G__valueSaIS0_EE11_M_allocateEj
      fun:_ZNSt6vectorI8G__valueSaIS0_EE14_M_fill_insertEN9__gnu_cxx17__normal_iteratorIPS0_S2_EEjRKS0_
      fun:_ZNSt6vectorI8G__valueSaIS0_EE6insertEN9__gnu_cxx17__normal_iteratorIPS0_S2_EEjRKS0_
   }
   {
      Reflex::TypeBase::TypeBase(char#const*,#unsigned#int,#Reflex::TYPE,#std::type_info#const=,#Reflex::Type#const=)
      Memcheck:Leak
      fun:_Znwj
      fun:_ZN6Reflex8TypeBaseC2EPKcjNS_4TYPEERKSt9type_infoRKNS_4TypeE
      fun:_ZN6Reflex7PointerC1ERKNS_4TypeERKSt9type_info
      fun:_ZN6Reflex14PointerBuilderERKNS_4TypeERKSt9type_info
      fun:_Z41__static_initialization_and_destruction_0ii
   }
   {
      Reflex::Any::Holder<InterfaceID>::Clone()#const
      Memcheck:Leak
      fun:_Znwj
      fun:_ZNK6Reflex3Any6HolderI11InterfaceIDE5CloneEv
      fun:_ZN6Reflex3AnyC1ERKS0_
      fun:_ZN6Reflex3AnyaSERKS0_
      fun:_ZN6Reflex16PropertyListImpl11AddPropertyEjRKNS_3AnyE
   }
   {
      Reflex::ClassBuilderImpl::AddTypedef(Reflex::Type#const=,#char#const*)
      Memcheck:Leak
      fun:_Znwj
      fun:_ZN6Reflex16ClassBuilderImpl10AddTypedefERKNS_4TypeEPKc
      fun:_ZN6Reflex12ClassBuilder10AddTypedefERKNS_4TypeEPKc
      fun:_ZN84_GLOBAL__N_.._i686_slc4_gcc34_dbg_dict_GaudiPython_kernel_dict.cpp_9D2164D3_B5DBB98A24__std__vector_bool__dictEv
      fun:_ZN84_GLOBAL__N_.._i686_slc4_gcc34_dbg_dict_GaudiPython_kernel_dict.cpp_9D2164D3_B5DBB98A84_GLOBAL__N_.._i686_slc4_gcc34_dbg_dict_GaudiPython_kernel_dict.cpp_9D2164D3_B5DBB98A12DictionariesC1Ev
   }
   {
      listappend
      Memcheck:Leak
      fun:realloc
      fun:listappend
      fun:PyEval_EvalFrameEx
      fun:PyEval_EvalFrameEx
      fun:PyEval_EvalCodeEx
   }
   {
      boost::python::objects::py_function::py_function<boost::python::detail::caller<unsigned#int#(EventStorage::DataWriter::*)(),#boost::python::default_call_policies,#boost::mpl::vector2<unsigned#int,#EventStorage::DataWriter=>#>#>(boost::python::detail::caller<unsigned#int#(EventStorage::DataWriter::*)(),#boost::python::default_call_policies,#boost::mpl::vector2<unsigned#int,#EventStorage::DataWriter=>#>#const=)
      Memcheck:Leak
      fun:_Znwj
      fun:_ZN5boost6python7objects11py_functionC1INS0_6detail6callerIMN12EventStorage10DataWriterEFjvENS0_21default_call_policiesENS_3mpl7vector2IjRS7_EEEEEERKT_
      fun:_ZN5boost6python6detail17make_function_auxIMN12EventStorage10DataWriterEFjvENS0_21default_call_policiesENS_3mpl7vector2IjRS4_EEN4mpl_4int_ILi0EEEEENS0_3api6objectET_RKT0_RKT1_RKSt4pairIPKNS1_7keywordESR_ET2_
      fun:_ZN5boost6python13make_functionIMN12EventStorage10DataWriterEFjvENS0_21default_call_policiesENS0_6detail8keywordsILj0EEENS_3mpl7vector2IjRS3_EEEENS0_3api6objectET_RKT0_RKT1_RKT2_
      fun:_ZN5boost6python6class_IN12EventStorage10DataWriterENS_12noncopyable_11noncopyableENS0_6detail13not_specifiedES7_E8def_implIS3_MS3_FjvENS6_10def_helperIPKcS7_S7_S7_EEEEvPT_SE_T0_RKT1_z
   }
   {
      G__malloc
      Memcheck:Leak
      fun:calloc
      fun:G__malloc
      fun:G__allocvariable
      fun:G__letvariable
      fun:G__define_var
   }
   {
      __gnu_cxx::new_allocator<__gnu_cxx::_Hashtable_node<std::pair<std::basic_string<char,#std::char_traits<char>,#std::allocator<char>#>#const*#const,#Reflex::Scope>#>#>::allocate(unsigned#int,#void#const*)
      Memcheck:Leak
      fun:_Znwj
      fun:_ZN9__gnu_cxx13new_allocatorINS_15_Hashtable_nodeISt4pairIKPKSsN6Reflex5ScopeEEEEE8allocateEjPKv
      fun:_ZN9__gnu_cxx9hashtableISt4pairIKPKSsN6Reflex5ScopeEES3_NS_4hashIS3_EESt10_Select1stIS7_ESt8equal_toIS3_ESaIS6_EE11_M_get_nodeEv
      fun:_ZN9__gnu_cxx9hashtableISt4pairIKPKSsN6Reflex5ScopeEES3_NS_4hashIS3_EESt10_Select1stIS7_ESt8equal_toIS3_ESaIS6_EE11_M_new_nodeERKS7_
      fun:_ZN9__gnu_cxx9hashtableISt4pairIKPKSsN6Reflex5ScopeEES3_NS_4hashIS3_EESt10_Select1stIS7_ESt8equal_toIS3_ESaIS6_EE14find_or_insertERKS7_
   }
   {
      (anonymous#namespace)::CreateBoolConverter(long)
      Memcheck:Leak
      fun:_Znwj
      fun:_ZN38_GLOBAL__N__ZN6PyROOT14gConvFactoriesE19CreateBoolConverterEl
      fun:_ZN6PyROOT15CreateConverterERKSsl
      fun:_ZN6PyROOT13TMethodHolderINS_13TScopeAdapterENS_14TMemberAdapterEE13InitCallFunc_Ev
      fun:_ZN6PyROOT13TMethodHolderINS_13TScopeAdapterENS_14TMemberAdapterEE10InitializeEv
   }
   {
      nlepeinit
      Memcheck:Leak
      fun:calloc
      fun:nlepeinit
      fun:nlstdggo
      fun:nlstdgg
      fun:nigini1
   }
   {
      (anonymous#namespace)::CreateSTLStringRefExecutor()
      Memcheck:Leak
      fun:_Znwj
      fun:_ZN38_GLOBAL__N__ZN6PyROOT14gExecFactoriesE26CreateSTLStringRefExecutorEv
      fun:_ZN6PyROOT14CreateExecutorERKSs
      fun:_ZN6PyROOT13TMethodHolderINS_13TScopeAdapterENS_14TMemberAdapterEE13InitExecutor_ERPNS_9TExecutorE
      fun:_ZN6PyROOT13TMethodHolderINS_13TScopeAdapterENS_14TMemberAdapterEE10InitializeEv
   }
   {
      boost::python::objects::py_function::py_function<boost::python::detail::caller<unsigned#int#(eformat::helper::u32slice::*)()#const,#boost::python::default_call_policies,#boost::mpl::vector2<unsigned#int,#eformat::helper::u32slice=>#>#>(boost::python::detail::caller<unsigned#int#(eformat::helper::u32slice::*)()#const,#boost::python::default_call_policies,#boost::mpl::vector2<unsigned#int,#eformat::helper::u32slice=>#>#const=)
      Memcheck:Leak
      fun:_Znwj
      fun:_ZN5boost6python7objects11py_functionC1INS0_6detail6callerIMN7eformat6helper8u32sliceEKFjvENS0_21default_call_policiesENS_3mpl7vector2IjRS8_EEEEEERKT_
      fun:_ZN5boost6python6detail17make_function_auxIMN7eformat6helper8u32sliceEKFjvENS0_21default_call_policiesENS_3mpl7vector2IjRS5_EEN4mpl_4int_ILi0EEEEENS0_3api6objectET_RKT0_RKT1_RKSt4pairIPKNS1_7keywordESS_ET2_
      fun:_ZN5boost6python13make_functionIMN7eformat6helper8u32sliceEKFjvENS0_21default_call_policiesENS0_6detail8keywordsILj0EEENS_3mpl7vector2IjRS4_EEEENS0_3api6objectET_RKT0_RKT1_RKT2_
      fun:_ZN5boost6python6class_IN7eformat6helper8u32sliceENS0_6detail13not_specifiedES6_S6_E8def_implIS4_MS4_KFjvENS5_10def_helperIPKcS6_S6_S6_EEEEvPT_SD_T0_RKT1_z
   }
   {
      G__readansiproto
      Memcheck:Leak
      fun:malloc
      fun:G__readansiproto
      fun:G__make_ifunctable
      fun:G__define_var
      fun:G__exec_statement
   }
   {
      __gnu_cxx::new_allocator<std::basic_string<char,#std::char_traits<char>,#std::allocator<char>#>#>::allocate(unsigned#int,#void#const*)
      Memcheck:Leak
      fun:_Znwj
      fun:_ZN9__gnu_cxx13new_allocatorISsE8allocateEjPKv
      fun:_ZNSt12_Vector_baseISsSaISsEE11_M_allocateEj
      fun:_ZNSt6vectorISsSaISsEE13_M_insert_auxEN9__gnu_cxx17__normal_iteratorIPSsS1_EERKSs
      fun:_ZNSt6vectorISsSaISsEE9push_backERKSs
   }
   {
      boost::python::objects::py_function::py_function<boost::python::detail::caller<void#(daq::RawFileName::*)(unsigned#int),#boost::python::default_call_policies,#boost::mpl::vector3<void,#daq::RawFileName=,#unsigned#int>#>#>(boost::python::detail::caller<void#(daq::RawFileName::*)(unsigned#int),#boost::python::default_call_policies,#boost::mpl::vector3<void,#daq::RawFileName=,#unsigned#int>#>#const=)
      Memcheck:Leak
      fun:_Znwj
      fun:_ZN5boost6python7objects11py_functionC1INS0_6detail6callerIMN3daq11RawFileNameEFvjENS0_21default_call_policiesENS_3mpl7vector3IvRS7_jEEEEEERKT_
      fun:_ZN5boost6python6detail17make_function_auxIMN3daq11RawFileNameEFvjENS0_21default_call_policiesENS_3mpl7vector3IvRS4_jEEN4mpl_4int_ILi0EEEEENS0_3api6objectET_RKT0_RKT1_RKSt4pairIPKNS1_7keywordESR_ET2_
      fun:_ZN5boost6python13make_functionIMN3daq11RawFileNameEFvjENS0_21default_call_policiesENS0_6detail8keywordsILj0EEENS_3mpl7vector3IvRS3_jEEEENS0_3api6objectET_RKT0_RKT1_RKT2_
      fun:_ZN5boost6python6class_IN3daq11RawFileNameENS0_6detail13not_specifiedES5_S5_E8def_implIS3_MS3_FvjENS4_10def_helperIPKcS5_S5_S5_EEEEvPT_SC_T0_RKT1_z
   }
   {
      boost::python::objects::py_function::py_function<boost::python::detail::caller<void#(*)(_object*,#eformat::write::ROBFragment#const=),#boost::python::default_call_policies,#boost::mpl::vector3<void,#_object*,#eformat::write::ROBFragment#const=>#>#>(boost::python::detail::caller<void#(*)(_object*,#eformat::write::ROBFragment#const=),#boost::python::default_call_policies,#boost::mpl::vector3<void,#_object*,#eformat::write::ROBFragment#const=>#>#const=)
      Memcheck:Leak
      fun:_Znwj
      fun:_ZN5boost6python7objects11py_functionC1INS0_6detail6callerIPFvP7_objectRKN7eformat5write11ROBFragmentEENS0_21default_call_policiesENS_3mpl7vector3IvS7_SC_EEEEEERKT_
      fun:_ZN5boost6python6detail17make_function_auxIPFvP7_objectRKN7eformat5write11ROBFragmentEENS0_21default_call_policiesENS_3mpl7vector3IvS4_S9_EEN4mpl_4int_ILi0EEEEENS0_3api6objectET_RKT0_RKT1_RKSt4pairIPKNS1_7keywordESV_ET2_
      fun:_ZN5boost6python6detail27make_keyword_range_functionIPFvP7_objectRKN7eformat5write11ROBFragmentEENS0_21default_call_policiesEEENS0_3api6objectET_RKT0_RKSt4pairIPKNS1_7keywordESM_E
      fun:_ZN5boost6python6detail30make_keyword_range_constructorINS_3mpl7vector1IRKN7eformat5write11ROBFragmentEEENS3_4sizeISA_EENS0_7objects12value_holderIS7_EENS0_21default_call_policiesEEENS0_3api6objectERKT2_RKSt4pairIPKNS1_7keywordESP_EPT1_PT_PT0_
   }
   {
      Property*#PropertyMgr::declareProperty<int>(std::basic_string<char,#std::char_traits<char>,#std::allocator<char>#>#const=,#int=,#std::basic_string<char,#std::char_traits<char>,#std::allocator<char>#>#const=)
      Memcheck:Leak
      fun:_Znwj
      fun:_ZN11PropertyMgr15declarePropertyIiEEP8PropertyRKSsRT_S4_
      fun:_ZNK7Auditor15declarePropertyIiEEP8PropertyRKSsRT_S4_
      fun:_ZN7AuditorC2ERKSsP11ISvcLocator
      fun:_ZN13ChronoAuditorC1ERKSsP11ISvcLocator
   }
   {
      __gnu_cxx::new_allocator<Reflex::Base>::allocate(unsigned#int,#void#const*)
      Memcheck:Leak
      fun:_Znwj
      fun:_ZN9__gnu_cxx13new_allocatorIN6Reflex4BaseEE8allocateEjPKv
      fun:_ZNSt12_Vector_baseIN6Reflex4BaseESaIS1_EE11_M_allocateEj
      fun:_ZNSt6vectorIN6Reflex4BaseESaIS1_EE13_M_insert_auxEN9__gnu_cxx17__normal_iteratorIPS1_S3_EERKS1_
      fun:_ZNSt6vectorIN6Reflex4BaseESaIS1_EE9push_backERKS1_
   }
   {
      Reflex::TypeBase::TypeBase(char#const*,#unsigned#int,#Reflex::TYPE,#std::type_info#const=,#Reflex::Type#const=)
      Memcheck:Leak
      fun:_Znwj
      fun:_ZN6Reflex8TypeBaseC2EPKcjNS_4TYPEERKSt9type_infoRKNS_4TypeE
      fun:_ZN6Reflex8FunctionC1ERKNS_4TypeERKSt6vectorIS1_SaIS1_EERKSt9type_infoNS_4TYPEE
      fun:_ZN6Reflex19FunctionTypeBuilderERKNS_4TypeES2_S2_S2_
      fun:_ZN84_GLOBAL__N_.._i686_slc4_gcc34_dbg_dict_GaudiPython_kernel_dict.cpp_9D2164D3_B5DBB98A79__SimpleProperty_std__vector_float__BoundedVerifier_std__vector_float_s_s__dictEv
   }
   {
      boost::python::objects::py_function::py_function<boost::python::detail::caller<boost::python::detail::member<unsigned#long#long,#EventStorage::run_parameters_record>,#boost::python::default_call_policies,#boost::mpl::vector3<void,#EventStorage::run_parameters_record=,#unsigned#long#long#const=>#>#>(boost::python::detail::caller<boost::python::detail::member<unsigned#long#long,#EventStorage::run_parameters_record>,#boost::python::default_call_policies,#boost::mpl::vector3<void,#EventStorage::run_parameters_record=,#unsigned#long#long#const=>#>#const=)
      Memcheck:Leak
      fun:_Znwj
      fun:_ZN5boost6python7objects11py_functionC1INS0_6detail6callerINS4_6memberIyN12EventStorage21run_parameters_recordEEENS0_21default_call_policiesENS_3mpl7vector3IvRS8_RKyEEEEEERKT_
      fun:_ZN5boost6python6detail17make_function_auxINS1_6memberIyN12EventStorage21run_parameters_recordEEENS0_21default_call_policiesENS_3mpl7vector3IvRS5_RKyEEEENS0_3api6objectET_RKT0_RKT1_
      fun:_ZN5boost6python6detail22make_function_dispatchINS1_6memberIyN12EventStorage21run_parameters_recordEEENS0_21default_call_policiesENS_3mpl7vector3IvRS5_RKyEEEENS0_3api6objectET_RKT0_RKT1_N4mpl_5bool_ILb0EEE
      fun:_ZN5boost6python13make_functionINS0_6detail6memberIyN12EventStorage21run_parameters_recordEEENS0_21default_call_policiesENS_3mpl7vector3IvRS5_RKyEEEENS0_3api6objectET_RKT0_RKT1_
   }
   {
      boost::python::objects::py_function::py_function<boost::python::detail::caller<void#(*)(eformat::write::FullEventFragment=,#eformat::helper::u32slice#const=),#boost::python::with_custodian_and_ward<1u,#2u,#boost::python::default_call_policies>,#boost::mpl::vector3<void,#eformat::write::FullEventFragment=,#eformat::helper::u32slice#const=>#>#>(boost::python::detail::caller<void#(*)(eformat::write::FullEventFragment=,#eformat::helper::u32slice#const=),#boost::python::with_custodian_and_ward<1u,#2u,#boost::python::default_call_policies>,#boost::mpl::vector3<void,#eformat::write::FullEventFragment=,#eformat::helper::u32slice#const=>#>#const=)
      Memcheck:Leak
      fun:_Znwj
      fun:_ZN5boost6python7objects11py_functionC1INS0_6detail6callerIPFvRN7eformat5write17FullEventFragmentERKNS6_6helper8u32sliceEENS0_23with_custodian_and_wardILj1ELj2ENS0_21default_call_policiesEEENS_3mpl7vector3IvS9_SD_EEEEEERKT_
      fun:_ZN5boost6python6detail17make_function_auxIPFvRN7eformat5write17FullEventFragmentERKNS3_6helper8u32sliceEENS0_23with_custodian_and_wardILj1ELj2ENS0_21default_call_policiesEEENS_3mpl7vector3IvS6_SA_EEN4mpl_4int_ILi0EEEEENS0_3api6objectET_RKT0_RKT1_RKSt4pairIPKNS1_7keywordESY_ET2_
      fun:_ZN5boost6python13make_functionIPFvRN7eformat5write17FullEventFragmentERKNS2_6helper8u32sliceEENS0_23with_custodian_and_wardILj1ELj2ENS0_21default_call_policiesEEENS0_6detail8keywordsILj0EEENS_3mpl7vector3IvS5_S9_EEEENS0_3api6objectET_RKT0_RKT1_RKT2_
      fun:_ZN5boost6python6class_IN7eformat5write17FullEventFragmentENS0_6detail13not_specifiedES6_S6_E8def_implIS4_PFvRS4_RKNS2_6helper8u32sliceEENS5_10def_helperINS0_23with_custodian_and_wardILj1ELj2ENS0_21default_call_policiesEEES6_S6_S6_EEEEvPT_PKcT0_RKT1_z
   }
   {
      boost::python::objects::py_function::py_function<boost::python::detail::caller<void#(eformat::helper::DetectorMask::*)(),#boost::python::default_call_policies,#boost::mpl::vector2<void,#eformat::helper::DetectorMask=>#>#>(boost::python::detail::caller<void#(eformat::helper::DetectorMask::*)(),#boost::python::default_call_policies,#boost::mpl::vector2<void,#eformat::helper::DetectorMask=>#>#const=)
      Memcheck:Leak
      fun:_Znwj
      fun:_ZN5boost6python7objects11py_functionC1INS0_6detail6callerIMN7eformat6helper12DetectorMaskEFvvENS0_21default_call_policiesENS_3mpl7vector2IvRS8_EEEEEERKT_
      fun:_ZN5boost6python6detail17make_function_auxIMN7eformat6helper12DetectorMaskEFvvENS0_21default_call_policiesENS_3mpl7vector2IvRS5_EEN4mpl_4int_ILi0EEEEENS0_3api6objectET_RKT0_RKT1_RKSt4pairIPKNS1_7keywordESS_ET2_
      fun:_ZN5boost6python13make_functionIMN7eformat6helper12DetectorMaskEFvvENS0_21default_call_policiesENS0_6detail8keywordsILj0EEENS_3mpl7vector2IvRS4_EEEENS0_3api6objectET_RKT0_RKT1_RKT2_
      fun:_ZN5boost6python6class_IN7eformat6helper12DetectorMaskENS0_6detail13not_specifiedES6_S6_E8def_implIS4_MS4_FvvENS5_10def_helperIPKcS6_S6_S6_EEEEvPT_SD_T0_RKT1_z
   }
   {
      ROOT::TCollectionProxyInfo*#ROOT::TCollectionProxyInfo::Generate<ROOT::TCollectionProxyInfo::Pushback<std::vector<int,#std::allocator<int>#>#>#>(ROOT::TCollectionProxyInfo::Pushback<std::vector<int,#std::allocator<int>#>#>#const=)
      Memcheck:Leak
      fun:_Znwj
      fun:_ZN4ROOT20TCollectionProxyInfo8GenerateINS0_8PushbackISt6vectorIiSaIiEEEEEEPS0_RKT_
      fun:_ZN4ROOT25GenerateInitInstanceLocalEPKSt6vectorIiSaIiEE
      fun:_Z41__static_initialization_and_destruction_0ii
      fun:_GLOBAL__I__ZN4ROOT20GenerateInitInstanceEPK23TVirtualCollectionProxy
   }
   {
      G__store_dictposition
      Memcheck:Leak
      fun:malloc
      fun:G__store_dictposition
      fun:G__register_sharedlib
      fun:G__RegisterLibrary
      fun:G__call_setup_funcs
   }
   {
      (anonymous#namespace)::CreateULongLongExecutor()
      Memcheck:Leak
      fun:_Znwj
      fun:_ZN38_GLOBAL__N__ZN6PyROOT14gExecFactoriesE23CreateULongLongExecutorEv
      fun:_ZN6PyROOT14CreateExecutorERKSs
      fun:_ZN6PyROOT13TMethodHolderINS_13TScopeAdapterENS_14TMemberAdapterEE13InitExecutor_ERPNS_9TExecutorE
      fun:_ZN6PyROOT13TMethodHolderINS_13TScopeAdapterENS_14TMemberAdapterEE10InitializeEv
   }
   {
      Reflex::FunctionTypeBuilder(Reflex::Type#const=,#Reflex::Type#const=,#Reflex::Type#const=,#Reflex::Type#const=,#Reflex::Type#const=)
      Memcheck:Leak
      fun:_Znwj
      fun:_ZN6Reflex19FunctionTypeBuilderERKNS_4TypeES2_S2_S2_S2_
      fun:_ZN84_GLOBAL__N_.._i686_slc4_gcc34_dbg_dict_GaudiPython_kernel_dict.cpp_9D2164D3_B5DBB98A17__IHistoTool_dictEv
      fun:_ZN84_GLOBAL__N_.._i686_slc4_gcc34_dbg_dict_GaudiPython_kernel_dict.cpp_9D2164D3_B5DBB98A84_GLOBAL__N_.._i686_slc4_gcc34_dbg_dict_GaudiPython_kernel_dict.cpp_9D2164D3_B5DBB98A12DictionariesC1Ev
      fun:_Z41__static_initialization_and_destruction_0ii
   }
   {
      boost::python::objects::py_function::py_function<boost::python::detail::caller<void#(*)(eformat::write::FullEventFragment=,#eformat::helper::u32slice=),#boost::python::with_custodian_and_ward<1u,#2u,#boost::python::default_call_policies>,#boost::mpl::vector3<void,#eformat::write::FullEventFragment=,#eformat::helper::u32slice=>#>#>(boost::python::detail::caller<void#(*)(eformat::write::FullEventFragment=,#eformat::helper::u32slice=),#boost::python::with_custodian_and_ward<1u,#2u,#boost::python::default_call_policies>,#boost::mpl::vector3<void,#eformat::write::FullEventFragment=,#eformat::helper::u32slice=>#>#const=)
      Memcheck:Leak
      fun:_Znwj
      fun:_ZN5boost6python7objects11py_functionC1INS0_6detail6callerIPFvRN7eformat5write17FullEventFragmentERNS6_6helper8u32sliceEENS0_23with_custodian_and_wardILj1ELj2ENS0_21default_call_policiesEEENS_3mpl7vector3IvS9_SC_EEEEEERKT_
      fun:_ZN5boost6python6detail17make_function_auxIPFvRN7eformat5write17FullEventFragmentERNS3_6helper8u32sliceEENS0_23with_custodian_and_wardILj1ELj2ENS0_21default_call_policiesEEENS_3mpl7vector3IvS6_S9_EEN4mpl_4int_ILi0EEEEENS0_3api6objectET_RKT0_RKT1_RKSt4pairIPKNS1_7keywordESX_ET2_
      fun:_ZN5boost6python13make_functionIPFvRN7eformat5write17FullEventFragmentERNS2_6helper8u32sliceEENS0_23with_custodian_and_wardILj1ELj2ENS0_21default_call_policiesEEENS0_6detail8keywordsILj0EEENS_3mpl7vector3IvS5_S8_EEEENS0_3api6objectET_RKT0_RKT1_RKT2_
      fun:_ZN5boost6python6class_IN7eformat5write17FullEventFragmentENS0_6detail13not_specifiedES6_S6_E8def_implIS4_PFvRS4_RNS2_6helper8u32sliceEENS5_10def_helperINS0_23with_custodian_and_wardILj1ELj2ENS0_21default_call_policiesEEES6_S6_S6_EEEEvPT_PKcT0_RKT1_z
   }
   {
      (anonymous#namespace)::Factory<ApplicationMgr,#IInterface*#()(IInterface*)>::Func(void*,#void*,#std::vector<void*,#std::allocator<void*>#>#const=,#void*)
      Memcheck:Leak
      fun:_Znwj
      fun:_ZN69_GLOBAL__N_.._src_ApplicationMgr_ApplicationMgr.cpp_9D2164D3_9BE5AFB07FactoryI14ApplicationMgrFP10IInterfaceS3_EE4FuncEPvS6_RKSt6vectorIS6_SaIS6_EES6_
      fun:_ZNK6Reflex14FunctionMember6InvokeERKNS_6ObjectEPS1_RKSt6vectorIPvSaIS6_EE
      fun:_ZNK6Reflex6Member6InvokeERKNS_6ObjectEPS1_RKSt6vectorIPvSaIS6_EE
      fun:_ZNK6Reflex6Member6InvokeIPvEEvRKNS_6ObjectERT_RKSt6vectorIS2_SaIS2_EE
   }
   {
      boost::python::objects::py_function::py_function<boost::python::detail::caller<std::basic_string<char,#std::char_traits<char>,#std::allocator<char>#>#(*)(unsigned#int),#boost::python::default_call_policies,#boost::mpl::vector2<std::basic_string<char,#std::char_traits<char>,#std::allocator<char>#>,#unsigned#int>#>#>(boost::python::detail::caller<std::basic_string<char,#std::char_traits<char>,#std::allocator<char>#>#(*)(unsigned#int),#boost::python::default_call_policies,#boost::mpl::vector2<std::basic_string<char,#std::char_traits<char>,#std::allocator<char>#>,#unsigned#int>#>#const=)
      Memcheck:Leak
      fun:_Znwj
      fun:_ZN5boost6python7objects11py_functionC1INS0_6detail6callerIPFSsjENS0_21default_call_policiesENS_3mpl7vector2ISsjEEEEEERKT_
      fun:_ZN5boost6python6detail17make_function_auxIPFSsjENS0_21default_call_policiesENS_3mpl7vector2ISsjEEEENS0_3api6objectET_RKT0_RKT1_
      fun:_ZN5boost6python13make_functionIPFSsjEEENS0_3api6objectET_
      fun:_ZN5boost6python6detail14make_function1IPFSsjEEENS0_3api6objectET_z
   }
   {
      G__readansiproto
      Memcheck:Leak
      fun:malloc
      fun:G__readansiproto
      fun:G__make_ifunctable
      fun:G__exec_statement
      fun:G__define_type
   }
   {
      __gnu_cxx::new_allocator<std::_Rb_tree_node<std::pair<std::basic_string<char,#std::char_traits<char>,#std::allocator<char>#>#const,#MSG::Color>#>#>::allocate(unsigned#int,#void#const*)
      Memcheck:Leak
      fun:_Znwj
      fun:_ZN9__gnu_cxx13new_allocatorISt13_Rb_tree_nodeISt4pairIKSsN3MSG5ColorEEEE8allocateEjPKv
      fun:_ZNSt8_Rb_treeISsSt4pairIKSsN3MSG5ColorEESt10_Select1stIS4_ESt4lessISsESaIS4_EE11_M_get_nodeEv
      fun:_ZNSt8_Rb_treeISsSt4pairIKSsN3MSG5ColorEESt10_Select1stIS4_ESt4lessISsESaIS4_EE14_M_create_nodeERKS4_
      fun:_ZNSt8_Rb_treeISsSt4pairIKSsN3MSG5ColorEESt10_Select1stIS4_ESt4lessISsESaIS4_EE9_M_insertEPSt18_Rb_tree_node_baseSC_RKS4_
   }
   {
      Reflex::ScopeName::ScopeName(char#const*,#Reflex::ScopeBase*)
      Memcheck:Leak
      fun:_Znwj
      fun:_ZN6Reflex9ScopeNameC1EPKcPNS_9ScopeBaseE
      fun:_ZN6Reflex9ScopeBaseC2EPKcNS_4TYPEE
      fun:_ZN6Reflex5ClassC1EPKcjRKSt9type_infojNS_4TYPEE
      fun:_ZN6Reflex16ClassBuilderImplC1EPKcRKSt9type_infojjNS_4TYPEE
   }
   {
      G__checkIfOnlyFunction
      Memcheck:Leak
      fun:malloc
      fun:G__checkIfOnlyFunction
      fun:G__loadfile
      fun:G__process_cmd
      fun:_ZN5TCint11ProcessLineEPKcPN12TInterpreter10EErrorCodeE
   }
   {
      boost::python::objects::py_function::py_function<boost::python::detail::caller<unsigned#short#(eformat::FullEventFragment<unsigned#int#const*>::*)()#const,#boost::python::default_call_policies,#boost::mpl::vector2<unsigned#short,#eformat::FullEventFragment<unsigned#int#const*>=>#>#>(boost::python::detail::caller<unsigned#short#(eformat::FullEventFragment<unsigned#int#const*>::*)()#const,#boost::python::default_call_policies,#boost::mpl::vector2<unsigned#short,#eformat::FullEventFragment<unsigned#int#const*>=>#>#const=)
      Memcheck:Leak
      fun:_Znwj
      fun:_ZN5boost6python7objects11py_functionC1INS0_6detail6callerIMN7eformat17FullEventFragmentIPKjEEKFtvENS0_21default_call_policiesENS_3mpl7vector2ItRSA_EEEEEERKT_
      fun:_ZN5boost6python6detail17make_function_auxIMN7eformat17FullEventFragmentIPKjEEKFtvENS0_21default_call_policiesENS_3mpl7vector2ItRS7_EEN4mpl_4int_ILi0EEEEENS0_3api6objectET_RKT0_RKT1_RKSt4pairIPKNS1_7keywordESU_ET2_
      fun:_ZN5boost6python13make_functionIMN7eformat17FullEventFragmentIPKjEEKFtvENS0_21default_call_policiesENS0_6detail8keywordsILj0EEENS_3mpl7vector2ItRS6_EEEENS0_3api6objectET_RKT0_RKT1_RKT2_
      fun:_ZN5boost6python6class_IN7eformat17FullEventFragmentIPKjEENS_10shared_ptrIS6_EENS0_5basesINS2_6HeaderIS5_EEN4mpl_5void_ESD_SD_SD_SD_SD_SD_SD_SD_EENS0_6detail13not_specifiedEE8def_implIS6_MS6_KFtvENSF_10def_helperIPKcSG_SG_SG_EEEEvPT_SN_T0_RKT1_z
   }
   {
      SltsPrInit
      Memcheck:Leak
      fun:malloc
      fun:SltsPrInit
      fun:nlpaxini
      fun:nnftboot
      fun:nnfgrne
   }
   {
      boost::python::objects::py_function::py_function<boost::python::detail::caller<eformat::HeaderMarker#(*)(eformat::HeaderMarker),#boost::python::default_call_policies,#boost::mpl::vector2<eformat::HeaderMarker,#eformat::HeaderMarker>#>#>(boost::python::detail::caller<eformat::HeaderMarker#(*)(eformat::HeaderMarker),#boost::python::default_call_policies,#boost::mpl::vector2<eformat::HeaderMarker,#eformat::HeaderMarker>#>#const=)
      Memcheck:Leak
      fun:_Znwj
      fun:_ZN5boost6python7objects11py_functionC1INS0_6detail6callerIPFN7eformat12HeaderMarkerES7_ENS0_21default_call_policiesENS_3mpl7vector2IS7_S7_EEEEEERKT_
      fun:_ZN5boost6python6detail17make_function_auxIPFN7eformat12HeaderMarkerES4_ENS0_21default_call_policiesENS_3mpl7vector2IS4_S4_EEEENS0_3api6objectET_RKT0_RKT1_
      fun:_ZN5boost6python13make_functionIPFN7eformat12HeaderMarkerES3_EEENS0_3api6objectET_
      fun:_ZN5boost6python6detail14make_function1IPFN7eformat12HeaderMarkerES4_EEENS0_3api6objectET_z
   }
   {
      sltskminit
      Memcheck:Leak
      fun:malloc
      fun:sltskminit
      fun:sltsini
      fun:slxmxinit
