{
   Reflex leak
   Memcheck:Leak
   fun:_Znwj
   fun:_ZN4ROOT6Reflex6ReflexC1Ev
   fun:_Z41__static_initialization_and_destruction_0ii
   fun:_GLOBAL__I__ZN4ROOT6Reflex6ReflexC2Ev
   obj:/afs/cern.ch/sw/lcg/external/root/5.18.00a/slc4_ia32_gcc34_dbg/root/lib/libReflex.so
   obj:/afs/cern.ch/sw/lcg/external/root/5.18.00a/slc4_ia32_gcc34_dbg/root/lib/libReflex.so
}
{
   Reflex leak
   Memcheck:Leak
   fun:_Znwj
   fun:_ZN4ROOT6Reflex11TypeBuilderEPKcj
   fun:_ZN4ROOT6Reflex13TypeDistillerISsE3GetEv
   fun:_ZN4ROOT6Reflex17FunctionDistillerIFP8IServiceSsP11ISvcLocatorEE3GetEv
   fun:_ZN55_GLOBAL__N_.._src_ToolSvc_ToolSvc.cpp_9D2164D3_0CE4793F14ToolSvc_dict20C1Ev
   fun:_Z41__static_initialization_and_destruction_0ii
}
{
   TArray leak
   Memcheck:Leak
   fun:_Znaj
   fun:_ZN7TArrayI3SetEi
   fun:_ZN6TColor10SetPaletteEiPi
   fun:_ZN6TStyle10SetPaletteEiPi
   fun:_ZN6TStyle5ResetEPKc
   fun:_ZN6TStyleC1EPKcS1_
}
{
   TStorage leak
   Memcheck:Leak
   fun:_Znwj
   fun:_ZN8TStorage11ObjectAllocEj
   fun:_ZN7TObjectnwEj
   fun:_ZNK4ROOT20TQObjectInitBehavior11CreateClassEPKcsRKSt9type_infoP16TVirtualIsAProxyPFvPvR16TMemberInspectorPcES2_S2_ii
   fun:_ZN4ROOT17TGenericClassInfo8GetClassEv
   fun:_ZN8TQObject5ClassEv
}
{
   Reflex leak
   Memcheck:Leak
   fun:_Znwj
   fun:_ZNSs4_Rep9_S_createEjjRKSaIcE
   obj:/usr/lib/libstdc++.so.6.0.3
   fun:_ZNSsC1EPKcRKSaIcE
   fun:_ZN4ROOT6Reflex9ScopeNameC1EPKcPNS0_9ScopeBaseE
   fun:_ZN4ROOT6Reflex5Scope11__NIRVANA__Ev
}
{
   TString leak
   Memcheck:Leak
   fun:_Znaj
   fun:_ZN10TStringRef6GetRepEii
   fun:_ZN7TStringC1EPKc
   fun:_ZN10TObjStringC1EPKc
   fun:_ZN4ROOT18TMapTypeToClassRec3AddEPKcRP9TClassRec
   fun:_ZN11TClassTable3AddEPKcsRKSt9type_infoPFvvEi
}
{
   CINT leak
   Memcheck:Leak
   fun:malloc
   fun:G__store_dictposition
   fun:G__storerewindposition
   fun:G__exec_text
   fun:G__platformMacro
   fun:G__set_stdio
}
{
   Reflex leak
   Memcheck:Leak
   fun:_Znwj
   fun:_ZN9__gnu_cxx13new_allocatorIN4ROOT6Reflex5ScopeEE8allocateEjPKv
   fun:_ZNSt12_Vector_baseIN4ROOT6Reflex5ScopeESaIS2_EE11_M_allocateEj
   fun:_ZNSt6vectorIN4ROOT6Reflex5ScopeESaIS2_EE13_M_insert_auxEN9__gnu_cxx17__normal_iteratorIPS2_S4_EERKS2_
   fun:_ZNSt6vectorIN4ROOT6Reflex5ScopeESaIS2_EE9push_backERKS2_
   fun:_ZNK4ROOT6Reflex9ScopeBase11AddSubScopeERKNS0_5ScopeE
}
{
   Reflex leak
   Memcheck:Leak
   fun:_Znwj
   fun:_ZN4ROOT6Reflex9ScopeBaseC2EPKcNS0_4TYPEE
   fun:_ZN4ROOT6Reflex9NamespaceC1EPKc
   fun:_ZN4ROOT6Reflex16NamespaceBuilderC1EPKc
   fun:_ZN4ROOT6Reflex13PluginServiceC1Ev
   fun:_ZN4ROOT6Reflex13PluginService8InstanceEv
}
{
   CINT Leak
   Memcheck:Leak
   fun:_Znwj
   fun:G__call_setup_funcs
   fun:_ZN24G__cpp_setup_initG__MathC1Ev
   fun:_Z41__static_initialization_and_destruction_0ii
   fun:_GLOBAL__I__ZN4ROOT20GenerateInitInstanceEPK8TComplex
   obj:/afs/cern.ch/sw/lcg/external/root/5.18.00a/slc4_ia32_gcc34_dbg/root/lib/libCore.so
}
{
   Reflex leak
   Memcheck:Leak
   fun:_Znwj
   fun:_ZNK4ROOT6Reflex3Any6HolderIPKcE5CloneEv
   fun:_ZN4ROOT6Reflex3AnyC1ERKS1_
   fun:_ZN4ROOT6Reflex3AnyaSERKS1_
   fun:_ZN4ROOT6Reflex16PropertyListImpl11AddPropertyEjRKNS0_3AnyE
   fun:_ZN4ROOT6Reflex16PropertyListImpl11AddPropertyERKSsRKNS0_3AnyE
}
{
      Reflex leak
   Memcheck:Leak
   fun:_Znwj
   fun:_ZN4ROOT6Reflex9ScopeBaseC2Ev
   fun:_ZN4ROOT6Reflex9NamespaceC1Ev
   fun:_ZN4ROOT6Reflex9Namespace11GlobalScopeEv
   fun:_ZN4ROOT6Reflex6ReflexC1Ev
   fun:_Z41__static_initialization_and_destruction_0ii
}
{
   Reflex leak
   Memcheck:Leak
   fun:_Znwj
   fun:_ZN4ROOT6Reflex9ScopeBaseC2EPKcNS0_4TYPEE
   fun:_ZN4ROOT6Reflex9NamespaceC1EPKc
   fun:_ZN4ROOT6Reflex16NamespaceBuilderC1EPKc
   fun:_ZN4ROOT6Reflex13PluginServiceC1Ev
   fun:_ZN4ROOT6Reflex13PluginService8InstanceEv
}
{
   Reflex leak
   Memcheck:Leak
   fun:_Znwj
   fun:_ZN4ROOT6Reflex9ScopeBaseC2Ev
   fun:_ZN4ROOT6Reflex9NamespaceC1Ev
   fun:_ZN4ROOT6Reflex9Namespace11GlobalScopeEv
   fun:_ZN4ROOT6Reflex6ReflexC1Ev
   fun:_Z41__static_initialization_and_destruction_0ii
}
{
   Reflex leak
   Memcheck:Leak
   fun:_Znwj
   fun:_ZN4ROOT6Reflex9ScopeNameC1EPKcPNS0_9ScopeBaseE
   fun:_ZN4ROOT6Reflex5Scope11__NIRVANA__Ev
   fun:_ZN4ROOT6Reflex9ScopeBaseC2Ev
   fun:_ZN4ROOT6Reflex9NamespaceC1Ev
   fun:_ZN4ROOT6Reflex9Namespace11GlobalScopeEv
}
{
   Memcheck:Leak
   fun:_Znwj
   fun:_ZN4ROOT6Reflex5Scope11__NIRVANA__Ev
   fun:_ZN4ROOT6Reflex9ScopeBaseC2Ev
   fun:_ZN4ROOT6Reflex9NamespaceC1Ev
   fun:_ZN4ROOT6Reflex9Namespace11GlobalScopeEv
   fun:_ZN4ROOT6Reflex6ReflexC1Ev
}
{
   Memcheck:Leak
   fun:_Znwj
   fun:_ZN4ROOT6Reflex9ScopeNameC1EPKcPNS0_9ScopeBaseE
   fun:_ZN4ROOT6Reflex11TypeBuilderEPKcj
   fun:_ZN4ROOT6Reflex13TypeDistillerISsE3GetEv
   fun:_ZN4ROOT6Reflex17FunctionDistillerIFP8IServiceSsP11ISvcLocatorEE3GetEv
   fun:_ZN55_GLOBAL__N_.._src_ToolSvc_ToolSvc.cpp_9D2164D3_0CE4793F14ToolSvc_dict20C1Ev
}
{
   Memcheck:Leak
   fun:calloc
   fun:_dlerror_run
   fun:dlopen@GLIBC_2.0
   fun:_ZN4ROOT6Reflex13SharedLibrary4LoadEv
   fun:_ZN4ROOT6Reflex13PluginService14LoadFactoryLibERKSs
   fun:_ZN4ROOT6Reflex13PluginService6CreateERKSsRKNS0_4TypeERKSt6vectorINS0_11ValueObjectESaIS8_EE
}
{
   Memcheck:Leak
   fun:_Znwj
   fun:_ZN5TList10NewOptLinkEP7TObjectPKcP8TObjLink
   fun:_ZN5TList7AddLastEP7TObjectPKc
   fun:_ZN5TList3AddEP7TObjectPKc
   fun:_ZN5TROOTC1EPKcS1_PPFvvE
   fun:_ZN4ROOT7GetROOTEv
}
{
   Memcheck:Leak
   fun:malloc
   fun:G__getparameterlist
   fun:G__createfuncmacro
   fun:G__define
   fun:G__keyword_anytime_7
   fun:G__exec_statement
}
{
   Memcheck:Leak
   fun:_Znwj
   fun:_ZN11TClassTableC1Ev
   fun:_ZN11TClassTable3AddEPKcsRKSt9type_infoPFvvEi
   fun:_ZN4ROOT8AddClassEPKcsRKSt9type_infoPFvvEi
   fun:_ZNK4ROOT20TDefaultInitBehavior8RegisterEPKcsRKSt9type_infoPFvvEi
   fun:_ZN4ROOT17TGenericClassInfo4InitEi
}
{
   Memcheck:Leak
   fun:_Znwj
   fun:_ZN4ROOT6Reflex9ScopeNameC1EPKcPNS0_9ScopeBaseE
   fun:_ZN4ROOT6Reflex11TypeBuilderEPKcj
   fun:_ZN4ROOT6Reflex13TypeDistillerIN2SG6FolderEE3GetEv
   fun:_ZN4ROOT6Reflex7GetTypeIN2SG6FolderEEERKNS0_4TypeEv
   fun:_ZN66_GLOBAL__N_.._src_components_SGComps_entries.cxx_9D2164D3_35A4406C12Folder_dict8C1Ev
}
{
   Memcheck:Leak
   fun:malloc
   fun:G__add_ipath
   fun:_ZN5TCint14AddIncludePathEPKc
   fun:_ZN5TROOTC1EPKcS1_PPFvvE
   fun:_ZN4ROOT7GetROOTEv
   fun:_ZN6TTimer5ResetEv
}
{
   Memcheck:Leak
   fun:_Znwj
   fun:_ZN4ROOT25GenerateInitInstanceLocalEPK10TObjString
   fun:_Z41__static_initialization_and_destruction_0ii
   fun:_GLOBAL__I__ZN4ROOT20GenerateInitInstanceEPK16TMemberInspector
   obj:/afs/cern.ch/sw/lcg/external/root/5.18.00a/slc4_ia32_gcc34_dbg/root/lib/libCore.so
   obj:/afs/cern.ch/sw/lcg/external/root/5.18.00a/slc4_ia32_gcc34_dbg/root/lib/libCore.so
}
{
   Memcheck:Leak
   fun:_Znwj
   fun:_ZN4ROOT25GenerateInitInstanceLocalEPK8TQObject
   fun:_Z41__static_initialization_and_destruction_0ii
   fun:_GLOBAL__I__ZN4ROOT20GenerateInitInstanceEPK16TMemberInspector
   obj:/afs/cern.ch/sw/lcg/external/root/5.18.00a/slc4_ia32_gcc34_dbg/root/lib/libCore.so
   obj:/afs/cern.ch/sw/lcg/external/root/5.18.00a/slc4_ia32_gcc34_dbg/root/lib/libCore.so
}
{
   Memcheck:Leak
   fun:_Znwj
   fun:_Z41__static_initialization_and_destruction_0ii
   fun:_GLOBAL__I__ZN6TLimit7fgTableE
   obj:/afs/cern.ch/sw/lcg/external/root/5.18.00a/slc4_ia32_gcc34_dbg/root/lib/libHist.so
   obj:/afs/cern.ch/sw/lcg/external/root/5.18.00a/slc4_ia32_gcc34_dbg/root/lib/libHist.so
   fun:_dl_init
}
{
   Memcheck:Leak
   fun:_Znwj
   fun:_ZN4ROOT6Reflex11TypeBuilderEPKcj
   fun:_ZN4ROOT6Reflex13TypeDistillerIN2SG6FolderEE3GetEv
   fun:_ZN4ROOT6Reflex7GetTypeIN2SG6FolderEEERKNS0_4TypeEv
   fun:_ZN66_GLOBAL__N_.._src_components_SGComps_entries.cxx_9D2164D3_35A4406C12Folder_dict8C1Ev
   fun:_Z41__static_initialization_and_destruction_0ii
}
{
   CINT leak
   Memcheck:Leak
   fun:malloc
   fun:G__memfunc_para_setup
   fun:G__parse_parameter_link
   fun:G__memfunc_setup
   fun:_Z18G__cpp_setup_func1v
   fun:G__cpp_setup_funcG__Base1
}
{
   CINT leak
   Memcheck:Leak
   fun:_Znwj
   fun:_Z41__static_initialization_and_destruction_0ii
   fun:_GLOBAL__I_gCINTMutex
   obj:/afs/cern.ch/sw/lcg/external/root/5.18.00a/slc4_ia32_gcc34_dbg/root/lib/libCore.so
   obj:/afs/cern.ch/sw/lcg/external/root/5.18.00a/slc4_ia32_gcc34_dbg/root/lib/libCore.so
   fun:_dl_init
}
{
   CINT leak
   Memcheck:Leak
   fun:_Znwj
   fun:_ZN5TCint12SetClassInfoEP6TClassb
   fun:_ZN6TClass4InitEPKcsPKSt9type_infoP16TVirtualIsAProxyPFvPvR16TMemberInspectorPcES1_S1_ii
   fun:_ZN6TClassC1EPKcsRKSt9type_infoP16TVirtualIsAProxyPFvPvR16TMemberInspectorPcES1_S1_ii
   fun:_ZN4ROOT11CreateClassEPKcsRKSt9type_infoP16TVirtualIsAProxyPFvPvR16TMemberInspectorPcES1_S1_ii
   fun:_ZNK4ROOT20TDefaultInitBehavior11CreateClassEPKcsRKSt9type_infoP16TVirtualIsAProxyPFvPvR16TMemberInspectorPcES2_S2_ii
}
{
   CINT leak
   Memcheck:Leak
   fun:malloc
   fun:G__createfuncmacro
   fun:G__define
   fun:G__keyword_anytime_7
   fun:G__exec_statement
   fun:G__loadfile_tmpfile
}
{
   Reflex leak
   Memcheck:Leak
   fun:_Znwj
   fun:_ZNK4ROOT6Reflex3Any6HolderIjE5CloneEv
   fun:_ZN4ROOT6Reflex3AnyC1ERKS1_
   fun:_ZN4ROOT6Reflex3AnyaSERKS1_
   fun:_ZN4ROOT6Reflex16PropertyListImpl11AddPropertyEjRKNS0_3AnyE
   fun:_ZN4ROOT6Reflex16PropertyListImpl11AddPropertyERKSsRKNS0_3AnyE
}
{
   CINT leak
   Memcheck:Leak
   fun:_Znwj
   fun:G__stack_instance
   fun:G__resetplocal
   fun:_Z20G__cpp_setup_global0v
   fun:G__cpp_setup_globalG__Math
   fun:G__cpp_setupG__Math
}
{
   Reflex leak
   Memcheck:Leak
   fun:_Znwj
   fun:_ZN9__gnu_cxx13new_allocatorIN4ROOT6Reflex3AnyEE8allocateEjPKv
   fun:_ZNSt12_Vector_baseIN4ROOT6Reflex3AnyESaIS2_EE11_M_allocateEj
   fun:_ZNSt6vectorIN4ROOT6Reflex3AnyESaIS2_EE14_M_fill_insertEN9__gnu_cxx17__normal_iteratorIPS2_S4_EEjRKS2_
   fun:_ZNSt6vectorIN4ROOT6Reflex3AnyESaIS2_EE6insertEN9__gnu_cxx17__normal_iteratorIPS2_S4_EEjRKS2_
   fun:_ZNSt6vectorIN4ROOT6Reflex3AnyESaIS2_EE6resizeEjRKS2_
}
{
   Reflex leak
   Memcheck:Leak
   fun:_Znwj
   fun:_ZN9__gnu_cxx13new_allocatorIN4ROOT6Reflex4TypeEE8allocateEjPKv
   fun:_ZNSt12_Vector_baseIN4ROOT6Reflex4TypeESaIS2_EE11_M_allocateEj
   fun:_ZNSt12_Vector_baseIN4ROOT6Reflex4TypeESaIS2_EEC2EjRKS3_
   fun:_ZNSt6vectorIN4ROOT6Reflex4TypeESaIS2_EEC1ERKS4_
   fun:_ZN4ROOT6Reflex8FunctionC1ERKNS0_4TypeERKSt6vectorIS2_SaIS2_EERKSt9type_infoNS0_4TYPEE
}
{
   Reflex leak
   Memcheck:Leak
   fun:_Znwj
   fun:_ZN4ROOT6Reflex9Namespace11GlobalScopeEv
   fun:_ZN4ROOT6Reflex6ReflexC1Ev
   fun:_Z41__static_initialization_and_destruction_0ii
   fun:_GLOBAL__I__ZN4ROOT6Reflex6ReflexC2Ev
   obj:/afs/cern.ch/sw/lcg/external/root/5.18.00a/slc4_ia32_gcc34_dbg/root/lib/libReflex.so
}
{
   CINT leak
   Memcheck:Leak
   fun:malloc
   fun:G__getparameterlist
   fun:G__createfuncmacro
   fun:G__define
   fun:G__keyword_anytime_7
   fun:G__exec_statement
}
{
   Memcheck:Leak
   fun:_Znwj
   fun:_ZN5TList10NewOptLinkEP7TObjectPKcP8TObjLink
   fun:_ZN5TList7AddLastEP7TObjectPKc
   fun:_ZN5TList3AddEP7TObjectPKc
   fun:_ZN5TROOTC1EPKcS1_PPFvvE
   fun:_ZN4ROOT7GetROOTEv
}
{
   Memcheck:Leak
   fun:_Znwj
   fun:_ZN4ROOT6Reflex8TypeBaseC2EPKcjNS0_4TYPEERKSt9type_infoRKNS0_4TypeE
   fun:_ZN4ROOT6Reflex7PointerC1ERKNS0_4TypeERKSt9type_info
   fun:_ZN4ROOT6Reflex14PointerBuilderERKNS0_4TypeERKSt9type_info
   fun:_ZN4ROOT6Reflex13TypeDistillerIP10IInterfaceE3GetEv
   fun:_ZN4ROOT6Reflex13TypeDistillerIKP10IInterfaceE3GetEv
}
{
   Memcheck:Leak
   fun:_Znwj
   fun:_ZN4ROOT6Reflex16NamespaceBuilderC1EPKc
   fun:_ZN4ROOT6Reflex13PluginServiceC1Ev
   fun:_ZN4ROOT6Reflex13PluginService8InstanceEv
   fun:_ZN4ROOT6Reflex13PluginService6CreateERKSsRKNS0_4TypeERKSt6vectorINS0_11ValueObjectESaIS8_EE
   fun:_ZN4ROOT6Reflex13PluginService6CreateIP10IInterfaceS4_EET_RKSsRKT0_
}
{
   Memcheck:Leak
   fun:_Znwj
   fun:_ZNK4ROOT6Reflex3Any6HolderIPKcE5CloneEv
   fun:_ZN4ROOT6Reflex3AnyC1ERKS1_
   fun:_ZN4ROOT6Reflex3AnyaSERKS1_
   fun:_ZN4ROOT6Reflex16PropertyListImpl11AddPropertyEjRKNS0_3AnyE
   fun:_ZN4ROOT6Reflex16PropertyListImpl11AddPropertyERKSsRKNS0_3AnyE
}
{
   Memcheck:Leak
   fun:_Znwj
   fun:_ZN4ROOT14DefineBehaviorEP8TQObjectS1_
   fun:_ZN4ROOT25GenerateInitInstanceLocalEPK6TTimer
   fun:_Z41__static_initialization_and_destruction_0ii
   fun:_GLOBAL__I__ZN4ROOT20GenerateInitInstanceEPK16TMemberInspector
   obj:/afs/cern.ch/sw/lcg/external/root/5.18.00a/slc4_ia32_gcc34_dbg/root/lib/libCore.so
}
{
   CINT leak
   Memcheck:Leak
   fun:malloc
   fun:G__add_ipath
   fun:_ZN5TCint14AddIncludePathEPKc
   fun:_ZN5TROOTC1EPKcS1_PPFvvE
   fun:_ZN4ROOT7GetROOTEv
   fun:_ZN6TTimer5ResetEv
}
{
   CINT leak
   Memcheck:Leak
   fun:realloc
   fun:G__add_setup_func
   fun:_ZN26G__cpp_setup_initG__MatrixC1Ev
   fun:_Z41__static_initialization_and_destruction_0ii
   fun:_GLOBAL__I__ZN4ROOT20GenerateInitInstanceEPK12TMatrixTBaseIfE
   obj:/afs/cern.ch/sw/lcg/external/root/5.18.00a/slc4_ia32_gcc34_dbg/root/lib/libMatrix.so
}
{
   CINT leak
   Memcheck:Leak
   fun:realloc
   fun:G__add_ipath
   fun:_ZN5TCint14AddIncludePathEPKc
   fun:_ZN5TROOTC1EPKcS1_PPFvvE
   fun:_ZN4ROOT7GetROOTEv
   fun:_ZN6TTimer5ResetEv
}
{
   CINT leak
   Memcheck:Leak
   fun:malloc
   fun:G__malloc
   fun:G__allocvariable
   fun:G__letvariable
   fun:G__getexpr
   fun:G__set_stdio
}
{
   Reflex leak
   Memcheck:Leak
   fun:_Znwj
   fun:_ZN4ROOT6Reflex8TypeBaseC2EPKcjNS0_4TYPEERKSt9type_infoRKNS0_4TypeE
   fun:_ZN4ROOT6Reflex7PointerC1ERKNS0_4TypeERKSt9type_info
   fun:_ZN4ROOT6Reflex14PointerBuilderERKNS0_4TypeERKSt9type_info
   fun:_ZN4ROOT6Reflex13TypeDistillerIP10IInterfaceE3GetEv
   fun:_ZN4ROOT6Reflex13TypeDistillerIKP10IInterfaceE3GetEv
}
{
   Reflex leak
   Memcheck:Leak
   fun:_Znwj
   fun:_ZN4ROOT6Reflex8TypeBaseC2EPKcjNS0_4TYPEERKSt9type_infoRKNS0_4TypeE
   fun:_ZN4ROOT6Reflex7TypedefC1EPKcRKNS0_4TypeENS0_4TYPEES6_
   fun:_ZN4ROOT6Reflex6ReflexC1Ev
   fun:_Z41__static_initialization_and_destruction_0ii
   fun:_GLOBAL__I__ZN4ROOT6Reflex6ReflexC2Ev
}
{
   Reflex leak
   Memcheck:Leak
   fun:_Znwj
   fun:_ZN4ROOT6Reflex16PropertyListImpl11AddPropertyEjRKNS0_3AnyE
   fun:_ZN4ROOT6Reflex16PropertyListImpl11AddPropertyERKSsRKNS0_3AnyE
   fun:_ZN4ROOT6Reflex16PropertyListImpl11AddPropertyERKSsPKc
   fun:_ZNK4ROOT6Reflex12PropertyList11AddPropertyERKSsPKc
   fun:_ZN4ROOT6Reflex6ReflexC1Ev
}
{
   dlopen leak
   Memcheck:Leak
   fun:malloc
   fun:realloc
   fun:_dl_lookup_symbol_x
   fun:_dl_relocate_object
   fun:dl_open_worker
   fun:_dl_catch_error
}
{
   dlopen leak
   Memcheck:Leak
   fun:malloc
   fun:add_to_global
   fun:dl_open_worker
   fun:_dl_catch_error
   fun:_dl_open
   fun:dlopen_doit
}
{
   dlopen leak
   Memcheck:Leak
   fun:malloc
   fun:_dl_map_object_deps
   fun:dl_open_worker
   fun:_dl_catch_error
   fun:_dl_open
   fun:dlopen_doit
}
{
   dlopen leak
   Memcheck:Leak
   fun:malloc
   fun:_dl_new_object
   fun:_dl_map_object_from_fd
   fun:_dl_map_object
   fun:openaux
   fun:_dl_catch_error
}
{
   dlopen leak
   Memcheck:Leak
   fun:malloc
   fun:open_path
   fun:_dl_map_object
   fun:openaux
   fun:_dl_catch_error
   fun:_dl_map_object_deps
}
{
   dlopen leak
   Memcheck:Leak
   fun:calloc
   fun:_dl_check_map_versions
   fun:dl_open_worker
   fun:_dl_catch_error
   fun:_dl_open
   fun:dlopen_doit
}
{
   dlopen leak
   Memcheck:Leak
   fun:calloc
   fun:_dl_new_object
   fun:_dl_map_object_from_fd
   fun:_dl_map_object
   fun:dl_open_worker
   fun:_dl_catch_error
}
{
   Reflex leak
   Memcheck:Leak
   fun:_Znwj
   fun:_ZNK4ROOT6Reflex3Any6HolderI11InterfaceIDE5CloneEv
   fun:_ZN4ROOT6Reflex3AnyC1ERKS1_
   fun:_ZN4ROOT6Reflex3AnyaSERKS1_
   fun:_ZN4ROOT6Reflex16PropertyListImpl11AddPropertyEjRKNS0_3AnyE
   fun:_ZN4ROOT6Reflex16PropertyListImpl11AddPropertyERKSsRKNS0_3AnyE
}
{
   CINT leak
   Memcheck:Leak
   fun:malloc
   fun:G__createfuncmacro
   fun:G__define
   fun:G__keyword_anytime_7
   fun:G__exec_statement
   fun:G__loadfile_tmpfile
}
{
   Reflex leak
   Memcheck:Leak
   fun:_Znwj
   fun:_ZN4ROOT6Reflex10MemberBaseC2EPKcRKNS0_4TypeENS0_4TYPEEj
   fun:_ZN4ROOT6Reflex14FunctionMemberC1EPKcRKNS0_4TypeEPFPvS7_RKSt6vectorIS7_SaIS7_EES7_ES7_S3_jNS0_4TYPEE
   fun:_ZN4ROOT6Reflex15FunctionBuilderC1ERKNS0_4TypeEPKcPFPvS7_RKSt6vectorIS7_SaIS7_EES7_ES7_S6_h
   fun:_ZN67_GLOBAL__N_.._src_DataSvc_PartitionSwitchTool.cpp_9D2164D3_EEE8248227PartitionSwitchTool_dict128C1Ev
   fun:_Z41__static_initialization_and_destruction_0ii
}
{
   Reflex leak
   Memcheck:Leak
   fun:_Znwj
   fun:_ZN4ROOT6Reflex19FunctionTypeBuilderERKNS0_4TypeERKSt6vectorIS1_SaIS1_EERKSt9type_info
   fun:_ZN4ROOT6Reflex17FunctionDistillerIFP8IAlgToolSsSsPK10IInterfaceEE3GetEv
   fun:_ZN67_GLOBAL__N_.._src_DataSvc_PartitionSwitchTool.cpp_9D2164D3_EEE8248227PartitionSwitchTool_dict128C1Ev
   fun:_Z41__static_initialization_and_destruction_0ii
   fun:_GLOBAL__I__ZN67_GLOBAL__N_.._src_DataSvc_PartitionSwitchTool.cpp_9D2164D3_EEE8248229s_PartitionSwitchTool_dict128E
}
{
   Reflex leak
   Memcheck:Leak
   fun:_Znwj
   fun:_ZN4ROOT6Reflex8TypeNameC1EPKcPNS0_8TypeBaseEPKSt9type_info
   fun:_ZN4ROOT6Reflex8TypeBaseC2EPKcjNS0_4TYPEERKSt9type_infoRKNS0_4TypeE
   fun:_ZN4ROOT6Reflex11FundamentalC1EPKcjRKSt9type_info
   fun:_ZN4ROOT6Reflex6ReflexC1Ev
   fun:_Z41__static_initialization_and_destruction_0ii
}
{
   Reflex leak
   Memcheck:Leak
   fun:_Znwj
   fun:_ZN4ROOT6Reflex8TypeBaseC2EPKcjNS0_4TYPEERKSt9type_infoRKNS0_4TypeE
   fun:_ZN4ROOT6Reflex11FundamentalC1EPKcjRKSt9type_info
   fun:_ZN4ROOT6Reflex6ReflexC1Ev
   fun:_Z41__static_initialization_and_destruction_0ii
   fun:_GLOBAL__I__ZN4ROOT6Reflex6ReflexC2Ev
}
{
   Reflex leak
   Memcheck:Leak
   fun:_Znwj
   fun:_ZN4ROOT6Reflex14PointerBuilderERKNS0_4TypeERKSt9type_info
   fun:_ZN4ROOT6Reflex13TypeDistillerIP10IInterfaceE3GetEv
   fun:_ZN4ROOT6Reflex13TypeDistillerIKP10IInterfaceE3GetEv
   fun:_ZN4ROOT6Reflex7GetTypeIKP10IInterfaceEERKNS0_4TypeEv
   fun:_ZN4ROOT6Reflex11ValueObjectC1IKP10IInterfaceEERT_
}
{
   CINT leak
   Memcheck:Leak
   fun:malloc
   fun:G__createtemplateclass
   fun:G__tagtable_setup
   fun:G__cpp_setup_tagtableG__Base3
   fun:G__cpp_setupG__Base3
   fun:G__call_setup_funcs
}
{
   Graf leak
   Memcheck:Leak
   fun:_Znaj
   fun:_ZN11TWebPaletteC1Ev
   fun:_Z41__static_initialization_and_destruction_0ii
   fun:_GLOBAL__I_gWebImagePalette
   obj:/afs/cern.ch/sw/lcg/external/root/5.18.00a/slc4_ia32_gcc34_dbg/root/lib/libGraf.so
   obj:/afs/cern.ch/sw/lcg/external/root/5.18.00a/slc4_ia32_gcc34_dbg/root/lib/libGraf.so
}
{
   Graf leak
   Memcheck:Leak
   fun:_Znaj
   fun:_ZN11TWebPaletteC1Ev
   fun:_Z41__static_initialization_and_destruction_0ii
   fun:_GLOBAL__I_gWebImagePalette
   obj:/afs/cern.ch/sw/lcg/external/root/5.18.00a/slc4_ia32_gcc34_dbg/root/lib/libGraf.so
   obj:/afs/cern.ch/sw/lcg/external/root/5.18.00a/slc4_ia32_gcc34_dbg/root/lib/libGraf.so
}
{
   Reflex leak
   Memcheck:Leak
   fun:_Znwj
   fun:_ZN4ROOT6Reflex8TypeBaseC2EPKcjNS0_4TYPEERKSt9type_infoRKNS0_4TypeE
   fun:_ZN4ROOT6Reflex11FundamentalC1EPKcjRKSt9type_info
   fun:_ZN4ROOT6Reflex6ReflexC1Ev
   fun:_Z41__static_initialization_and_destruction_0ii
   fun:_GLOBAL__I__ZN4ROOT6Reflex6ReflexC2Ev
}
{
   ROOT leak
   Memcheck:Leak
   fun:_Znwj
   fun:_ZN5TList7NewLinkEP7TObjectP8TObjLink
   fun:_ZN5TList7AddLastEP7TObject
   fun:_ZN5TList3AddEP7TObject
   fun:_ZN10THashTable3AddEP7TObject
   fun:_ZN4TMap3AddEP7TObjectS1_
}
{
   CINT leak
   Memcheck:Leak
   fun:_Znwj
   fun:_ZN5TCint17UpdateListOfTypesEv
   fun:_ZN5TROOT14GetListOfTypesEb
   fun:_ZNK5TROOT7GetTypeEPKcb
   fun:_ZN6TClass8GetClassEPKcb
   fun:_ZNK5TROOT8GetClassEPKcb
}
{
   TClass leak
   Memcheck:Leak
   fun:_Znaj
   fun:_ZN8TStorage5AllocEj
   fun:_ZN9TObjArray4InitEii
   fun:_ZN9TObjArrayC1Eii
   fun:_ZN6TClass4InitEPKcsPKSt9type_infoP16TVirtualIsAProxyPFvPvR16TMemberInspectorPcES1_S1_ii
   fun:_ZN6TClassC1EPKcsRKSt9type_infoP16TVirtualIsAProxyPFvPvR16TMemberInspectorPcES1_S1_ii
}
{
   TClass leak
   Memcheck:Leak
   fun:_Znaj
   fun:_Z6StrDupPKc
   fun:_ZN11TClassTable3AddEPKcsRKSt9type_infoPFvvEi
   fun:_ZN4ROOT8AddClassEPKcsRKSt9type_infoPFvvEi
   fun:_ZNK4ROOT20TDefaultInitBehavior8RegisterEPKcsRKSt9type_infoPFvvEi
   fun:_ZN4ROOT17TGenericClassInfo4InitEi
}
{
   TClass leak
   Memcheck:Leak
   fun:_Znaj
   fun:_ZN11TClassTableC1Ev
   fun:_ZN11TClassTable3AddEPKcsRKSt9type_infoPFvvEi
   fun:_ZN4ROOT8AddClassEPKcsRKSt9type_infoPFvvEi
   fun:_ZNK4ROOT20TDefaultInitBehavior8RegisterEPKcsRKSt9type_infoPFvvEi
   fun:_ZN4ROOT17TGenericClassInfo4InitEi
}
{
   TClass leak
   Memcheck:Leak
   fun:_Znwj
   fun:_ZN11TClassTable11FindElementEPKcb
   fun:_ZN11TClassTable3AddEPKcsRKSt9type_infoPFvvEi
   fun:_ZN4ROOT8AddClassEPKcsRKSt9type_infoPFvvEi
   fun:_ZNK4ROOT20TDefaultInitBehavior8RegisterEPKcsRKSt9type_infoPFvvEi
   fun:_ZN4ROOT17TGenericClassInfo4InitEi
}
{
   TClass leak
   Memcheck:Leak
   fun:_Znaj
   fun:_ZN10THashTableC1Eii
   fun:_ZN4TMapC1Eii
   fun:_ZN4ROOT18TMapTypeToClassRecC1Ev
   fun:_ZN11TClassTableC1Ev
   fun:_ZN11TClassTable3AddEPKcsRKSt9type_infoPFvvEi
}
{
   TClass leak
   Memcheck:Leak
   fun:_Znwj
   fun:_ZN8TStorage11ObjectAllocEj
   fun:_ZN7TObjectnwEj
   fun:_ZN4TMap3AddEP7TObjectS1_
   fun:_ZN4ROOT18TMapTypeToClassRec3AddEPKcRP9TClassRec
   fun:_ZN11TClassTable3AddEPKcsRKSt9type_infoPFvvEi
}
{
   TClass leak
   Memcheck:Leak
   fun:_Znaj
   fun:_ZN12TObjectTableC1Ei
   fun:_ZN12TObjectTable6AddObjEP7TObject
   fun:_ZN7TObjectC2Ev
   fun:_ZN11TClassTableC1Ev
   fun:_ZN11TClassTable3AddEPKcsRKSt9type_infoPFvvEi
}
{
   Reflex leak
   Memcheck:Leak
   fun:_Znwj
   fun:_ZN9__gnu_cxx13new_allocatorIN4ROOT6Reflex11OwnedMemberEE8allocateEjPKv
   fun:_ZNSt12_Vector_baseIN4ROOT6Reflex11OwnedMemberESaIS2_EE11_M_allocateEj
   fun:_ZNSt6vectorIN4ROOT6Reflex11OwnedMemberESaIS2_EE13_M_insert_auxEN9__gnu_cxx17__normal_iteratorIPS2_S4_EERKS2_
   fun:_ZNSt6vectorIN4ROOT6Reflex11OwnedMemberESaIS2_EE9push_backERKS2_
   fun:_ZNK4ROOT6Reflex9ScopeBase17AddFunctionMemberERKNS0_6MemberE
}
{
   Reflex leak
   Memcheck:Leak
   fun:_Znwj
   fun:_ZN9__gnu_cxx13new_allocatorIN4ROOT6Reflex6MemberEE8allocateEjPKv
   fun:_ZNSt12_Vector_baseIN4ROOT6Reflex6MemberESaIS2_EE11_M_allocateEj
   fun:_ZNSt6vectorIN4ROOT6Reflex6MemberESaIS2_EE13_M_insert_auxEN9__gnu_cxx17__normal_iteratorIPS2_S4_EERKS2_
   fun:_ZNSt6vectorIN4ROOT6Reflex6MemberESaIS2_EE9push_backERKS2_
   fun:_ZNK4ROOT6Reflex9ScopeBase17AddFunctionMemberERKNS0_6MemberE
}
{
   Reflex leak
   Memcheck:Leak
   fun:_Znwj
   fun:_ZNK4ROOT6Reflex3Any6HolderISsE5CloneEv
   fun:_ZN4ROOT6Reflex3AnyC1ERKS1_
   fun:_ZN4ROOT6Reflex3AnyaSERKS1_
   fun:_ZN4ROOT6Reflex16PropertyListImpl11AddPropertyEjRKNS0_3AnyE
   fun:_ZN4ROOT6Reflex16PropertyListImpl11AddPropertyERKSsRKNS0_3AnyE
}
{
   Reflex leak
   Memcheck:Leak
   fun:_Znwj
   fun:_ZN4ROOT6Reflex10MemberBaseC2EPKcRKNS0_4TypeENS0_4TYPEEj
   fun:_ZN4ROOT6Reflex14FunctionMemberC1EPKcRKNS0_4TypeEPFPvS7_RKSt6vectorIS7_SaIS7_EES7_ES7_S3_jNS0_4TYPEE
   fun:_ZN4ROOT6Reflex15FunctionBuilderC1ERKNS0_4TypeEPKcPFPvS7_RKSt6vectorIS7_SaIS7_EES7_ES7_S6_h
   fun:_ZN59_GLOBAL__N_.._src_NTupleSvc_NTupleSvc.cpp_17E02520_8B10567116NTupleSvc_dict48C1Ev
   fun:_Z41__static_initialization_and_destruction_0ii
}
{
   Reflex leak
   Memcheck:Leak
   fun:_Znwj
   fun:_ZN4ROOT6Reflex8TypeNameC1EPKcPNS0_8TypeBaseEPKSt9type_info
   fun:_ZN4ROOT6Reflex11TypeBuilderEPKcj
   fun:_ZN4ROOT6Reflex13TypeDistillerI10IInterfaceE3GetEv
   fun:_ZN4ROOT6Reflex13TypeDistillerIP10IInterfaceE3GetEv
   fun:_ZN4ROOT6Reflex13TypeDistillerIKP10IInterfaceE3GetEv
}
{
   Reflex leak
   Memcheck:Leak
   fun:_Znwj
   fun:_ZN9__gnu_cxx13new_allocatorIN4ROOT6Reflex3AnyEE8allocateEjPKv
   fun:_ZNSt12_Vector_baseIN4ROOT6Reflex3AnyESaIS2_EE11_M_allocateEj
   fun:_ZNSt6vectorIN4ROOT6Reflex3AnyESaIS2_EE14_M_fill_insertEN9__gnu_cxx17__normal_iteratorIPS2_S4_EEjRKS2_
   fun:_ZNSt6vectorIN4ROOT6Reflex3AnyESaIS2_EE6insertEN9__gnu_cxx17__normal_iteratorIPS2_S4_EEjRKS2_
   fun:_ZNSt6vectorIN4ROOT6Reflex3AnyESaIS2_EE6resizeEjRKS2_
}
{
   Reflex leak
   Memcheck:Leak
   fun:_Znwj
   fun:_ZN4ROOT6Reflex16PropertyListImpl11AddPropertyEjRKNS0_3AnyE
   fun:_ZN4ROOT6Reflex16PropertyListImpl11AddPropertyERKSsRKNS0_3AnyE
   fun:_ZN4ROOT6Reflex16PropertyListImpl11AddPropertyERKSsPKc
   fun:_ZNK4ROOT6Reflex12PropertyList11AddPropertyERKSsPKc
   fun:_ZN4ROOT6Reflex9ScopeBaseC2Ev
}
{
   TUnix leak
   Memcheck:Leak
   fun:_Znaj
   fun:_ZN7TSystemC2EPKcS1_
   fun:_ZN11TUnixSystemC1Ev
   fun:_ZN5TROOT10InitSystemEv
   fun:_ZN5TROOTC1EPKcS1_PPFvvE
   fun:_ZN4ROOT7GetROOTEv
}
{
   Reflex leak
   Memcheck:Leak
   fun:_Znwj
   fun:_ZN4ROOT6Reflex11TypeBuilderEPKcj
   fun:_ZN4ROOT6Reflex13TypeDistillerI10IInterfaceE3GetEv
   fun:_ZN4ROOT6Reflex13TypeDistillerIP10IInterfaceE3GetEv
   fun:_ZN4ROOT6Reflex13TypeDistillerIKP10IInterfaceE3GetEv
   fun:_ZN4ROOT6Reflex7GetTypeIKP10IInterfaceEERKNS0_4TypeEv
}
{
   Reflex leak
   Memcheck:Leak
   fun:_Znwj
   fun:_ZN69_GLOBAL__N_.._src_ApplicationMgr_ApplicationMgr.cpp_9D2164D3_A4BA85537FactoryI14ApplicationMgrFP10IInterfaceS3_EE4FuncEPvRKSt6vectorIS6_SaIS6_EES6_
   fun:_ZNK4ROOT6Reflex14FunctionMember6InvokeERKNS0_6ObjectERKSt6vectorIPvSaIS6_EE
   fun:_ZNK4ROOT6Reflex6Member6InvokeERKNS0_6ObjectERKSt6vectorIPvSaIS6_EE
   fun:_ZN4ROOT6Reflex13PluginService6CreateERKSsRKNS0_4TypeERKSt6vectorINS0_11ValueObjectESaIS8_EE
   fun:_ZN4ROOT6Reflex13PluginService6CreateIP10IInterfaceS4_EET_RKSsRKT0_
}
{
   Reflex leak
   Memcheck:Leak
   fun:_Znwj
   fun:_ZNSs4_Rep9_S_createEjjRKSaIcE
   obj:/usr/lib/libstdc++.so.6.0.3
   fun:_ZNSsC1EPKcRKSaIcE
   fun:_ZN4ROOT6Reflex8TypeNameC1EPKcPNS0_8TypeBaseEPKSt9type_info
   fun:_ZN4ROOT6Reflex8TypeBaseC2EPKcjNS0_4TYPEERKSt9type_infoRKNS0_4TypeE
}
{
   CINT leak
   Memcheck:Leak
   fun:malloc
   fun:G__search_tagname
   fun:G__get_linked_tagnum
   fun:G__get_linked_tagnum_fwd
   fun:G__cpp_setup_tagtableG__Unix
   fun:G__cpp_setupG__Unix
}
{
   CINT leak
   Memcheck:Leak
   fun:calloc
   fun:G__malloc
   fun:_Z16G__alloc_var_refIiPFl8G__valueEEviT0_PcP12G__var_arrayiRS0_
   fun:G__allocvariable
   fun:G__letvariable
   fun:G__getexpr
}
{
   CINT leak
   Memcheck:Leak
   fun:malloc
   fun:G__createtemplateclass
   fun:G__tagtable_setup
   fun:G__cpp_setup_tagtableG__Base3
   fun:G__cpp_setupG__Base3
   fun:G__call_setup_funcs
}
{
   CINT leak
   Memcheck:Leak
   fun:malloc
   fun:G__search_typename
   fun:G__search_typename2
   fun:G__cpp_setup_typetableG__Unix
   fun:G__cpp_setupG__Unix
   fun:G__call_setup_funcs
}
{
   CINT leak
   Memcheck:Leak
   fun:malloc
   fun:G__memfunc_para_setup
   fun:G__parse_parameter_link
   fun:G__memfunc_setup
   fun:_Z18G__cpp_setup_func1v
   fun:G__cpp_setup_funcG__Cont
}
{
   CINT leak
   Memcheck:Leak
   fun:malloc
   fun:_ZN9G__heritsixEi
   fun:G__inheritance_setup
   fun:G__cpp_setup_inheritanceG__Unix
   fun:G__cpp_setupG__Unix
   fun:G__call_setup_funcs
}
{
   CINT leak
   Memcheck:Leak
   fun:_Znwj
   fun:G__search_tagname
   fun:G__get_linked_tagnum
   fun:G__get_linked_tagnum_fwd
   fun:G__cpp_setup_tagtableG__Unix
   fun:G__cpp_setupG__Unix
}
{
   CINT leak
   Memcheck:Leak
   fun:_Znwj
   fun:G__search_tagname
   fun:G__get_linked_tagnum
   fun:G__get_linked_tagnum_fwd
   fun:G__cpp_setup_tagtableG__Unix
   fun:G__cpp_setupG__Unix
}
{
   CINT leak
   Memcheck:Leak
   fun:malloc
   fun:G__search_tagname
   fun:G__get_linked_tagnum
   fun:G__get_linked_tagnum_fwd
   fun:G__cpp_setup_tagtableG__Unix
   fun:G__cpp_setupG__Unix
}
{
   Reflex leak
   Memcheck:Leak
   fun:_Znwj
   fun:_ZN4ROOT6Reflex15FunctionBuilderC1ERKNS0_4TypeEPKcPFPvS7_RKSt6vectorIS7_SaIS7_EES7_ES7_S6_h
   fun:_ZN59_GLOBAL__N_.._src_NTupleSvc_NTupleSvc.cpp_17E02520_8B10567116NTupleSvc_dict48C1Ev
   fun:_Z41__static_initialization_and_destruction_0ii
   fun:_GLOBAL__I__ZN59_GLOBAL__N_.._src_NTupleSvc_NTupleSvc.cpp_17E02520_8B10567118s_NTupleSvc_dict48E
   obj:/afs/cern.ch/atlas/offline/external/GAUDI/v19r6p4-LCG54f/GaudiSvc/i686-slc4-gcc34-dbg/libGaudiSvc.so
}
{
   CINT leak
   Memcheck:Leak
   fun:malloc
   fun:G__search_tagname
   fun:G__get_linked_tagnum
   fun:G__get_linked_tagnum_fwd
   fun:G__cpp_setup_tagtableG__Unix
   fun:G__cpp_setupG__Unix
}
{
   CINT leak
   Memcheck:Leak
   fun:malloc
   fun:_ZN9G__heritsixEi
   fun:G__inheritance_setup
   fun:G__cpp_setup_inheritanceG__Unix
   fun:G__cpp_setupG__Unix
   fun:G__call_setup_funcs
}
{
   CINT leak
   Memcheck:Leak
   fun:malloc
   fun:G__savestring
   fun:G__allocvariable
   fun:G__letvariable
   fun:G__getexpr
   fun:G__set_stdio
}
{
   CINT leak
   Memcheck:Leak
   fun:malloc
   fun:_ZN9G__paramsixEi
   fun:G__memfunc_setup
   fun:_Z18G__cpp_setup_func1v
   fun:G__cpp_setup_funcG__Cont
   fun:G__cpp_setupG__Cont
}
{
   CINT leak
   Memcheck:Leak
   fun:malloc
   fun:G__search_tagname
   fun:G__get_linked_tagnum
   fun:G__get_linked_tagnum_fwd
   fun:G__cpp_setup_tagtableG__Unix
   fun:G__cpp_setupG__Unix
}
{
   CINT leak
   Memcheck:Leak
   fun:malloc
   fun:G__allocvariable
   fun:G__letvariable
   fun:G__getexpr
   fun:G__set_stdio
   fun:G__main
}
{
   CINT leak
   Memcheck:Leak
   fun:malloc
   fun:G__search_tagname
   fun:G__get_linked_tagnum
   fun:G__get_linked_tagnum_fwd
   fun:G__cpp_setup_tagtableG__Unix
   fun:G__cpp_setupG__Unix
}
{

   CINT leak
   Memcheck:Leak
   fun:malloc
   fun:G__memfunc_next
   fun:G__search_tagname
   fun:G__get_linked_tagnum
   fun:G__get_linked_tagnum_fwd
   fun:G__cpp_setup_tagtableG__Unix
}

