(i__main__
LogFile
p0
(dp1
S'_installed_files'
p2
(dp3
S'../../../InnerDetector/InDetTrigRecAlgs/InDetTrigTrackResidualMonitor/i686-slc5-gcc43-opt/libInDetTrigTrackResidualMonitor.so'
p4
S'../../../../InstallArea/i686-slc5-gcc43-opt/lib/libInDetTrigTrackResidualMonitor.so'
p5
sS'../../../../../../../../atlas/offline/external/GAUDI/v20r4p7a/GaudiPolicy/cmt/fragments/__init__.py'
p6
S'../../../../InstallArea/python/InDetTrigTrackResidualMonitor/__init__.py'
p7
sS'../../InnerDetector/InDetTrigRecAlgs/InDetTrigTrackResidualMonitor/genConf/InDetTrigTrackResidualMonitor'
p8
(dp9
S'../../../InnerDetector/InDetTrigRecAlgs/InDetTrigTrackResidualMonitor/genConf/InDetTrigTrackResidualMonitor/InDetTrigTrackResidualMonitor_confDb.py'
p10
S'../../../../InstallArea/python/InDetTrigTrackResidualMonitor/InDetTrigTrackResidualMonitor_confDb.py'
p11
sS'../../../InnerDetector/InDetTrigRecAlgs/InDetTrigTrackResidualMonitor/genConf/InDetTrigTrackResidualMonitor/InDetTrigTrackResidualMonitorConf.py'
p12
S'../../../../InstallArea/python/InDetTrigTrackResidualMonitor/InDetTrigTrackResidualMonitorConf.py'
p13
sssb.