(i__main__
LogFile
p0
(dp1
S'_installed_files'
p2
(dp3
S'../../Trigger/TrigAlgorithms/TrigEFLongLivedParticles/genConf/TrigEFLongLivedParticles'
p4
(dp5
S'../../../Trigger/TrigAlgorithms/TrigEFLongLivedParticles/genConf/TrigEFLongLivedParticles/TrigEFLongLivedParticlesConf.py'
p6
S'../../../../InstallArea/python/TrigEFLongLivedParticles/TrigEFLongLivedParticlesConf.py'
p7
sS'../../../Trigger/TrigAlgorithms/TrigEFLongLivedParticles/genConf/TrigEFLongLivedParticles/TrigEFLongLivedParticles_confDb.py'
p8
S'../../../../InstallArea/python/TrigEFLongLivedParticles/TrigEFLongLivedParticles_confDb.py'
p9
ssS'../../../../../../../atlas/software/releases/16.6.2/GAUDI/v21r9p3a/GaudiPolicy/cmt/fragments/__init__.py'
p10
S'../../../../InstallArea/python/TrigEFLongLivedParticles/__init__.py'
p11
sS'../../../../../../afs/cern.ch/atlas/software/releases/16.1.2/GAUDI/v21r9p3a/GaudiPolicy/cmt/fragments/__init__.py'
p12
S'../../../../InstallArea/python/TrigEFLongLivedParticles/__init__.py'
p13
ssb.