(i__main__
LogFile
p0
(dp1
S'_installed_files'
p2
(dp3
S'../../../../../../../afs/cern.ch/atlas/software/releases/15.6.9/GAUDI/v20r4p7a/GaudiPolicy/cmt/fragments/__init__.py'
p4
S'../../../../InstallArea/python/TrigJPsiTools/__init__.py'
p5
sS'../../../testarea/Trigger/TrigTools/TrigJPsiTools/i686-slc5-gcc43-opt/libTrigJPsiTools.so'
p6
S'../../../../../InstallArea/i686-slc5-gcc43-opt/lib/libTrigJPsiTools.so'
p7
sS'../../../Trigger/TrigTools/TrigJPsiTools/i686-slc4-gcc34-opt/libTrigJPsiTools.so'
p8
S'../../../../InstallArea/i686-slc4-gcc34-opt/lib/libTrigJPsiTools.so'
p9
sS'../../../Trigger/TrigTools/TrigJPsiTools/i686-slc5-gcc43-opt/libTrigJPsiTools.so'
p10
S'../../../../InstallArea/i686-slc5-gcc43-opt/lib/libTrigJPsiTools.so'
p11
sS'../../Trigger/TrigTools/TrigJPsiTools/genConf/TrigJPsiTools'
p12
(dp13
S'../../../Trigger/TrigTools/TrigJPsiTools/genConf/TrigJPsiTools/TrigJPsiTools_confDb.py'
p14
S'../../../../InstallArea/python/TrigJPsiTools/TrigJPsiTools_confDb.py'
p15
sS'../../../Trigger/TrigTools/TrigJPsiTools/genConf/TrigJPsiTools/TrigJPsiToolsConf.py'
p16
S'../../../../InstallArea/python/TrigJPsiTools/TrigJPsiToolsConf.py'
p17
ssS'../../../16.6.X.Y-VAL/Trigger/TrigTools/TrigJPsiTools/i686-slc5-gcc43-opt/libTrigJPsiTools.so'
p18
S'../../../../../InstallArea/i686-slc5-gcc43-opt/lib/libTrigJPsiTools.so'
p19
ssb.