(i__main__
LogFile
p0
(dp1
S'_installed_files'
p2
(dp3
S'../../../MyTestDir/ForwardDetectors/ALFA/ALFA_RawEv/i686-slc5-gcc43-opt/libALFA_RawEvDict.so'
p4
S'../../../../../InstallArea/i686-slc5-gcc43-opt/lib/libALFA_RawEvDict.so'
p5
sS'../../../ForwardDetectors/ALFA/ALFA_RawEv/i686-slc5-gcc43-dbg/libALFA_RawEv.so'
p6
S'../../../../InstallArea/i686-slc5-gcc43-dbg/lib/libALFA_RawEv.so'
p7
sS'../../../16.0.3/MyTestDir/ForwardDetectors/ALFA/ALFA_RawEv/i686-slc5-gcc43-dbg/libALFA_RawEvDict.so'
p8
S'../../../../../../InstallArea/i686-slc5-gcc43-dbg/lib/libALFA_RawEvDict.so'
p9
sS'../../../MyTestDir/ForwardDetectors/ALFA/ALFA_RawEv/i686-slc5-gcc43-dbg/libALFA_RawEvDict.so'
p10
S'../../../../../InstallArea/i686-slc5-gcc43-dbg/lib/libALFA_RawEvDict.so'
p11
sS'../../../MyTestDir/ForwardDetectors/ALFA/ALFA_RawEv/i686-slc5-gcc43-opt/libALFA_RawEv.so'
p12
S'../../../../../InstallArea/i686-slc5-gcc43-opt/lib/libALFA_RawEv.so'
p13
sS'../../../../MyTestDir3/ForwardDetectors/ALFA/ALFA_RawEv/i686-slc5-gcc43-dbg/libALFA_RawEv.so'
p14
S'../../../../../MyTestDir/InstallArea/i686-slc5-gcc43-dbg/lib/libALFA_RawEv.so'
p15
sS'../../../testarea/16.0.3/MyTestDir/ForwardDetectors/ALFA/ALFA_RawEv/i686-slc5-gcc43-dbg/libALFA_RawEvDict.so'
p16
S'../../../../../../../InstallArea/i686-slc5-gcc43-dbg/lib/libALFA_RawEvDict.so'
p17
sS'../../../16.0.3/MyTestDir/ForwardDetectors/ALFA/ALFA_RawEv/i686-slc5-gcc43-dbg/libALFA_RawEv.so'
p18
S'../../../../../../InstallArea/i686-slc5-gcc43-dbg/lib/libALFA_RawEv.so'
p19
sS'../../../testarea/16.0.3/MyTestDir/ForwardDetectors/ALFA/ALFA_RawEv/i686-slc5-gcc43-dbg/libALFA_RawEv.so'
p20
S'../../../../../../../InstallArea/i686-slc5-gcc43-dbg/lib/libALFA_RawEv.so'
p21
sS'../../../../MyTestDir3/ForwardDetectors/ALFA/ALFA_RawEv/i686-slc5-gcc43-dbg/libALFA_RawEvDict.so'
p22
S'../../../../../MyTestDir/InstallArea/i686-slc5-gcc43-dbg/lib/libALFA_RawEvDict.so'
p23
sS'../../../MyTestDir/ForwardDetectors/ALFA/ALFA_RawEv/i686-slc5-gcc43-dbg/libALFA_RawEv.so'
p24
S'../../../../../InstallArea/i686-slc5-gcc43-dbg/lib/libALFA_RawEv.so'
p25
sS'../../../ForwardDetectors/ALFA/ALFA_RawEv/i686-slc5-gcc43-dbg/libALFA_RawEvDict.so'
p26
S'../../../../InstallArea/i686-slc5-gcc43-dbg/lib/libALFA_RawEvDict.so'
p27
ssb.