(i__main__
LogFile
p0
(dp1
S'_installed_files'
p2
(dp3
S'../../../TileCalorimeter/TileG4/TileAncillary/TileG4DetDescr/TileG4DetDescription-00-00-00/i686-slc5-gcc43-opt/libTileG4DetDescr.so'
p4
S'../../../../../../InstallArea/i686-slc5-gcc43-opt/lib/libTileG4DetDescr.so'
p5
ssb.