(i__main__
LogFile
p0
(dp1
S'_installed_files'
p2
(dp3
S'../../../Reconstruction/EventShapes/EventShapeTPCnv/i686-slc4-gcc34-opt/libEventShapeTPCnv.so'
p4
S'../../../../InstallArea/i686-slc4-gcc34-opt/lib/libEventShapeTPCnv.so'
p5
sS'../../../Reconstruction/EventShapes/EventShapeTPCnv/i686-slc4-gcc34-opt/libEventShapeTPCnvDict.so'
p6
S'../../../../InstallArea/i686-slc4-gcc34-opt/lib/libEventShapeTPCnvDict.so'
p7
sS'../../../Reconstruction/EventShapes/EventShapeTPCnv/i686-slc4-gcc34-opt/libJetEventTPCnv.so'
p8
S'../../../../InstallArea/i686-slc4-gcc34-opt/lib/libJetEventTPCnv.so'
p9
ssb.