(i__main__
LogFile
p0
(dp1
S'_installed_files'
p2
(dp3
S'../../../InnerDetector/InDetRecEvent/BCM_CollisionTime/i686-slc5-gcc43-opt/libBCM_CollisionTime.so'
p4
S'../../../../InstallArea/i686-slc5-gcc43-opt/lib/libBCM_CollisionTime.so'
p5
sS'../../../../../../../../../atlas/software/releases/16.6.3/GAUDI/v21r9p3a/GaudiPolicy/cmt/fragments/__init__.py'
p6
S'../../../../InstallArea/python/BCM_CollisionTime/__init__.py'
p7
sS'../../../../../../../../../atlas/offline/external/GAUDI/v21r9p3a/GaudiPolicy/cmt/fragments/__init__.py'
p8
S'../../../../InstallArea/python/BCM_CollisionTime/__init__.py'
p9
sS'../../InnerDetector/InDetRecEvent/BCM_CollisionTime/genConf/BCM_CollisionTime'
p10
(dp11
S'../../../InnerDetector/InDetRecEvent/BCM_CollisionTime/genConf/BCM_CollisionTime/BCM_CollisionTime_confDb.py'
p12
S'../../../../InstallArea/python/BCM_CollisionTime/BCM_CollisionTime_confDb.py'
p13
sS'../../../InnerDetector/InDetRecEvent/BCM_CollisionTime/genConf/BCM_CollisionTime/BCM_CollisionTimeConf.py'
p14
S'../../../../InstallArea/python/BCM_CollisionTime/BCM_CollisionTimeConf.py'
p15
sssb.