(i__main__
LogFile
p0
(dp1
S'_installed_files'
p2
(dp3
S'../../../InnerDetector/InDetValidation/InDetVertexValidation/x86_64-slc6-gcc49-opt/libInDetVertexValidationLib.so'
p4
S'../../../../InstallArea/x86_64-slc6-gcc49-opt/lib/libInDetVertexValidationLib.so'
p5
sS'../../../InnerDetector/InDetValidation/InDetVertexValidation/x86_64-slc6-gcc49-opt/libInDetVertexValidation.so'
p6
S'../../../../InstallArea/x86_64-slc6-gcc49-opt/lib/libInDetVertexValidation.so'
p7
sS'../../../InnerDetector/InDetValidation/InDetVertexValidation/x86_64-slc6-gcc49-opt/libInDetVertexValidation.so.debug'
p8
S'../../../../InstallArea/x86_64-slc6-gcc49-opt/lib/libInDetVertexValidation.so.debug'
p9
sS'../../../InnerDetector/InDetValidation/InDetVertexValidation/x86_64-slc6-gcc49-opt/libInDetVertexValidationLib.so.debug'
p10
S'../../../../InstallArea/x86_64-slc6-gcc49-opt/lib/libInDetVertexValidationLib.so.debug'
p11
sS'../../InnerDetector/InDetValidation/InDetVertexValidation/genConf/InDetVertexValidation'
p12
(dp13
S'../../../InnerDetector/InDetValidation/InDetVertexValidation/genConf/InDetVertexValidation/InDetVertexValidationConf.py'
p14
S'../../../../InstallArea/python/InDetVertexValidation/InDetVertexValidationConf.py'
p15
ssS'../../../../../../../../../cvmfs/atlas.cern.ch/repo/sw/software/x86_64-slc6-gcc49-opt/20.20.10/GAUDI/v26r2p3-lcg81f/GaudiPolicy/cmt/fragments/__init__.py'
p16
S'../../../../InstallArea/python/InDetVertexValidation/__init__.py'
p17
ssb.