(i__main__
LogFile
p0
(dp1
S'_installed_files'
p2
(dp3
S'../../../../../../../../../cvmfs/atlas.cern.ch/repo/sw/software/x86_64-slc6-gcc47-opt/19.3.0/GAUDI/v25r3p1/GaudiPolicy/cmt/fragments/__init__.py'
p4
S'../../InstallArea/python/SCTExtension/__init__.py'
p5
sS'../../../SCTExtension/x86_64-slc6-gcc47-opt/libSCTExtension.so.debug'
p6
S'../../InstallArea/x86_64-slc6-gcc47-opt/lib/libSCTExtension.so.debug'
p7
sS'../../../SCTExtension/x86_64-slc6-gcc47-opt/libSCTExtension.so'
p8
S'../../InstallArea/x86_64-slc6-gcc47-opt/lib/libSCTExtension.so'
p9
sS'../../SCTExtension/genConf/SCTExtension'
p10
(dp11
S'../../../SCTExtension/genConf/SCTExtension/SCTExtensionConf.py'
p12
S'../../InstallArea/python/SCTExtension/SCTExtensionConf.py'
p13
sssb.