(i__main__
LogFile
p0
(dp1
S'_installed_files'
p2
(dp3
S'../../../../../../../../../atlas/software/releases/16.6.3/GAUDI/v21r9p3a/GaudiPolicy/cmt/fragments/__init__.py'
p4
S'../../../../InstallArea/python/BCM_BackgroundAlgs/__init__.py'
p5
sS'../../InnerDetector/InDetRecAlgs/BCM_BackgroundAlgs/genConf/BCM_BackgroundAlgs'
p6
(dp7
S'../../../InnerDetector/InDetRecAlgs/BCM_BackgroundAlgs/genConf/BCM_BackgroundAlgs/BCM_BackgroundAlgsConf.py'
p8
S'../../../../InstallArea/python/BCM_BackgroundAlgs/BCM_BackgroundAlgsConf.py'
p9
sS'../../../InnerDetector/InDetRecAlgs/BCM_BackgroundAlgs/genConf/BCM_BackgroundAlgs/BCM_BackgroundAlgs_confDb.py'
p10
S'../../../../InstallArea/python/BCM_BackgroundAlgs/BCM_BackgroundAlgs_confDb.py'
p11
ssS'../../../InnerDetector/InDetRecAlgs/BCM_BackgroundAlgs/i686-slc5-gcc43-opt/libBCM_BackgroundAlgs.so'
p12
S'../../../../InstallArea/i686-slc5-gcc43-opt/lib/libBCM_BackgroundAlgs.so'
p13
sS'../../../../../../../../../atlas/offline/external/GAUDI/v21r9p3a/GaudiPolicy/cmt/fragments/__init__.py'
p14
S'../../../../InstallArea/python/BCM_BackgroundAlgs/__init__.py'
p15
ssb.