(i__main__
LogFile
p0
(dp1
S'_installed_files'
p2
(dp3
S'../../InnerDetector/InDetValidation/InDetVertexSplitter/genConf/InDetVertexSplitter'
p4
(dp5
S'../../../InnerDetector/InDetValidation/InDetVertexSplitter/genConf/InDetVertexSplitter/InDetVertexSplitter_confDb.py'
p6
S'../../../../InstallArea/python/InDetVertexSplitter/InDetVertexSplitter_confDb.py'
p7
sS'../../../InnerDetector/InDetValidation/InDetVertexSplitter/genConf/InDetVertexSplitter/InDetVertexSplitterConf.py'
p8
S'../../../../InstallArea/python/InDetVertexSplitter/InDetVertexSplitterConf.py'
p9
ssS'../../../InnerDetector/InDetValidation/InDetVertexSplitter/i686-slc4-gcc34-opt/libInDetVertexSplitter.so'
p10
S'../../../../InstallArea/i686-slc4-gcc34-opt/lib/libInDetVertexSplitter.so'
p11
sS'../../../InnerDetector/InDetValidation/InDetVertexSplitter/i686-slc5-gcc43-opt/libInDetVertexSplitter.so'
p12
S'../../../../InstallArea/i686-slc5-gcc43-opt/lib/libInDetVertexSplitter.so'
p13
sS'../../../../../../../atlas/offline/external/GAUDI/v20r4p5/GaudiPolicy/cmt/fragments/__init__.py'
p14
S'../../../../InstallArea/python/InDetVertexSplitter/__init__.py'
p15
sS'../../../../../../../atlas/offline/external/GAUDI/v21r9p3a/GaudiPolicy/cmt/fragments/__init__.py'
p16
S'../../../../InstallArea/python/InDetVertexSplitter/__init__.py'
p17
sS'../../../../../../../atlas/offline/external/GAUDI/v20r4p6a/GaudiPolicy/cmt/fragments/__init__.py'
p18
S'../../../../InstallArea/python/InDetVertexSplitter/__init__.py'
p19
sS'../../../../../../../atlas/offline/external/GAUDI/v20r4p6b/GaudiPolicy/cmt/fragments/__init__.py'
p20
S'../../../../InstallArea/python/InDetVertexSplitter/__init__.py'
p21
ssb.