(i__main__
LogFile
p0
(dp1
S'_installed_files'
p2
(dp3
S'../../../ForwardDetectors/ALFA/ALFA_RecEv/ALFA_LocRecEv/i686-slc4-gcc34-opt/libALFA_LocRecEv.so'
p4
S'../../../../../InstallArea/i686-slc4-gcc34-opt/lib/libALFA_LocRecEv.so'
p5
sS'../../../ForwardDetectors/ALFA/ALFA_RecEv/ALFA_LocRecEv/i686-slc4-gcc34-opt/libALFA_LocRecEvDict.so'
p6
S'../../../../../InstallArea/i686-slc4-gcc34-opt/lib/libALFA_LocRecEvDict.so'
p7
ssb.