ccollections
defaultdict
p1
(c__builtin__
dict
p2
tRp3
S'StoreGateSvc'
p4
(dp5
S'IncidentSvc'
p6
S'IncidentSvc'
p7
sS'ProxyProviderSvc'
p8
S'ProxyProviderSvc'
p9
ssS'ChronoStatSvc'
p10
(dp11
S'HiveWhiteBoardSvc'
p12
S'EventDataSvc'
p13
ssS'EventDataSvc'
p14
(dp15
S'HiveStoreSvc'
p16
S'StoreGateSvc'
p17
sS'NSlots'
p18
S'1'
ssS'AthBeginSeq'
p19
(dp20
S'ExtraOutputs'
p21
S'[]'
p22
sS'EvtStore'
p23
S'StoreGateSvc'
p24
sS'ExtraInputs'
p25
S'[]'
p26
sS'Sequential'
p27
S'True'
p28
sS'Members'
p29
S"['AthIncFirerAlg/BeginIncFiringAlg', 'IncidentProcAlg/IncidentProcAlg1']"
p30
sS'NeededResources'
p31
S'[]'
p32
sS'DetStore'
p33
S'StoreGateSvc/DetectorStore'
p34
ssS'TimelineSvc'
p35
(dp36
S'Partial'
p37
S'False'
p38
sS'RecordTimeline'
p39
S'True'
p40
ssS'AvalancheSchedulerSvc'
p41
(dp42
S'ThreadPoolSize'
p43
S'1'
sS'OutputLevel'
p44
S'3'
sS'DataLoaderAlg'
p45
S'SGInputLoader'
p46
sS'ShowControlFlow'
p47
S'False'
p48
sS'CheckDependencies'
p49
S'True'
p50
sS'ShowDataDependencies'
p51
S'False'
p52
ssS'SGInputLoader'
p53
(dp54
S'ExtraOutputs'
p55
S'[]'
p56
sS'Load'
p57
S'[]'
p58
sS'FailIfNoProxy'
p59
S'False'
p60
sS'EvtStore'
p61
S'StoreGateSvc'
p62
sS'ExtraInputs'
p63
S'[]'
p64
sS'NeededResources'
p65
S'[]'
p66
sS'DetStore'
p67
S'StoreGateSvc/DetectorStore'
p68
ssS'CoreDumpSvc'
p69
(dp70
S'Signals'
p71
S'[11, 7, 4, 8]'
p72
sS'FatalHandler'
p73
S'-1'
p74
ssS'AuditorSvc'
p75
(dp76
S'Auditors'
p77
S"['AlgContextAuditor/AlgContextAuditor', 'SGCommitAuditor/SGCommitAuditor']"
p78
ssS'ClassIDSvc'
p79
(dp80
S'CLIDDBFiles'
p81
S"['clid.db', 'Gaudi_clid.db']"
p82
ssS'AthOutSeq'
p83
(dp84
S'ExtraOutputs'
p85
S'[]'
p86
sS'EvtStore'
p87
S'StoreGateSvc'
p88
sS'ExtraInputs'
p89
S'[]'
p90
sS'StopOverride'
p91
S'True'
p92
sS'Members'
p93
S'[]'
p94
sS'NeededResources'
p95
S'[]'
p96
sS'DetStore'
p97
S'StoreGateSvc/DetectorStore'
p98
ssS'BeginIncFiringAlg'
p99
(dp100
S'ExtraOutputs'
p101
S'[]'
p102
sS'EvtStore'
p103
S'StoreGateSvc'
p104
sS'ExtraInputs'
p105
S'[]'
p106
sS'FireSerial'
p107
S'False'
p108
sS'Incidents'
p109
S"['BeginEvent']"
p110
sS'NeededResources'
p111
S'[]'
p112
sS'DetStore'
p113
S'StoreGateSvc/DetectorStore'
p114
ssS'AthCondSeq'
p115
(dp116
S'ExtraOutputs'
p117
S'[]'
p118
sS'EvtStore'
p119
S'StoreGateSvc'
p120
sS'ExtraInputs'
p121
S'[]'
p122
sS'Members'
p123
S'[]'
p124
sS'NeededResources'
p125
S'[]'
p126
sS'DetStore'
p127
S'StoreGateSvc/DetectorStore'
p128
ssS'StatusCodeSvc'
p129
(dp130
S'Filter'
p131
S"['Reflex::NewDelFunctionsT<StatusCode>::delete_T(void*)', 'ROOT::Reflex::NewDelFunctionsT<StatusCode>::delete_T(void*)']"
p132
sS'OutputLevel'
p133
S'3'
sS'AbortOnError'
p134
S'False'
p135
ssS'AthFilterSeq'
p136
(dp137
S'ExtraOutputs'
p138
S'[]'
p139
sS'EvtStore'
p140
S'StoreGateSvc'
p141
sS'ExtraInputs'
p142
S'[]'
p143
sS'Members'
p144
S"['AthSequencer/AthAlgEvtSeq', 'AthSequencer/AthOutSeq']"
p145
sS'NeededResources'
p146
S'[]'
p147
sS'DetStore'
p148
S'StoreGateSvc/DetectorStore'
p149
ssS'AthMasterSeq'
p150
(dp151
S'ExtraOutputs'
p152
S'[]'
p153
sS'EvtStore'
p154
S'StoreGateSvc'
p155
sS'ExtraInputs'
p156
S'[]'
p157
sS'Sequential'
p158
S'True'
p159
sS'StopOverride'
p160
S'True'
p161
sS'Members'
p162
S"['AthSequencer/AthFilterSeq', 'AthSequencer/AthRegSeq']"
p163
sS'NeededResources'
p164
S'[]'
p165
sS'DetStore'
p166
S'StoreGateSvc/DetectorStore'
p167
ssS'AthAlgEvtSeq'
p168
(dp169
S'ExtraOutputs'
p170
S'[]'
p171
sS'EvtStore'
p172
S'StoreGateSvc'
p173
sS'ExtraInputs'
p174
S'[]'
p175
sS'Sequential'
p176
S'True'
p177
sS'StopOverride'
p178
S'True'
p179
sS'Members'
p180
S"['AthSequencer/AthBeginSeq', 'AthSequencer/AthAllAlgSeq', 'AthSequencer/AthEndSeq']"
p181
sS'NeededResources'
p182
S'[]'
p183
sS'DetStore'
p184
S'StoreGateSvc/DetectorStore'
p185
ssS'AthEndSeq'
p186
(dp187
S'ExtraOutputs'
p188
S'[]'
p189
sS'EvtStore'
p190
S'StoreGateSvc'
p191
sS'ExtraInputs'
p192
S'[]'
p193
sS'Sequential'
p194
S'True'
p195
sS'Members'
p196
S"['AthIncFirerAlg/EndIncFiringAlg', 'IncidentProcAlg/IncidentProcAlg2']"
p197
sS'NeededResources'
p198
S'[]'
p199
sS'DetStore'
p200
S'StoreGateSvc/DetectorStore'
p201
ssS'AlgResourcePool'
p202
(dp203
S'OutputLevel'
p204
S'3'
sS'TopAlg'
p205
S"['AthMasterSeq']"
p206
ssS'AthRegSeq'
p207
(dp208
S'ExtraOutputs'
p209
S'[]'
p210
sS'EvtStore'
p211
S'StoreGateSvc'
p212
sS'ExtraInputs'
p213
S'[]'
p214
sS'Members'
p215
S'[]'
p216
sS'NeededResources'
p217
S'[]'
p218
sS'DetStore'
p219
S'StoreGateSvc/DetectorStore'
p220
ssS'EndIncFiringAlg'
p221
(dp222
S'ExtraOutputs'
p223
S'[]'
p224
sS'EvtStore'
p225
S'StoreGateSvc'
p226
sS'ExtraInputs'
p227
S'[]'
p228
sS'FireSerial'
p229
S'False'
p230
sS'Incidents'
p231
S"['EndEvent']"
p232
sS'NeededResources'
p233
S'[]'
p234
sS'DetStore'
p235
S'StoreGateSvc/DetectorStore'
p236
ssS'Streams'
p237
(dp238
S'ExtraOutputs'
p239
S'[]'
p240
sS'EvtStore'
p241
S'StoreGateSvc'
p242
sS'ExtraInputs'
p243
S'[]'
p244
sS'Members'
p245
S'[]'
p246
sS'NeededResources'
p247
S'[]'
p248
sS'DetStore'
p249
S'StoreGateSvc/DetectorStore'
p250
ssS'NTupleSvc'
p251
(dp252
S'InhibitPathes'
p253
S'[]'
p254
sS'Input'
p255
S'[]'
p256
sS'Output'
p257
S'[]'
p258
ssS'EventPersistencySvc'
p259
(dp260
S'CnvServices'
p261
S'[]'
p262
ssS'AthAlgSeq'
p263
(dp264
S'ExtraOutputs'
p265
S'[]'
p266
sS'EvtStore'
p267
S'StoreGateSvc'
p268
sS'ExtraInputs'
p269
S'[]'
p270
sS'StopOverride'
p271
S'True'
p272
sS'Members'
p273
S"['SGInputLoader/SGInputLoader']"
p274
sS'NeededResources'
p275
S'[]'
p276
sS'DetStore'
p277
S'StoreGateSvc/DetectorStore'
p278
ssS'AthAllAlgSeq'
p279
(dp280
S'ExtraOutputs'
p281
S'[]'
p282
sS'EvtStore'
p283
S'StoreGateSvc'
p284
sS'ExtraInputs'
p285
S'[]'
p286
sS'Members'
p287
S"['AthSequencer/AthAlgSeq', 'AthSequencer/AthCondSeq']"
p288
sS'NeededResources'
p289
S'[]'
p290
sS'DetStore'
p291
S'StoreGateSvc/DetectorStore'
p292
ssS'AthenaSealSvc'
p293
(dp294
S'DictNames'
p295
S'[]'
p296
sS'IgnoreDicts'
p297
S"['libSealCLHEPDict']"
p298
sS'IgnoreNames'
p299
S"['Gaudi', 'GaudiPython::Interface', 'GaudiPython::Helper', 'FactoryTable', 'IInterface', 'IFactory', 'IAlgFactory', 'ISvcFactory', 'IToolFactory', 'InterfaceID', 'StatusCode', 'IAppMgrUI', 'IProperty', 'Property', 'std::vector<Property*>', 'std::vector<const Property*>', 'std::list<IAlgorithm*>', 'std::list<IService*>', 'std::list<const IFactory*>', 'std::vector<IRegistry*>', 'SimpleProperty', 'SimplePropertyRef', 'IService', 'IAlgorithm', 'ISvcManager', 'IAlgManager', 'IJobOptionsSvc', 'ISvcLocator', 'IEventProcessor', 'IDataProviderSvc', 'IDataManagerSvc', 'IRegistry', 'ContainedObject', 'std::vector<const ContainedObject*>', 'DataObject', 'IHistogramSvc', 'AIDA::I', 'Algorithm', 'Service', 'GaudiPython::PyAlgorithm', 'GaudiPython::PyAlgorithmWrap', 'IParticlePropertySvc', 'ParticleProperty', 'StoreGateSvc', 'IStoragePolicy', 'CharDbArray', 'DoubleDbArray', 'FloatDbArray', 'IntDbArray', 'LongDbArray', 'ShortDbArray', 'AthenaEventLoopMgr', 'MinimalEventLoopMgr', 'PyAthenaEventLoopMgr', 'NTuple::Directory', 'NTuple::File ', 'NTuple::Tuple', 'INTuple', 'NTuple::Tuple', 'greater<int>', 'allocator<', 'string']"
p300
ssS'IncidentProcAlg2'
p301
(dp302
S'ExtraOutputs'
p303
S'[]'
p304
sS'NeededResources'
p305
S'[]'
p306
sS'ExtraInputs'
p307
S'[]'
p308
ssS'DetectorStore'
p309
(dp310
S'IncidentSvc'
p311
S'IncidentSvc'
p312
sS'ProxyProviderSvc'
p313
S'ProxyProviderSvc'
p314
ssS'ConditionStore'
p315
(dp316
S'IncidentSvc'
p317
S'IncidentSvc'
p318
sS'ProxyProviderSvc'
p319
S'ProxyProviderSvc'
p320
ssS'IncidentProcAlg1'
p321
(dp322
S'ExtraOutputs'
p323
S'[]'
p324
sS'NeededResources'
p325
S'[]'
p326
sS'ExtraInputs'
p327
S'[]'
p328
ssS'HistogramDataSvc'
p329
(dp330
S'Input'
p331
S'[]'
p332
sS'InhibitPathes'
p333
S'[]'
p334
ssS'HistoryStore'
p335
(dp336
S'IncidentSvc'
p337
S'IncidentSvc'
p338
sS'ProxyProviderSvc'
p339
S'ProxyProviderSvc'
p340
ss.ccollections
defaultdict
p1
(c__builtin__
dict
p2
tRp3
S'CoreDumpSvc'
p4
(dp5
S'AuditInitialize'
p6
S'False'
p7
sS'OutputLevel'
p8
S'0'
sS'AuditServices'
p9
g7
sS'AuditStart'
p10
g7
sS'CallOldHandler'
p11
S'True'
p12
sS'Signals'
p13
S'[11, 7, 4, 8]'
p14
sS'AuditFinalize'
p15
g7
sS'AuditStop'
p16
g7
sS'AuditReinitialize'
p17
g7
sS'TimeOut'
p18
S'1.8e+12'
p19
sS'FatalHandler'
p20
S'0'
sS'AuditRestart'
p21
g7
sS'CoreDumpStream'
p22
S'stdout'
p23
ssS'MessageSvc'
p24
(dp25
S'verboseColorCode'
p26
S'[]'
p27
sS'defaultLimit'
p28
S'0'
sS'enableSuppression'
p29
g12
sS'errorColorCode'
p30
S"['white', 'red']"
p31
sS'alwaysLimit'
p32
S'0'
sS'showStats'
p33
g7
sS'AuditReinitialize'
p34
g7
sS'setFatal'
p35
S'[]'
p36
sS'infoLimit'
p37
S'0'
sS'errorLimit'
p38
S'0'
sS'AuditRestart'
p39
g7
sS'Format'
p40
S'% F%40W%S%4W%e%s%7W%R%T %0W%M'
p41
sS'AuditServices'
p42
g7
sS'alwaysColorCode'
p43
S'[]'
p44
sS'AuditFinalize'
p45
g7
sS'setError'
p46
S'[]'
p47
sS'setInfo'
p48
S'[]'
p49
sS'setAlways'
p50
S'[]'
p51
sS'debugColorCode'
p52
S'[]'
p53
sS'AuditInitialize'
p54
g7
sS'warningLimit'
p55
S'0'
sS'useColors'
p56
g7
sS'OutputLevel'
p57
S'3'
sS'countInactive'
p58
g7
sS'AuditStop'
p59
g7
sS'setDebug'
p60
S'[]'
p61
sS'timeFormat'
p62
S'%Y-%m-%d %H:%M:%S,%f'
p63
sS'fatalLimit'
p64
S'0'
sS'fatalColorCode'
p65
S"['blue', 'red']"
p66
sS'loggedStreams'
p67
S'{}'
p68
sS'tracedInactiveSources'
p69
S'[]'
p70
sS'setVerbose'
p71
S'[]'
p72
sS'statLevel'
p73
S'0'
sS'verboseLimit'
p74
S'0'
sS'debugLimit'
p75
S'0'
sS'AuditStart'
p76
g7
sS'infoColorCode'
p77
S'[]'
p78
sS'setWarning'
p79
S'[]'
p80
sS'warningColorCode'
p81
S"['yellow']"
p82
ssS'AthenaSealSvc'
p83
(dp84
S'UseChronoStag'
p85
g12
sS'AuditInitialize'
p86
g7
sS'AuditServices'
p87
g7
sS'OutputLevel'
p88
S'0'
sS'AuditStart'
p89
g7
sS'IgnoreNames'
p90
S"['Gaudi', 'GaudiPython::Interface', 'GaudiPython::Helper', 'FactoryTable', 'IInterface', 'IFactory', 'IAlgFactory', 'ISvcFactory', 'IToolFactory', 'InterfaceID', 'StatusCode', 'IAppMgrUI', 'IProperty', 'Property', 'std::vector<Property*>', 'std::vector<const Property*>', 'std::list<IAlgorithm*>', 'std::list<IService*>', 'std::list<const IFactory*>', 'std::vector<IRegistry*>', 'SimpleProperty', 'SimplePropertyRef', 'IService', 'IAlgorithm', 'ISvcManager', 'IAlgManager', 'IJobOptionsSvc', 'ISvcLocator', 'IEventProcessor', 'IDataProviderSvc', 'IDataManagerSvc', 'IRegistry', 'ContainedObject', 'std::vector<const ContainedObject*>', 'DataObject', 'IHistogramSvc', 'AIDA::I', 'Algorithm', 'Service', 'GaudiPython::PyAlgorithm', 'GaudiPython::PyAlgorithmWrap', 'IParticlePropertySvc', 'ParticleProperty', 'StoreGateSvc', 'IStoragePolicy', 'CharDbArray', 'DoubleDbArray', 'FloatDbArray', 'IntDbArray', 'LongDbArray', 'ShortDbArray', 'AthenaEventLoopMgr', 'MinimalEventLoopMgr', 'PyAthenaEventLoopMgr', 'NTuple::Directory', 'NTuple::File ', 'NTuple::Tuple', 'INTuple', 'NTuple::Tuple', 'greater<int>', 'allocator<', 'string']"
p91
sS'AuditFinalize'
p92
g7
sS'AuditStop'
p93
g7
sS'AuditReinitialize'
p94
g7
sS'CheckDictAtInit'
p95
g7
sS'DictNames'
p96
S'[]'
p97
sS'AuditRestart'
p98
g7
sS'CheckDictionary'
p99
g12
sS'LoadAllDicts'
p100
g7
sS'IgnoreDicts'
p101
S"['libSealCLHEPDict']"
p102
ssS'JobOptionsSvc'
p103
(dp104
S'AuditStop'
p105
g7
sS'SEARCHPATH'
p106
S'.:/afs/cern.ch/work/s/smh/idconfig_2/bld/x86_64-centos7-gcc8-opt/jobOptions:/cvmfs/atlas-nightlies.cern.ch/repo/sw/master/2019-02-11T2137/GAUDI/22.0.1/InstallArea/x86_64-centos7-gcc8-opt/jobOptions:/afs/cern.ch/work/s/smh/idconfig_2/bld:/cvmfs/atlas-nightlies.cern.ch/repo/sw/master/2019-02-11T2137/Athena/22.0.1/InstallArea/x86_64-centos7-gcc8-opt/jobOptions:/cvmfs/atlas-nightlies.cern.ch/repo/sw/master/2019-02-11T2137/AthenaExternals/22.0.1/InstallArea/x86_64-centos7-gcc8-opt/jobOptions'
p107
sS'AuditInitialize'
p108
g7
sS'AuditServices'
p109
g7
sS'OutputLevel'
p110
S'3'
sS'AuditStart'
p111
g7
sS'DUMPFILE'
p112
S''
sS'AuditFinalize'
p113
g7
sS'PYTHONPARAMS'
p114
S''
sS'AuditReinitialize'
p115
g7
sS'PATH'
p116
S'../options/job.opts'
p117
sS'PYTHONACTION'
p118
S''
sS'TYPE'
p119
S'NONE'
p120
sS'AuditRestart'
p121
g7
ssS'ToolSvc'
p122
(dp123
S'AuditInitialize'
p124
g7
sS'OutputLevel'
p125
S'0'
sS'AuditServices'
p126
g7
sS'AuditStart'
p127
g7
sS'AuditFinalize'
p128
g7
sS'AuditStop'
p129
g7
sS'AuditReinitialize'
p130
g7
sS'AuditRestart'
p131
g7
ssS'ApplicationMgr'
p132
(dp133
S'Runable'
p134
S'AppMgrRunable'
p135
sS'ReturnCode'
p136
S'0'
sS'TopAlg'
p137
S"['AthSequencer/AthMasterSeq']"
p138
sS'EventLoop'
p139
S'AthenaHiveEventLoopMgr'
p140
sS'ExtSvcCreates'
p141
g7
sS'Environment'
p142
S'{}'
p143
sS'JobOptionsPath'
p144
S''
sS'Dlls'
p145
S'[]'
p146
sS'SvcMapping'
p147
S"['EvtDataSvc/EventDataSvc', 'DetDataSvc/DetectorDataSvc', 'HistogramSvc/HistogramDataSvc', 'HbookCnv::PersSvc/HbookHistSvc', 'RootHistCnv::PersSvc/RootHistSvc', 'EvtPersistencySvc/EventPersistencySvc', 'DetPersistencySvc/DetectorPersistencySvc', 'HistogramPersistencySvc/HistogramPersistencySvc']"
p148
sS'AppName'
p149
S'ApplicationMgr'
p150
sS'AuditServices'
p151
g7
sS'OutStream'
p152
S'[]'
p153
sS'ActivateHistory'
p154
g7
sS'StalledEventMonitoring'
p155
g7
sS'InitializationLoopCheck'
p156
g7
sS'JobOptionsSvcType'
p157
S'JobOptionsSvc'
p158
sS'JobOptionsPreAction'
p159
S''
sS'StatusCodeCheck'
p160
g7
sS'AuditTools'
p161
g7
sS'AlgTypeAliases'
p162
S'{}'
p163
sS'EvtSel'
p164
S''
sS'PluginDebugLevel'
p165
S'0'
sS'OutputLevel'
p166
S'3'
sS'AppVersion'
p167
S''
sS'EvtMax'
p168
S'-1'
p169
sS'SvcOptMapping'
p170
S'[]'
p171
sS'CreateSvc'
p172
S"['ToolSvc/ToolSvc', 'AthDictLoaderSvc/AthDictLoaderSvc', 'AthenaSealSvc/AthenaSealSvc', 'CoreDumpSvc/CoreDumpSvc']"
p173
sS'PropertiesPrint'
p174
g7
sS'JobOptionsType'
p175
S'NONE'
p176
sS'OutStreamType'
p177
S'AthenaOutputStream'
p178
sS'StopOnSignal'
p179
g7
sS'ExtSvc'
p180
S"['ToolSvc/ToolSvc', 'AuditorSvc/AuditorSvc', 'MessageSvc/MessageSvc', 'IncidentSvc/IncidentSvc', 'EvtPersistencySvc/EventPersistencySvc', 'HistogramSvc/HistogramDataSvc', 'NTupleSvc/NTupleSvc', 'RndmGenSvc/RndmGenSvc', 'ChronoStatSvc/ChronoStatSvc', 'StatusCodeSvc/StatusCodeSvc', 'StoreGateSvc/StoreGateSvc', 'StoreGateSvc/DetectorStore', 'StoreGateSvc/HistoryStore', 'ClassIDSvc/ClassIDSvc', 'AthDictLoaderSvc/AthDictLoaderSvc', 'AthenaSealSvc/AthenaSealSvc', 'CoreDumpSvc/CoreDumpSvc', 'SG::HiveMgrSvc/EventDataSvc', 'StoreGateSvc/ConditionStore', 'AlgResourcePool/AlgResourcePool', 'AvalancheSchedulerSvc/AvalancheSchedulerSvc', 'AthenaHiveEventLoopMgr/AthenaHiveEventLoopMgr', 'TimelineSvc/TimelineSvc', 'JobOptionsSvc/JobOptionsSvc']"
p181
sS'AuditAlgorithms'
p182
g12
sS'HistogramPersistency'
p183
S'NONE'
p184
sS'MessageSvcType'
p185
S'InertMessageSvc'
p186
sS'JobOptionsPostAction'
p187
S''
ssS'AthenaHiveEventLoopMgr'
p188
(dp189
S'TopAlg'
p190
S'[]'
p191
sS'AuditReinitialize'
p192
g7
sS'SchedulerSvc'
p193
S'AvalancheSchedulerSvc'
p194
sS'AuditRestart'
p195
g7
sS'EventPrintoutInterval'
p196
S'1'
sS'FailureMode'
p197
S'1'
sS'FakeTimestampInterval'
p198
S'1'
sS'AuditServices'
p199
g7
sS'OutStream'
p200
S'[]'
p201
sS'AuditFinalize'
p202
g7
sS'PreSelectTools'
p203
S'[]'
p204
sS'TimeKeeper'
p205
S''
sS'HistWriteInterval'
p206
S'0'
sS'AuditInitialize'
p207
g7
sS'OutputLevel'
p208
S'0'
sS'EvtSel'
p209
S''
sS'HistogramPersistency'
p210
S''
sS'AuditStop'
p211
g7
sS'FakeLumiBlockInterval'
p212
S'0'
sS'EventStore'
p213
S'StoreGateSvc'
p214
sS'PrintControlFlowExpression'
p215
g7
sS'OutStreamType'
p216
S'AthenaOutputStream'
p217
sS'ClearStorePolicy'
p218
S'EndEvent'
p219
sS'AuditStart'
p220
g7
sS'WhiteboardSvc'
p221
S'EventDataSvc'
p222
ssS'AthDictLoaderSvc'
p223
(dp224
S'AuditInitialize'
p225
g7
sS'OutputLevel'
p226
S'0'
sS'AuditServices'
p227
g7
sS'AuditStart'
p228
g7
sS'DoRecursiveLoad'
p229
g12
sS'AuditFinalize'
p230
g7
sS'AuditStop'
p231
g7
sS'AuditReinitialize'
p232
g7
sS'AuditRestart'
p233
g7
ss.(lp1
.