ccollections
defaultdict
p1
(c__builtin__
dict
p2
tRp3
S'StoreGateSvc'
p4
(dp5
S'IncidentSvc'
p6
S'IncidentSvc'
p7
sS'ProxyProviderSvc'
p8
S'ProxyProviderSvc'
p9
ssS'ChronoStatSvc'
p10
(dp11
S'HiveWhiteBoardSvc'
p12
S'EventDataSvc'
p13
ssS'AthBeginSeq'
p14
(dp15
S'ExtraOutputs'
p16
S'[]'
p17
sS'EvtStore'
p18
S'StoreGateSvc'
p19
sS'ExtraInputs'
p20
S'[]'
p21
sS'Sequential'
p22
S'True'
p23
sS'Members'
p24
S"['AthIncFirerAlg/BeginIncFiringAlg', 'IncidentProcAlg/IncidentProcAlg1']"
p25
sS'NeededResources'
p26
S'[]'
p27
sS'DetStore'
p28
S'StoreGateSvc/DetectorStore'
p29
ssS'CoreDumpSvc'
p30
(dp31
S'Signals'
p32
S'[11, 7, 4, 8]'
p33
sS'FatalHandler'
p34
S'-1'
p35
ssS'AuditorSvc'
p36
(dp37
S'Auditors'
p38
S"['AlgContextAuditor/AlgContextAuditor']"
p39
ssS'ClassIDSvc'
p40
(dp41
S'CLIDDBFiles'
p42
S"['clid.db', 'Gaudi_clid.db']"
p43
ssS'AthOutSeq'
p44
(dp45
S'ExtraOutputs'
p46
S'[]'
p47
sS'EvtStore'
p48
S'StoreGateSvc'
p49
sS'ExtraInputs'
p50
S'[]'
p51
sS'StopOverride'
p52
S'True'
p53
sS'Members'
p54
S'[]'
p55
sS'NeededResources'
p56
S'[]'
p57
sS'DetStore'
p58
S'StoreGateSvc/DetectorStore'
p59
ssS'BeginIncFiringAlg'
p60
(dp61
S'ExtraOutputs'
p62
S'[]'
p63
sS'EvtStore'
p64
S'StoreGateSvc'
p65
sS'ExtraInputs'
p66
S'[]'
p67
sS'FireSerial'
p68
S'False'
p69
sS'Incidents'
p70
S"['BeginEvent']"
p71
sS'NeededResources'
p72
S'[]'
p73
sS'DetStore'
p74
S'StoreGateSvc/DetectorStore'
p75
ssS'AthCondSeq'
p76
(dp77
S'ExtraOutputs'
p78
S'[]'
p79
sS'EvtStore'
p80
S'StoreGateSvc'
p81
sS'ExtraInputs'
p82
S'[]'
p83
sS'Members'
p84
S'[]'
p85
sS'NeededResources'
p86
S'[]'
p87
sS'DetStore'
p88
S'StoreGateSvc/DetectorStore'
p89
ssS'AthFilterSeq'
p90
(dp91
S'ExtraOutputs'
p92
S'[]'
p93
sS'EvtStore'
p94
S'StoreGateSvc'
p95
sS'ExtraInputs'
p96
S'[]'
p97
sS'Members'
p98
S"['AthSequencer/AthAlgEvtSeq', 'AthSequencer/AthOutSeq']"
p99
sS'NeededResources'
p100
S'[]'
p101
sS'DetStore'
p102
S'StoreGateSvc/DetectorStore'
p103
ssS'AthMasterSeq'
p104
(dp105
S'ExtraOutputs'
p106
S'[]'
p107
sS'EvtStore'
p108
S'StoreGateSvc'
p109
sS'ExtraInputs'
p110
S'[]'
p111
sS'Sequential'
p112
S'True'
p113
sS'StopOverride'
p114
S'True'
p115
sS'Members'
p116
S"['AthSequencer/AthFilterSeq', 'AthSequencer/AthRegSeq']"
p117
sS'NeededResources'
p118
S'[]'
p119
sS'DetStore'
p120
S'StoreGateSvc/DetectorStore'
p121
ssS'AthAlgEvtSeq'
p122
(dp123
S'ExtraOutputs'
p124
S'[]'
p125
sS'EvtStore'
p126
S'StoreGateSvc'
p127
sS'ExtraInputs'
p128
S'[]'
p129
sS'Sequential'
p130
S'True'
p131
sS'StopOverride'
p132
S'True'
p133
sS'Members'
p134
S"['AthSequencer/AthBeginSeq', 'AthSequencer/AthAllAlgSeq', 'AthSequencer/AthEndSeq']"
p135
sS'NeededResources'
p136
S'[]'
p137
sS'DetStore'
p138
S'StoreGateSvc/DetectorStore'
p139
ssS'AthEndSeq'
p140
(dp141
S'ExtraOutputs'
p142
S'[]'
p143
sS'EvtStore'
p144
S'StoreGateSvc'
p145
sS'ExtraInputs'
p146
S'[]'
p147
sS'Sequential'
p148
S'True'
p149
sS'Members'
p150
S"['AthIncFirerAlg/EndIncFiringAlg', 'IncidentProcAlg/IncidentProcAlg2']"
p151
sS'NeededResources'
p152
S'[]'
p153
sS'DetStore'
p154
S'StoreGateSvc/DetectorStore'
p155
ssS'AthRegSeq'
p156
(dp157
S'ExtraOutputs'
p158
S'[]'
p159
sS'EvtStore'
p160
S'StoreGateSvc'
p161
sS'ExtraInputs'
p162
S'[]'
p163
sS'Members'
p164
S'[]'
p165
sS'NeededResources'
p166
S'[]'
p167
sS'DetStore'
p168
S'StoreGateSvc/DetectorStore'
p169
ssS'EndIncFiringAlg'
p170
(dp171
S'ExtraOutputs'
p172
S'[]'
p173
sS'EvtStore'
p174
S'StoreGateSvc'
p175
sS'ExtraInputs'
p176
S'[]'
p177
sS'FireSerial'
p178
S'False'
p179
sS'Incidents'
p180
S"['EndEvent']"
p181
sS'NeededResources'
p182
S'[]'
p183
sS'DetStore'
p184
S'StoreGateSvc/DetectorStore'
p185
ssS'Streams'
p186
(dp187
S'ExtraOutputs'
p188
S'[]'
p189
sS'EvtStore'
p190
S'StoreGateSvc'
p191
sS'ExtraInputs'
p192
S'[]'
p193
sS'Members'
p194
S'[]'
p195
sS'NeededResources'
p196
S'[]'
p197
sS'DetStore'
p198
S'StoreGateSvc/DetectorStore'
p199
ssS'NTupleSvc'
p200
(dp201
S'InhibitPathes'
p202
S'[]'
p203
sS'Input'
p204
S'[]'
p205
sS'Output'
p206
S'[]'
p207
ssS'EventPersistencySvc'
p208
(dp209
S'CnvServices'
p210
S'[]'
p211
ssS'AthAlgSeq'
p212
(dp213
S'ExtraOutputs'
p214
S'[]'
p215
sS'EvtStore'
p216
S'StoreGateSvc'
p217
sS'ExtraInputs'
p218
S'[]'
p219
sS'StopOverride'
p220
S'True'
p221
sS'Members'
p222
S'[]'
p223
sS'NeededResources'
p224
S'[]'
p225
sS'DetStore'
p226
S'StoreGateSvc/DetectorStore'
p227
ssS'AthAllAlgSeq'
p228
(dp229
S'ExtraOutputs'
p230
S'[]'
p231
sS'EvtStore'
p232
S'StoreGateSvc'
p233
sS'ExtraInputs'
p234
S'[]'
p235
sS'Members'
p236
S"['AthSequencer/AthCondSeq', 'AthSequencer/AthAlgSeq']"
p237
sS'NeededResources'
p238
S'[]'
p239
sS'DetStore'
p240
S'StoreGateSvc/DetectorStore'
p241
ssS'AthenaSealSvc'
p242
(dp243
S'DictNames'
p244
S'[]'
p245
sS'IgnoreDicts'
p246
S"['libSealCLHEPDict']"
p247
sS'IgnoreNames'
p248
S"['Gaudi', 'GaudiPython::Interface', 'GaudiPython::Helper', 'FactoryTable', 'IInterface', 'IFactory', 'IAlgFactory', 'ISvcFactory', 'IToolFactory', 'InterfaceID', 'StatusCode', 'IAppMgrUI', 'IProperty', 'Property', 'std::vector<Property*>', 'std::vector<const Property*>', 'std::list<IAlgorithm*>', 'std::list<IService*>', 'std::list<const IFactory*>', 'std::vector<IRegistry*>', 'SimpleProperty', 'SimplePropertyRef', 'IService', 'IAlgorithm', 'ISvcManager', 'IAlgManager', 'IJobOptionsSvc', 'ISvcLocator', 'IEventProcessor', 'IDataProviderSvc', 'IDataManagerSvc', 'IRegistry', 'ContainedObject', 'std::vector<const ContainedObject*>', 'DataObject', 'IHistogramSvc', 'AIDA::I', 'Algorithm', 'Service', 'GaudiPython::PyAlgorithm', 'GaudiPython::PyAlgorithmWrap', 'IParticlePropertySvc', 'ParticleProperty', 'StoreGateSvc', 'IStoragePolicy', 'CharDbArray', 'DoubleDbArray', 'FloatDbArray', 'IntDbArray', 'LongDbArray', 'ShortDbArray', 'AthenaEventLoopMgr', 'MinimalEventLoopMgr', 'PyAthenaEventLoopMgr', 'NTuple::Directory', 'NTuple::File ', 'NTuple::Tuple', 'INTuple', 'NTuple::Tuple', 'greater<int>', 'allocator<', 'string']"
p249
ssS'IncidentProcAlg2'
p250
(dp251
S'ExtraOutputs'
p252
S'[]'
p253
sS'NeededResources'
p254
S'[]'
p255
sS'ExtraInputs'
p256
S'[]'
p257
ssS'DetectorStore'
p258
(dp259
S'IncidentSvc'
p260
S'IncidentSvc'
p261
sS'ProxyProviderSvc'
p262
S'ProxyProviderSvc'
p263
ssS'IncidentProcAlg1'
p264
(dp265
S'ExtraOutputs'
p266
S'[]'
p267
sS'NeededResources'
p268
S'[]'
p269
sS'ExtraInputs'
p270
S'[]'
p271
ssS'HistogramDataSvc'
p272
(dp273
S'Input'
p274
S'[]'
p275
sS'InhibitPathes'
p276
S'[]'
p277
ssS'HistoryStore'
p278
(dp279
S'IncidentSvc'
p280
S'IncidentSvc'
p281
sS'ProxyProviderSvc'
p282
S'ProxyProviderSvc'
p283
ss.ccollections
defaultdict
p1
(c__builtin__
dict
p2
tRp3
S'CoreDumpSvc'
p4
(dp5
S'AuditInitialize'
p6
S'False'
p7
sS'OutputLevel'
p8
S'0'
sS'AuditServices'
p9
g7
sS'AuditStart'
p10
g7
sS'CallOldHandler'
p11
S'True'
p12
sS'Signals'
p13
S'[11, 7, 4, 8]'
p14
sS'AuditFinalize'
p15
g7
sS'AuditStop'
p16
g7
sS'AuditReinitialize'
p17
g7
sS'TimeOut'
p18
S'1.8e+12'
p19
sS'FatalHandler'
p20
S'0'
sS'AuditRestart'
p21
g7
sS'CoreDumpStream'
p22
S'stdout'
p23
ssS'MessageSvc'
p24
(dp25
S'verboseColorCode'
p26
S'[]'
p27
sS'defaultLimit'
p28
S'500'
p29
sS'enableSuppression'
p30
g12
sS'errorColorCode'
p31
S"['white', 'red']"
p32
sS'alwaysLimit'
p33
S'0'
sS'showStats'
p34
g7
sS'AuditReinitialize'
p35
g7
sS'setFatal'
p36
S'[]'
p37
sS'infoLimit'
p38
S'500'
p39
sS'errorLimit'
p40
S'500'
p41
sS'AuditRestart'
p42
g7
sS'Format'
p43
S'% F%18W%S%7W%R%T %0W%M'
p44
sS'AuditServices'
p45
g7
sS'alwaysColorCode'
p46
S'[]'
p47
sS'AuditFinalize'
p48
g7
sS'setError'
p49
S'[]'
p50
sS'setInfo'
p51
S'[]'
p52
sS'setAlways'
p53
S'[]'
p54
sS'debugColorCode'
p55
S'[]'
p56
sS'AuditInitialize'
p57
g7
sS'warningLimit'
p58
S'500'
p59
sS'useColors'
p60
g7
sS'OutputLevel'
p61
S'3'
sS'countInactive'
p62
g7
sS'AuditStop'
p63
g7
sS'setDebug'
p64
S'[]'
p65
sS'timeFormat'
p66
S'%Y-%m-%d %H:%M:%S,%f'
p67
sS'fatalLimit'
p68
S'500'
p69
sS'fatalColorCode'
p70
S"['blue', 'red']"
p71
sS'loggedStreams'
p72
S'{}'
p73
sS'tracedInactiveSources'
p74
S'[]'
p75
sS'setVerbose'
p76
S'[]'
p77
sS'statLevel'
p78
S'0'
sS'verboseLimit'
p79
S'500'
p80
sS'debugLimit'
p81
S'500'
p82
sS'AuditStart'
p83
g7
sS'infoColorCode'
p84
S'[]'
p85
sS'setWarning'
p86
S'[]'
p87
sS'warningColorCode'
p88
S"['yellow']"
p89
ssS'AthenaSealSvc'
p90
(dp91
S'UseChronoStag'
p92
g12
sS'AuditInitialize'
p93
g7
sS'AuditServices'
p94
g7
sS'OutputLevel'
p95
S'0'
sS'AuditStart'
p96
g7
sS'IgnoreNames'
p97
S"['Gaudi', 'GaudiPython::Interface', 'GaudiPython::Helper', 'FactoryTable', 'IInterface', 'IFactory', 'IAlgFactory', 'ISvcFactory', 'IToolFactory', 'InterfaceID', 'StatusCode', 'IAppMgrUI', 'IProperty', 'Property', 'std::vector<Property*>', 'std::vector<const Property*>', 'std::list<IAlgorithm*>', 'std::list<IService*>', 'std::list<const IFactory*>', 'std::vector<IRegistry*>', 'SimpleProperty', 'SimplePropertyRef', 'IService', 'IAlgorithm', 'ISvcManager', 'IAlgManager', 'IJobOptionsSvc', 'ISvcLocator', 'IEventProcessor', 'IDataProviderSvc', 'IDataManagerSvc', 'IRegistry', 'ContainedObject', 'std::vector<const ContainedObject*>', 'DataObject', 'IHistogramSvc', 'AIDA::I', 'Algorithm', 'Service', 'GaudiPython::PyAlgorithm', 'GaudiPython::PyAlgorithmWrap', 'IParticlePropertySvc', 'ParticleProperty', 'StoreGateSvc', 'IStoragePolicy', 'CharDbArray', 'DoubleDbArray', 'FloatDbArray', 'IntDbArray', 'LongDbArray', 'ShortDbArray', 'AthenaEventLoopMgr', 'MinimalEventLoopMgr', 'PyAthenaEventLoopMgr', 'NTuple::Directory', 'NTuple::File ', 'NTuple::Tuple', 'INTuple', 'NTuple::Tuple', 'greater<int>', 'allocator<', 'string']"
p98
sS'AuditFinalize'
p99
g7
sS'AuditStop'
p100
g7
sS'AuditReinitialize'
p101
g7
sS'CheckDictAtInit'
p102
g7
sS'DictNames'
p103
S'[]'
p104
sS'AuditRestart'
p105
g7
sS'CheckDictionary'
p106
g12
sS'LoadAllDicts'
p107
g7
sS'IgnoreDicts'
p108
S"['libSealCLHEPDict']"
p109
ssS'IncidentSvc'
p110
(dp111
S'AuditInitialize'
p112
g7
sS'OutputLevel'
p113
S'0'
sS'AuditServices'
p114
g7
sS'AuditStart'
p115
g7
sS'AuditFinalize'
p116
g7
sS'AuditStop'
p117
g7
sS'AuditReinitialize'
p118
g7
sS'AuditRestart'
p119
g7
ssS'JobOptionsSvc'
p120
(dp121
S'AuditStop'
p122
g7
sS'SEARCHPATH'
p123
S'.:/afs/cern.ch/work/s/smh/idconfig_2/bld/x86_64-centos7-gcc8-opt/jobOptions:/cvmfs/atlas-nightlies.cern.ch/repo/sw/master/2019-02-11T2137/GAUDI/22.0.1/InstallArea/x86_64-centos7-gcc8-opt/jobOptions:/afs/cern.ch/work/s/smh/idconfig_2/bld:/cvmfs/atlas-nightlies.cern.ch/repo/sw/master/2019-02-11T2137/Athena/22.0.1/InstallArea/x86_64-centos7-gcc8-opt/jobOptions:/cvmfs/atlas-nightlies.cern.ch/repo/sw/master/2019-02-11T2137/AthenaExternals/22.0.1/InstallArea/x86_64-centos7-gcc8-opt/jobOptions'
p124
sS'AuditInitialize'
p125
g7
sS'AuditServices'
p126
g7
sS'OutputLevel'
p127
S'3'
sS'AuditStart'
p128
g7
sS'DUMPFILE'
p129
S''
sS'AuditFinalize'
p130
g7
sS'PYTHONPARAMS'
p131
S''
sS'AuditReinitialize'
p132
g7
sS'PATH'
p133
S'../options/job.opts'
p134
sS'PYTHONACTION'
p135
S''
sS'TYPE'
p136
S'NONE'
p137
sS'AuditRestart'
p138
g7
ssS'ToolSvc'
p139
(dp140
S'AuditInitialize'
p141
g7
sS'OutputLevel'
p142
S'0'
sS'AuditServices'
p143
g7
sS'AuditStart'
p144
g7
sS'AuditFinalize'
p145
g7
sS'AuditStop'
p146
g7
sS'AuditReinitialize'
p147
g7
sS'AuditRestart'
p148
g7
ssS'ApplicationMgr'
p149
(dp150
S'Runable'
p151
S'AppMgrRunable'
p152
sS'ReturnCode'
p153
S'0'
sS'TopAlg'
p154
S"['AthSequencer/AthMasterSeq']"
p155
sS'EventLoop'
p156
S'AthenaEventLoopMgr'
p157
sS'ExtSvcCreates'
p158
g7
sS'Environment'
p159
S'{}'
p160
sS'JobOptionsPath'
p161
S''
sS'Dlls'
p162
S"['AthenaServices']"
p163
sS'SvcMapping'
p164
S"['EvtDataSvc/EventDataSvc', 'DetDataSvc/DetectorDataSvc', 'HistogramSvc/HistogramDataSvc', 'HbookCnv::PersSvc/HbookHistSvc', 'RootHistCnv::PersSvc/RootHistSvc', 'EvtPersistencySvc/EventPersistencySvc', 'DetPersistencySvc/DetectorPersistencySvc', 'HistogramPersistencySvc/HistogramPersistencySvc']"
p165
sS'AppName'
p166
S'ApplicationMgr'
p167
sS'AuditServices'
p168
g7
sS'OutStream'
p169
S'[]'
p170
sS'ActivateHistory'
p171
g7
sS'StalledEventMonitoring'
p172
g7
sS'InitializationLoopCheck'
p173
g7
sS'JobOptionsSvcType'
p174
S'JobOptionsSvc'
p175
sS'JobOptionsPreAction'
p176
S''
sS'StatusCodeCheck'
p177
g12
sS'AuditTools'
p178
g7
sS'AlgTypeAliases'
p179
S'{}'
p180
sS'EvtSel'
p181
S''
sS'PluginDebugLevel'
p182
S'0'
sS'OutputLevel'
p183
S'3'
sS'AppVersion'
p184
S''
sS'EvtMax'
p185
S'-1'
p186
sS'SvcOptMapping'
p187
S'[]'
p188
sS'CreateSvc'
p189
S"['ToolSvc/ToolSvc', 'AthDictLoaderSvc/AthDictLoaderSvc', 'AthenaSealSvc/AthenaSealSvc', 'CoreDumpSvc/CoreDumpSvc']"
p190
sS'PropertiesPrint'
p191
g7
sS'JobOptionsType'
p192
S'NONE'
p193
sS'OutStreamType'
p194
S'AthenaOutputStream'
p195
sS'StopOnSignal'
p196
g7
sS'ExtSvc'
p197
S"['ToolSvc/ToolSvc', 'AuditorSvc/AuditorSvc', 'MessageSvc/MessageSvc', 'IncidentSvc/IncidentSvc', 'EvtPersistencySvc/EventPersistencySvc', 'HistogramSvc/HistogramDataSvc', 'NTupleSvc/NTupleSvc', 'RndmGenSvc/RndmGenSvc', 'ChronoStatSvc/ChronoStatSvc', 'StatusCodeSvc/StatusCodeSvc', 'StoreGateSvc/StoreGateSvc', 'StoreGateSvc/DetectorStore', 'StoreGateSvc/HistoryStore', 'ClassIDSvc/ClassIDSvc', 'AthDictLoaderSvc/AthDictLoaderSvc', 'AthenaSealSvc/AthenaSealSvc', 'CoreDumpSvc/CoreDumpSvc', 'JobOptionsSvc/JobOptionsSvc']"
p198
sS'AuditAlgorithms'
p199
g7
sS'HistogramPersistency'
p200
S'NONE'
p201
sS'MessageSvcType'
p202
S'MessageSvc'
p203
sS'JobOptionsPostAction'
p204
S''
ssS'StatusCodeSvc'
p205
(dp206
S'AuditRestart'
p207
g7
sS'AuditInitialize'
p208
g7
sS'OutputLevel'
p209
S'3'
sS'AuditServices'
p210
g7
sS'AuditStart'
p211
g7
sS'AbortOnError'
p212
g12
sS'Filter'
p213
S"['Reflex::NewDelFunctionsT<StatusCode>::delete_T(void*)', 'ROOT::Reflex::NewDelFunctionsT<StatusCode>::delete_T(void*)']"
p214
sS'AuditFinalize'
p215
g7
sS'AuditStop'
p216
g7
sS'AuditReinitialize'
p217
g7
sS'SuppressCheck'
p218
g7
sS'IgnoreDicts'
p219
g12
ssS'AthDictLoaderSvc'
p220
(dp221
S'AuditInitialize'
p222
g7
sS'OutputLevel'
p223
S'0'
sS'AuditServices'
p224
g7
sS'AuditStart'
p225
g7
sS'DoRecursiveLoad'
p226
g12
sS'AuditFinalize'
p227
g7
sS'AuditStop'
p228
g7
sS'AuditReinitialize'
p229
g7
sS'AuditRestart'
p230
g7
ss.(lp1
.