ccollections
defaultdict
p1
(c__builtin__
dict
p2
tRp3
S'StoreGateSvc'
p4
(dp5
S'IncidentSvc'
p6
S'IncidentSvc'
p7
sS'ProxyProviderSvc'
p8
S'ProxyProviderSvc'
p9
ssS'AthBeginSeq'
p10
(dp11
S'ExtraOutputs'
p12
S'[]'
p13
sS'EvtStore'
p14
S'StoreGateSvc'
p15
sS'ExtraInputs'
p16
S'[]'
p17
sS'Sequential'
p18
S'True'
p19
sS'Members'
p20
S"['AthIncFirerAlg/BeginIncFiringAlg', 'IncidentProcAlg/IncidentProcAlg1']"
p21
sS'NeededResources'
p22
S'[]'
p23
sS'DetStore'
p24
S'StoreGateSvc/DetectorStore'
p25
ssS'CoreDumpSvc'
p26
(dp27
S'Signals'
p28
S'[11, 7, 4, 8]'
p29
sS'FatalHandler'
p30
S'-1'
p31
ssS'AuditorSvc'
p32
(dp33
S'Auditors'
p34
S"['AlgContextAuditor/AlgContextAuditor']"
p35
ssS'ClassIDSvc'
p36
(dp37
S'CLIDDBFiles'
p38
S"['clid.db', 'Gaudi_clid.db']"
p39
ssS'AthOutSeq'
p40
(dp41
S'ExtraOutputs'
p42
S'[]'
p43
sS'EvtStore'
p44
S'StoreGateSvc'
p45
sS'ExtraInputs'
p46
S'[]'
p47
sS'Members'
p48
S'[]'
p49
sS'NeededResources'
p50
S'[]'
p51
sS'DetStore'
p52
S'StoreGateSvc/DetectorStore'
p53
ssS'BeginIncFiringAlg'
p54
(dp55
S'ExtraOutputs'
p56
S'[]'
p57
sS'EvtStore'
p58
S'StoreGateSvc'
p59
sS'ExtraInputs'
p60
S'[]'
p61
sS'FireSerial'
p62
S'False'
p63
sS'Incidents'
p64
S"['BeginEvent']"
p65
sS'NeededResources'
p66
S'[]'
p67
sS'DetStore'
p68
S'StoreGateSvc/DetectorStore'
p69
ssS'AthCondSeq'
p70
(dp71
S'ExtraOutputs'
p72
S'[]'
p73
sS'EvtStore'
p74
S'StoreGateSvc'
p75
sS'ExtraInputs'
p76
S'[]'
p77
sS'Members'
p78
S'[]'
p79
sS'NeededResources'
p80
S'[]'
p81
sS'DetStore'
p82
S'StoreGateSvc/DetectorStore'
p83
ssS'AthMasterSeq'
p84
(dp85
S'ExtraOutputs'
p86
S'[]'
p87
sS'EvtStore'
p88
S'StoreGateSvc'
p89
sS'ExtraInputs'
p90
S'[]'
p91
sS'Sequential'
p92
S'True'
p93
sS'StopOverride'
p94
S'True'
p95
sS'Members'
p96
S"['AthSequencer/AthAlgEvtSeq', 'AthSequencer/AthOutSeq', 'AthSequencer/AthRegSeq']"
p97
sS'NeededResources'
p98
S'[]'
p99
sS'DetStore'
p100
S'StoreGateSvc/DetectorStore'
p101
ssS'AthAlgEvtSeq'
p102
(dp103
S'ExtraOutputs'
p104
S'[]'
p105
sS'EvtStore'
p106
S'StoreGateSvc'
p107
sS'ExtraInputs'
p108
S'[]'
p109
sS'Sequential'
p110
S'True'
p111
sS'StopOverride'
p112
S'True'
p113
sS'Members'
p114
S"['AthSequencer/AthBeginSeq', 'AthSequencer/AthAllAlgSeq', 'AthSequencer/AthEndSeq']"
p115
sS'NeededResources'
p116
S'[]'
p117
sS'DetStore'
p118
S'StoreGateSvc/DetectorStore'
p119
ssS'AthEndSeq'
p120
(dp121
S'ExtraOutputs'
p122
S'[]'
p123
sS'EvtStore'
p124
S'StoreGateSvc'
p125
sS'ExtraInputs'
p126
S'[]'
p127
sS'Sequential'
p128
S'True'
p129
sS'Members'
p130
S"['AthIncFirerAlg/EndIncFiringAlg', 'IncidentProcAlg/IncidentProcAlg2']"
p131
sS'NeededResources'
p132
S'[]'
p133
sS'DetStore'
p134
S'StoreGateSvc/DetectorStore'
p135
ssS'AthRegSeq'
p136
(dp137
S'ExtraOutputs'
p138
S'[]'
p139
sS'EvtStore'
p140
S'StoreGateSvc'
p141
sS'ExtraInputs'
p142
S'[]'
p143
sS'Members'
p144
S'[]'
p145
sS'NeededResources'
p146
S'[]'
p147
sS'DetStore'
p148
S'StoreGateSvc/DetectorStore'
p149
ssS'EndIncFiringAlg'
p150
(dp151
S'ExtraOutputs'
p152
S'[]'
p153
sS'EvtStore'
p154
S'StoreGateSvc'
p155
sS'ExtraInputs'
p156
S'[]'
p157
sS'FireSerial'
p158
S'False'
p159
sS'Incidents'
p160
S"['EndEvent']"
p161
sS'NeededResources'
p162
S'[]'
p163
sS'DetStore'
p164
S'StoreGateSvc/DetectorStore'
p165
ssS'Streams'
p166
(dp167
S'ExtraOutputs'
p168
S'[]'
p169
sS'EvtStore'
p170
S'StoreGateSvc'
p171
sS'ExtraInputs'
p172
S'[]'
p173
sS'Members'
p174
S'[]'
p175
sS'NeededResources'
p176
S'[]'
p177
sS'DetStore'
p178
S'StoreGateSvc/DetectorStore'
p179
ssS'NTupleSvc'
p180
(dp181
S'InhibitPathes'
p182
S'[]'
p183
sS'Input'
p184
S'[]'
p185
sS'Output'
p186
S'[]'
p187
ssS'EventPersistencySvc'
p188
(dp189
S'CnvServices'
p190
S'[]'
p191
ssS'AthAlgSeq'
p192
(dp193
S'ExtraOutputs'
p194
S'[]'
p195
sS'EvtStore'
p196
S'StoreGateSvc'
p197
sS'ExtraInputs'
p198
S'[]'
p199
sS'StopOverride'
p200
S'True'
p201
sS'Members'
p202
S'[]'
p203
sS'NeededResources'
p204
S'[]'
p205
sS'DetStore'
p206
S'StoreGateSvc/DetectorStore'
p207
ssS'AthAllAlgSeq'
p208
(dp209
S'ExtraOutputs'
p210
S'[]'
p211
sS'EvtStore'
p212
S'StoreGateSvc'
p213
sS'ExtraInputs'
p214
S'[]'
p215
sS'Members'
p216
S"['AthSequencer/AthCondSeq', 'AthSequencer/AthAlgSeq']"
p217
sS'NeededResources'
p218
S'[]'
p219
sS'DetStore'
p220
S'StoreGateSvc/DetectorStore'
p221
ssS'AthenaSealSvc'
p222
(dp223
S'DictNames'
p224
S'[]'
p225
sS'IgnoreDicts'
p226
S"['libSealCLHEPDict']"
p227
sS'IgnoreNames'
p228
S"['Gaudi', 'GaudiPython::Interface', 'GaudiPython::Helper', 'FactoryTable', 'IInterface', 'IFactory', 'IAlgFactory', 'ISvcFactory', 'IToolFactory', 'InterfaceID', 'StatusCode', 'IAppMgrUI', 'IProperty', 'Property', 'std::vector<Property*>', 'std::vector<const Property*>', 'std::list<IAlgorithm*>', 'std::list<IService*>', 'std::list<const IFactory*>', 'std::vector<IRegistry*>', 'SimpleProperty', 'SimplePropertyRef', 'IService', 'IAlgorithm', 'ISvcManager', 'IAlgManager', 'IJobOptionsSvc', 'ISvcLocator', 'IEventProcessor', 'IDataProviderSvc', 'IDataManagerSvc', 'IRegistry', 'ContainedObject', 'std::vector<const ContainedObject*>', 'DataObject', 'IHistogramSvc', 'AIDA::I', 'Algorithm', 'Service', 'GaudiPython::PyAlgorithm', 'GaudiPython::PyAlgorithmWrap', 'IParticlePropertySvc', 'ParticleProperty', 'StoreGateSvc', 'IStoragePolicy', 'CharDbArray', 'DoubleDbArray', 'FloatDbArray', 'IntDbArray', 'LongDbArray', 'ShortDbArray', 'AthenaEventLoopMgr', 'MinimalEventLoopMgr', 'PyAthenaEventLoopMgr', 'NTuple::Directory', 'NTuple::File ', 'NTuple::Tuple', 'INTuple', 'NTuple::Tuple', 'greater<int>', 'allocator<', 'string']"
p229
ssS'IncidentProcAlg2'
p230
(dp231
S'ExtraOutputs'
p232
S'[]'
p233
sS'NeededResources'
p234
S'[]'
p235
sS'ExtraInputs'
p236
S'[]'
p237
ssS'DetectorStore'
p238
(dp239
S'IncidentSvc'
p240
S'IncidentSvc'
p241
sS'ProxyProviderSvc'
p242
S'ProxyProviderSvc'
p243
ssS'IncidentProcAlg1'
p244
(dp245
S'ExtraOutputs'
p246
S'[]'
p247
sS'NeededResources'
p248
S'[]'
p249
sS'ExtraInputs'
p250
S'[]'
p251
ssS'HistogramDataSvc'
p252
(dp253
S'Input'
p254
S'[]'
p255
sS'InhibitPathes'
p256
S'[]'
p257
ssS'HistoryStore'
p258
(dp259
S'IncidentSvc'
p260
S'IncidentSvc'
p261
sS'ProxyProviderSvc'
p262
S'ProxyProviderSvc'
p263
ss.ccollections
defaultdict
p1
(c__builtin__
dict
p2
tRp3
S'CoreDumpSvc'
p4
(dp5
S'AuditInitialize'
p6
S'False'
p7
sS'OutputLevel'
p8
S'0'
sS'AuditServices'
p9
g7
sS'AuditStart'
p10
g7
sS'CallOldHandler'
p11
S'True'
p12
sS'Signals'
p13
S'[11, 7, 4, 8]'
p14
sS'AuditFinalize'
p15
g7
sS'AuditStop'
p16
g7
sS'AuditReinitialize'
p17
g7
sS'TimeOut'
p18
S'1.8e+12'
p19
sS'FatalHandler'
p20
S'0'
sS'AuditRestart'
p21
g7
sS'CoreDumpStream'
p22
S'stdout'
p23
ssS'MessageSvc'
p24
(dp25
S'verboseColorCode'
p26
S'[]'
p27
sS'defaultLimit'
p28
S'500'
p29
sS'enableSuppression'
p30
g12
sS'errorColorCode'
p31
S"['white', 'red']"
p32
sS'alwaysLimit'
p33
S'0'
sS'showStats'
p34
g7
sS'AuditReinitialize'
p35
g7
sS'setFatal'
p36
S'[]'
p37
sS'infoLimit'
p38
S'500'
p39
sS'errorLimit'
p40
S'500'
p41
sS'AuditRestart'
p42
g7
sS'Format'
p43
S'% F%18W%S%7W%R%T %0W%M'
p44
sS'AuditServices'
p45
g7
sS'alwaysColorCode'
p46
S'[]'
p47
sS'AuditFinalize'
p48
g7
sS'setError'
p49
S'[]'
p50
sS'setInfo'
p51
S'[]'
p52
sS'setAlways'
p53
S'[]'
p54
sS'debugColorCode'
p55
S'[]'
p56
sS'AuditInitialize'
p57
g7
sS'warningLimit'
p58
S'500'
p59
sS'useColors'
p60
g7
sS'OutputLevel'
p61
S'3'
sS'countInactive'
p62
g7
sS'AuditStop'
p63
g7
sS'setDebug'
p64
S'[]'
p65
sS'timeFormat'
p66
S'%Y-%m-%d %H:%M:%S,%f'
p67
sS'fatalLimit'
p68
S'500'
p69
sS'fatalColorCode'
p70
S"['blue', 'red']"
p71
sS'loggedStreams'
p72
S'{}'
p73
sS'tracedInactiveSources'
p74
S'[]'
p75
sS'setVerbose'
p76
S'[]'
p77
sS'statLevel'
p78
S'0'
sS'verboseLimit'
p79
S'500'
p80
sS'debugLimit'
p81
S'500'
p82
sS'AuditStart'
p83
g7
sS'infoColorCode'
p84
S'[]'
p85
sS'setWarning'
p86
S'[]'
p87
sS'warningColorCode'
p88
S"['yellow']"
p89
ssS'AthenaSealSvc'
p90
(dp91
S'UseChronoStag'
p92
g12
sS'AuditInitialize'
p93
g7
sS'AuditServices'
p94
g7
sS'OutputLevel'
p95
S'0'
sS'AuditStart'
p96
g7
sS'IgnoreNames'
p97
S"['Gaudi', 'GaudiPython::Interface', 'GaudiPython::Helper', 'FactoryTable', 'IInterface', 'IFactory', 'IAlgFactory', 'ISvcFactory', 'IToolFactory', 'InterfaceID', 'StatusCode', 'IAppMgrUI', 'IProperty', 'Property', 'std::vector<Property*>', 'std::vector<const Property*>', 'std::list<IAlgorithm*>', 'std::list<IService*>', 'std::list<const IFactory*>', 'std::vector<IRegistry*>', 'SimpleProperty', 'SimplePropertyRef', 'IService', 'IAlgorithm', 'ISvcManager', 'IAlgManager', 'IJobOptionsSvc', 'ISvcLocator', 'IEventProcessor', 'IDataProviderSvc', 'IDataManagerSvc', 'IRegistry', 'ContainedObject', 'std::vector<const ContainedObject*>', 'DataObject', 'IHistogramSvc', 'AIDA::I', 'Algorithm', 'Service', 'GaudiPython::PyAlgorithm', 'GaudiPython::PyAlgorithmWrap', 'IParticlePropertySvc', 'ParticleProperty', 'StoreGateSvc', 'IStoragePolicy', 'CharDbArray', 'DoubleDbArray', 'FloatDbArray', 'IntDbArray', 'LongDbArray', 'ShortDbArray', 'AthenaEventLoopMgr', 'MinimalEventLoopMgr', 'PyAthenaEventLoopMgr', 'NTuple::Directory', 'NTuple::File ', 'NTuple::Tuple', 'INTuple', 'NTuple::Tuple', 'greater<int>', 'allocator<', 'string']"
p98
sS'AuditFinalize'
p99
g7
sS'AuditStop'
p100
g7
sS'AuditReinitialize'
p101
g7
sS'CheckDictAtInit'
p102
g7
sS'DictNames'
p103
S'[]'
p104
sS'AuditRestart'
p105
g7
sS'CheckDictionary'
p106
g12
sS'LoadAllDicts'
p107
g7
sS'IgnoreDicts'
p108
S"['libSealCLHEPDict']"
p109
ssS'IncidentSvc'
p110
(dp111
S'AuditInitialize'
p112
g7
sS'OutputLevel'
p113
S'0'
sS'AuditServices'
p114
g7
sS'AuditStart'
p115
g7
sS'AuditFinalize'
p116
g7
sS'AuditStop'
p117
g7
sS'AuditReinitialize'
p118
g7
sS'AuditRestart'
p119
g7
ssS'JobOptionsSvc'
p120
(dp121
S'AuditStop'
p122
g7
sS'SEARCHPATH'
p123
S'.:/cvmfs/atlas-nightlies.cern.ch/repo/sw/master/2017-12-17T2303/Athena/22.0.0/InstallArea/x86_64-slc6-gcc62-opt/jobOptions:/cvmfs/atlas-nightlies.cern.ch/repo/sw/master/2017-12-17T2303/AthenaExternals/22.0.0/InstallArea/x86_64-slc6-gcc62-opt/jobOptions:/cvmfs/atlas-nightlies.cern.ch/repo/sw/master/2017-12-17T2303/GAUDI/22.0.0/InstallArea/x86_64-slc6-gcc62-opt/jobOptions'
p124
sS'AuditInitialize'
p125
g7
sS'AuditServices'
p126
g7
sS'OutputLevel'
p127
S'3'
sS'AuditStart'
p128
g7
sS'DUMPFILE'
p129
S''
sS'AuditFinalize'
p130
g7
sS'PYTHONPARAMS'
p131
S''
sS'AuditReinitialize'
p132
g7
sS'PATH'
p133
S'../options/job.opts'
p134
sS'PYTHONACTION'
p135
S''
sS'TYPE'
p136
S'NONE'
p137
sS'AuditRestart'
p138
g7
ssS'ToolSvc'
p139
(dp140
S'AuditInitialize'
p141
g7
sS'OutputLevel'
p142
S'0'
sS'AuditServices'
p143
g7
sS'AuditStart'
p144
g7
sS'AuditFinalize'
p145
g7
sS'AuditStop'
p146
g7
sS'AuditReinitialize'
p147
g7
sS'AuditRestart'
p148
g7
ssS'ApplicationMgr'
p149
(dp150
S'Runable'
p151
S'AppMgrRunable'
p152
sS'ReturnCode'
p153
S'0'
sS'TopAlg'
p154
S"['AthSequencer/AthMasterSeq']"
p155
sS'EventLoop'
p156
S'AthenaEventLoopMgr'
p157
sS'ExtSvcCreates'
p158
g7
sS'NoOfThreads'
p159
S'0'
sS'Environment'
p160
S'{}'
p161
sS'JobOptionsPath'
p162
S''
sS'SvcMapping'
p163
S"['EvtDataSvc/EventDataSvc', 'DetDataSvc/DetectorDataSvc', 'HistogramSvc/HistogramDataSvc', 'HbookCnv::PersSvc/HbookHistSvc', 'RootHistCnv::PersSvc/RootHistSvc', 'EvtPersistencySvc/EventPersistencySvc', 'DetPersistencySvc/DetectorPersistencySvc', 'HistogramPersistencySvc/HistogramPersistencySvc']"
p164
sS'MultiThreadExtSvc'
p165
S'[]'
p166
sS'HistogramPersistency'
p167
S'NONE'
p168
sS'AuditServices'
p169
g7
sS'OutStream'
p170
S'[]'
p171
sS'ActivateHistory'
p172
g7
sS'StalledEventMonitoring'
p173
g7
sS'InitializationLoopCheck'
p174
g7
sS'JobOptionsSvcType'
p175
S'JobOptionsSvc'
p176
sS'JobOptionsPreAction'
p177
S''
sS'StatusCodeCheck'
p178
g12
sS'AuditTools'
p179
g7
sS'AlgTypeAliases'
p180
S'{}'
p181
sS'EvtSel'
p182
S''
sS'PluginDebugLevel'
p183
S'0'
sS'OutputLevel'
p184
S'3'
sS'AppVersion'
p185
S''
sS'EvtMax'
p186
S'-1'
p187
sS'SvcOptMapping'
p188
S'[]'
p189
sS'CreateSvc'
p190
S"['ToolSvc/ToolSvc', 'AthDictLoaderSvc/AthDictLoaderSvc', 'AthenaSealSvc/AthenaSealSvc', 'CoreDumpSvc/CoreDumpSvc']"
p191
sS'PropertiesPrint'
p192
g7
sS'JobOptionsType'
p193
S'NONE'
p194
sS'OutStreamType'
p195
S'AthenaOutputStream'
p196
sS'StopOnSignal'
p197
g7
sS'ExtSvc'
p198
S"['ToolSvc/ToolSvc', 'AuditorSvc/AuditorSvc', 'MessageSvc/MessageSvc', 'IncidentSvc/IncidentSvc', 'EvtPersistencySvc/EventPersistencySvc', 'HistogramSvc/HistogramDataSvc', 'NTupleSvc/NTupleSvc', 'RndmGenSvc/RndmGenSvc', 'ChronoStatSvc/ChronoStatSvc', 'StatusCodeSvc/StatusCodeSvc', 'StoreGateSvc/StoreGateSvc', 'StoreGateSvc/DetectorStore', 'StoreGateSvc/HistoryStore', 'ClassIDSvc/ClassIDSvc', 'AthDictLoaderSvc/AthDictLoaderSvc', 'AthenaSealSvc/AthenaSealSvc', 'CoreDumpSvc/CoreDumpSvc', 'JobOptionsSvc/JobOptionsSvc']"
p199
sS'AppName'
p200
S'ApplicationMgr'
p201
sS'AuditAlgorithms'
p202
g7
sS'Dlls'
p203
S"['AthenaServices']"
p204
sS'MessageSvcType'
p205
S'MessageSvc'
p206
sS'JobOptionsPostAction'
p207
S''
ssS'StatusCodeSvc'
p208
(dp209
S'AuditRestart'
p210
g7
sS'AuditInitialize'
p211
g7
sS'OutputLevel'
p212
S'3'
sS'AuditServices'
p213
g7
sS'AuditStart'
p214
g7
sS'AbortOnError'
p215
g12
sS'Filter'
p216
S"['Reflex::NewDelFunctionsT<StatusCode>::delete_T(void*)', 'ROOT::Reflex::NewDelFunctionsT<StatusCode>::delete_T(void*)']"
p217
sS'AuditFinalize'
p218
g7
sS'AuditStop'
p219
g7
sS'AuditReinitialize'
p220
g7
sS'SuppressCheck'
p221
g7
sS'IgnoreDicts'
p222
g12
ssS'AthDictLoaderSvc'
p223
(dp224
S'AuditInitialize'
p225
g7
sS'OutputLevel'
p226
S'0'
sS'AuditServices'
p227
g7
sS'AuditStart'
p228
g7
sS'DoRecursiveLoad'
p229
g12
sS'AuditFinalize'
p230
g7
sS'AuditStop'
p231
g7
sS'AuditReinitialize'
p232
g7
sS'AuditRestart'
p233
g7
ss.(lp1
.