ccollections
defaultdict
p1
(c__builtin__
dict
p2
tRp3
S'StoreGateSvc'
p4
(dp5
S'IncidentSvc'
p6
S'IncidentSvc'
p7
sS'ProxyProviderSvc'
p8
S'ProxyProviderSvc'
p9
ssS'ChronoStatSvc'
p10
(dp11
S'HiveWhiteBoardSvc'
p12
S'EventDataSvc'
p13
ssS'AthBeginSeq'
p14
(dp15
S'ExtraOutputs'
p16
S'[]'
p17
sS'EvtStore'
p18
S'StoreGateSvc'
p19
sS'ExtraInputs'
p20
S'[]'
p21
sS'Sequential'
p22
S'True'
p23
sS'Members'
p24
S"['AthIncFirerAlg/BeginIncFiringAlg', 'IncidentProcAlg/IncidentProcAlg1']"
p25
sS'NeededResources'
p26
S'[]'
p27
sS'DetStore'
p28
S'StoreGateSvc/DetectorStore'
p29
ssS'CoreDumpSvc'
p30
(dp31
S'Signals'
p32
S'[11, 7, 4, 8]'
p33
sS'FatalHandler'
p34
S'-1'
p35
ssS'AuditorSvc'
p36
(dp37
S'Auditors'
p38
S"['AlgContextAuditor/AlgContextAuditor']"
p39
ssS'ClassIDSvc'
p40
(dp41
S'CLIDDBFiles'
p42
S"['clid.db', 'Gaudi_clid.db']"
p43
ssS'AthOutSeq'
p44
(dp45
S'ExtraOutputs'
p46
S'[]'
p47
sS'EvtStore'
p48
S'StoreGateSvc'
p49
sS'ExtraInputs'
p50
S'[]'
p51
sS'StopOverride'
p52
S'True'
p53
sS'Members'
p54
S'[]'
p55
sS'NeededResources'
p56
S'[]'
p57
sS'DetStore'
p58
S'StoreGateSvc/DetectorStore'
p59
ssS'BeginIncFiringAlg'
p60
(dp61
S'ExtraOutputs'
p62
S'[]'
p63
sS'EvtStore'
p64
S'StoreGateSvc'
p65
sS'ExtraInputs'
p66
S'[]'
p67
sS'FireSerial'
p68
S'False'
p69
sS'Incidents'
p70
S"['BeginEvent']"
p71
sS'NeededResources'
p72
S'[]'
p73
sS'DetStore'
p74
S'StoreGateSvc/DetectorStore'
p75
ssS'AthCondSeq'
p76
(dp77
S'ExtraOutputs'
p78
S'[]'
p79
sS'EvtStore'
p80
S'StoreGateSvc'
p81
sS'ExtraInputs'
p82
S'[]'
p83
sS'StopOverride'
p84
S'True'
p85
sS'Members'
p86
S'[]'
p87
sS'NeededResources'
p88
S'[]'
p89
sS'DetStore'
p90
S'StoreGateSvc/DetectorStore'
p91
ssS'AthMasterSeq'
p92
(dp93
S'ExtraOutputs'
p94
S'[]'
p95
sS'EvtStore'
p96
S'StoreGateSvc'
p97
sS'ExtraInputs'
p98
S'[]'
p99
sS'Sequential'
p100
S'True'
p101
sS'Members'
p102
S"['AthSequencer/AthAlgEvtSeq', 'AthSequencer/AthOutSeq', 'AthSequencer/AthRegSeq']"
p103
sS'NeededResources'
p104
S'[]'
p105
sS'DetStore'
p106
S'StoreGateSvc/DetectorStore'
p107
ssS'AthAlgEvtSeq'
p108
(dp109
S'ExtraOutputs'
p110
S'[]'
p111
sS'EvtStore'
p112
S'StoreGateSvc'
p113
sS'ExtraInputs'
p114
S'[]'
p115
sS'Sequential'
p116
S'True'
p117
sS'StopOverride'
p118
S'True'
p119
sS'Members'
p120
S"['AthSequencer/AthBeginSeq', 'AthSequencer/AthAllAlgSeq', 'AthSequencer/AthEndSeq']"
p121
sS'NeededResources'
p122
S'[]'
p123
sS'DetStore'
p124
S'StoreGateSvc/DetectorStore'
p125
ssS'AthEndSeq'
p126
(dp127
S'ExtraOutputs'
p128
S'[]'
p129
sS'EvtStore'
p130
S'StoreGateSvc'
p131
sS'ExtraInputs'
p132
S'[]'
p133
sS'Sequential'
p134
S'True'
p135
sS'Members'
p136
S"['AthIncFirerAlg/EndIncFiringAlg', 'IncidentProcAlg/IncidentProcAlg2']"
p137
sS'NeededResources'
p138
S'[]'
p139
sS'DetStore'
p140
S'StoreGateSvc/DetectorStore'
p141
ssS'AthRegSeq'
p142
(dp143
S'ExtraOutputs'
p144
S'[]'
p145
sS'EvtStore'
p146
S'StoreGateSvc'
p147
sS'ExtraInputs'
p148
S'[]'
p149
sS'StopOverride'
p150
S'True'
p151
sS'Members'
p152
S'[]'
p153
sS'NeededResources'
p154
S'[]'
p155
sS'DetStore'
p156
S'StoreGateSvc/DetectorStore'
p157
ssS'EndIncFiringAlg'
p158
(dp159
S'ExtraOutputs'
p160
S'[]'
p161
sS'EvtStore'
p162
S'StoreGateSvc'
p163
sS'ExtraInputs'
p164
S'[]'
p165
sS'FireSerial'
p166
S'False'
p167
sS'Incidents'
p168
S"['EndEvent']"
p169
sS'NeededResources'
p170
S'[]'
p171
sS'DetStore'
p172
S'StoreGateSvc/DetectorStore'
p173
ssS'Streams'
p174
(dp175
S'ExtraOutputs'
p176
S'[]'
p177
sS'EvtStore'
p178
S'StoreGateSvc'
p179
sS'ExtraInputs'
p180
S'[]'
p181
sS'Members'
p182
S'[]'
p183
sS'NeededResources'
p184
S'[]'
p185
sS'DetStore'
p186
S'StoreGateSvc/DetectorStore'
p187
ssS'NTupleSvc'
p188
(dp189
S'InhibitPathes'
p190
S'[]'
p191
sS'Input'
p192
S'[]'
p193
sS'Output'
p194
S'[]'
p195
ssS'EventPersistencySvc'
p196
(dp197
S'CnvServices'
p198
S'[]'
p199
ssS'AthAlgSeq'
p200
(dp201
S'ExtraOutputs'
p202
S'[]'
p203
sS'Members'
p204
S'[]'
p205
sS'EvtStore'
p206
S'StoreGateSvc'
p207
sS'ExtraInputs'
p208
S'[]'
p209
sS'StopOverride'
p210
S'True'
p211
sS'IgnoreFilterPassed'
p212
S'True'
p213
sS'NeededResources'
p214
S'[]'
p215
sS'DetStore'
p216
S'StoreGateSvc/DetectorStore'
p217
ssS'AthAllAlgSeq'
p218
(dp219
S'ExtraOutputs'
p220
S'[]'
p221
sS'EvtStore'
p222
S'StoreGateSvc'
p223
sS'ExtraInputs'
p224
S'[]'
p225
sS'StopOverride'
p226
S'True'
p227
sS'Members'
p228
S"['AthSequencer/AthCondSeq', 'AthSequencer/AthAlgSeq']"
p229
sS'NeededResources'
p230
S'[]'
p231
sS'DetStore'
p232
S'StoreGateSvc/DetectorStore'
p233
ssS'IncidentProcAlg1'
p234
(dp235
S'ExtraOutputs'
p236
S'[]'
p237
sS'NeededResources'
p238
S'[]'
p239
sS'ExtraInputs'
p240
S'[]'
p241
ssS'IncidentProcAlg2'
p242
(dp243
S'ExtraOutputs'
p244
S'[]'
p245
sS'NeededResources'
p246
S'[]'
p247
sS'ExtraInputs'
p248
S'[]'
p249
ssS'DetectorStore'
p250
(dp251
S'IncidentSvc'
p252
S'IncidentSvc'
p253
sS'ProxyProviderSvc'
p254
S'ProxyProviderSvc'
p255
ssS'ConditionStore'
p256
(dp257
S'IncidentSvc'
p258
S'IncidentSvc'
p259
sS'ProxyProviderSvc'
p260
S'ProxyProviderSvc'
p261
ssS'HistogramDataSvc'
p262
(dp263
S'Input'
p264
S'[]'
p265
sS'InhibitPathes'
p266
S'[]'
p267
ssS'HistoryStore'
p268
(dp269
S'IncidentSvc'
p270
S'IncidentSvc'
p271
sS'ProxyProviderSvc'
p272
S'ProxyProviderSvc'
p273
ss.ccollections
defaultdict
p1
(c__builtin__
dict
p2
tRp3
S'CoreDumpSvc'
p4
(dp5
S'Signals'
p6
S'[11, 7, 4, 8]'
p7
sS'FatalHandler'
p8
S'-1'
p9
ssS'ApplicationMgr'
p10
(dp11
S'Runable'
p12
S'AppMgrRunable'
p13
sS'ReturnCode'
p14
S'0'
sS'TopAlg'
p15
S"['AthSequencer/AthMasterSeq']"
p16
sS'PrintAlgsSequence'
p17
S'False'
p18
sS'EventLoop'
p19
S'AthenaEventLoopMgr'
p20
sS'ExtSvcCreates'
p21
g18
sS'Environment'
p22
S'{}'
p23
sS'JobOptionsPath'
p24
S''
sS'Dlls'
p25
S'[]'
p26
sS'SvcMapping'
p27
S"['EvtDataSvc/EventDataSvc', 'DetDataSvc/DetectorDataSvc', 'HistogramSvc/HistogramDataSvc', 'HbookCnv::PersSvc/HbookHistSvc', 'RootHistCnv::PersSvc/RootHistSvc', 'EvtPersistencySvc/EventPersistencySvc', 'DetPersistencySvc/DetectorPersistencySvc', 'HistogramPersistencySvc/HistogramPersistencySvc']"
p28
sS'AppName'
p29
S'ApplicationMgr'
p30
sS'AuditServices'
p31
g18
sS'OutStream'
p32
S'[]'
p33
sS'ActivateHistory'
p34
g18
sS'StalledEventMonitoring'
p35
g18
sS'InitializationLoopCheck'
p36
g18
sS'JobOptionsSvcType'
p37
S'JobOptionsSvc'
p38
sS'JobOptionsPreAction'
p39
S''
sS'StatusCodeCheck'
p40
g18
sS'AuditTools'
p41
g18
sS'AlgTypeAliases'
p42
S'{}'
p43
sS'EvtSel'
p44
S''
sS'PluginDebugLevel'
p45
S'0'
sS'OutputLevel'
p46
S'3'
sS'AppVersion'
p47
S''
sS'EvtMax'
p48
S'-1'
p49
sS'SvcOptMapping'
p50
S'[]'
p51
sS'CreateSvc'
p52
S"['ToolSvc/ToolSvc', 'AthDictLoaderSvc/AthDictLoaderSvc', 'CoreDumpSvc/CoreDumpSvc']"
p53
sS'PropertiesPrint'
p54
g18
sS'JobOptionsType'
p55
S'NONE'
p56
sS'OutStreamType'
p57
S'AthenaOutputStream'
p58
sS'StopOnSignal'
p59
g18
sS'ExtSvc'
p60
S"['ToolSvc/ToolSvc', 'AuditorSvc/AuditorSvc', 'MessageSvc/MessageSvc', 'IncidentSvc/IncidentSvc', 'EvtPersistencySvc/EventPersistencySvc', 'HistogramSvc/HistogramDataSvc', 'NTupleSvc/NTupleSvc', 'RndmGenSvc/RndmGenSvc', 'ChronoStatSvc/ChronoStatSvc', 'StoreGateSvc/StoreGateSvc', 'StoreGateSvc/DetectorStore', 'StoreGateSvc/HistoryStore', 'StoreGateSvc/ConditionStore', 'ClassIDSvc/ClassIDSvc', 'AthDictLoaderSvc/AthDictLoaderSvc', 'CoreDumpSvc/CoreDumpSvc', 'JobOptionsSvc/JobOptionsSvc']"
p61
sS'AuditAlgorithms'
p62
g18
sS'HistogramPersistency'
p63
S'NONE'
p64
sS'MessageSvcType'
p65
S'MessageSvc'
p66
sS'JobOptionsPostAction'
p67
S''
ssS'MessageSvc'
p68
(dp69
S'verboseColorCode'
p70
S'[]'
p71
sS'setInfo'
p72
S'[]'
p73
sS'tracedInactiveSources'
p74
S'[]'
p75
sS'setAlways'
p76
S'[]'
p77
sS'debugColorCode'
p78
S'[]'
p79
sS'alwaysColorCode'
p80
S'[]'
p81
sS'enableSuppression'
p82
S'True'
p83
sS'OutputLevel'
p84
S'3'
sS'warningColorCode'
p85
S"['yellow']"
p86
sS'errorColorCode'
p87
S"['white', 'red']"
p88
sS'setVerbose'
p89
S'[]'
p90
sS'infoColorCode'
p91
S'[]'
p92
sS'setDebug'
p93
S'[]'
p94
sS'setFatal'
p95
S'[]'
p96
sS'setError'
p97
S'[]'
p98
sS'fatalColorCode'
p99
S"['blue', 'red']"
p100
sS'setWarning'
p101
S'[]'
p102
ss.(lp1
.