ccollections
defaultdict
p1
(c__builtin__
dict
p2
tRp3
S'StoreGateSvc'
p4
(dp5
S'IncidentSvc'
p6
S'IncidentSvc'
p7
sS'ProxyProviderSvc'
p8
S'ProxyProviderSvc'
p9
ssS'ChronoStatSvc'
p10
(dp11
S'HiveWhiteBoardSvc'
p12
S'EventDataSvc'
p13
ssS'AthBeginSeq'
p14
(dp15
S'ExtraOutputs'
p16
S'[]'
p17
sS'EvtStore'
p18
S'StoreGateSvc'
p19
sS'ExtraInputs'
p20
S'[]'
p21
sS'Sequential'
p22
S'True'
p23
sS'Members'
p24
S"['AthIncFirerAlg/BeginIncFiringAlg', 'IncidentProcAlg/IncidentProcAlg1']"
p25
sS'NeededResources'
p26
S'[]'
p27
sS'DetStore'
p28
S'StoreGateSvc/DetectorStore'
p29
ssS'CoreDumpSvc'
p30
(dp31
S'Signals'
p32
S'[11, 7, 4, 8]'
p33
sS'FatalHandler'
p34
S'-1'
p35
ssS'AuditorSvc'
p36
(dp37
S'Auditors'
p38
S"['AlgContextAuditor/AlgContextAuditor']"
p39
ssS'ClassIDSvc'
p40
(dp41
S'CLIDDBFiles'
p42
S"['clid.db', 'Gaudi_clid.db']"
p43
ssS'AthOutSeq'
p44
(dp45
S'ExtraOutputs'
p46
S'[]'
p47
sS'EvtStore'
p48
S'StoreGateSvc'
p49
sS'ExtraInputs'
p50
S'[]'
p51
sS'StopOverride'
p52
S'True'
p53
sS'Members'
p54
S'[]'
p55
sS'NeededResources'
p56
S'[]'
p57
sS'DetStore'
p58
S'StoreGateSvc/DetectorStore'
p59
ssS'BeginIncFiringAlg'
p60
(dp61
S'ExtraOutputs'
p62
S'[]'
p63
sS'EvtStore'
p64
S'StoreGateSvc'
p65
sS'ExtraInputs'
p66
S'[]'
p67
sS'FireSerial'
p68
S'False'
p69
sS'Incidents'
p70
S"['BeginEvent']"
p71
sS'NeededResources'
p72
S'[]'
p73
sS'DetStore'
p74
S'StoreGateSvc/DetectorStore'
p75
ssS'AthCondSeq'
p76
(dp77
S'ExtraOutputs'
p78
S'[]'
p79
sS'EvtStore'
p80
S'StoreGateSvc'
p81
sS'ExtraInputs'
p82
S'[]'
p83
sS'StopOverride'
p84
S'True'
p85
sS'Members'
p86
S'[]'
p87
sS'NeededResources'
p88
S'[]'
p89
sS'DetStore'
p90
S'StoreGateSvc/DetectorStore'
p91
ssS'AthMasterSeq'
p92
(dp93
S'ExtraOutputs'
p94
S'[]'
p95
sS'EvtStore'
p96
S'StoreGateSvc'
p97
sS'ExtraInputs'
p98
S'[]'
p99
sS'Sequential'
p100
S'True'
p101
sS'Members'
p102
S"['AthSequencer/AthAlgEvtSeq', 'AthSequencer/AthOutSeq', 'AthSequencer/AthRegSeq']"
p103
sS'NeededResources'
p104
S'[]'
p105
sS'DetStore'
p106
S'StoreGateSvc/DetectorStore'
p107
ssS'AthAlgEvtSeq'
p108
(dp109
S'ExtraOutputs'
p110
S'[]'
p111
sS'EvtStore'
p112
S'StoreGateSvc'
p113
sS'ExtraInputs'
p114
S'[]'
p115
sS'Sequential'
p116
S'True'
p117
sS'StopOverride'
p118
S'True'
p119
sS'Members'
p120
S"['AthSequencer/AthBeginSeq', 'AthSequencer/AthAllAlgSeq', 'AthSequencer/AthEndSeq']"
p121
sS'NeededResources'
p122
S'[]'
p123
sS'DetStore'
p124
S'StoreGateSvc/DetectorStore'
p125
ssS'AthEndSeq'
p126
(dp127
S'ExtraOutputs'
p128
S'[]'
p129
sS'EvtStore'
p130
S'StoreGateSvc'
p131
sS'ExtraInputs'
p132
S'[]'
p133
sS'Sequential'
p134
S'True'
p135
sS'Members'
p136
S"['AthIncFirerAlg/EndIncFiringAlg', 'IncidentProcAlg/IncidentProcAlg2']"
p137
sS'NeededResources'
p138
S'[]'
p139
sS'DetStore'
p140
S'StoreGateSvc/DetectorStore'
p141
ssS'AthRegSeq'
p142
(dp143
S'ExtraOutputs'
p144
S'[]'
p145
sS'EvtStore'
p146
S'StoreGateSvc'
p147
sS'ExtraInputs'
p148
S'[]'
p149
sS'StopOverride'
p150
S'True'
p151
sS'Members'
p152
S'[]'
p153
sS'NeededResources'
p154
S'[]'
p155
sS'DetStore'
p156
S'StoreGateSvc/DetectorStore'
p157
ssS'EndIncFiringAlg'
p158
(dp159
S'ExtraOutputs'
p160
S'[]'
p161
sS'EvtStore'
p162
S'StoreGateSvc'
p163
sS'ExtraInputs'
p164
S'[]'
p165
sS'FireSerial'
p166
S'False'
p167
sS'Incidents'
p168
S"['EndEvent']"
p169
sS'NeededResources'
p170
S'[]'
p171
sS'DetStore'
p172
S'StoreGateSvc/DetectorStore'
p173
ssS'Streams'
p174
(dp175
S'ExtraOutputs'
p176
S'[]'
p177
sS'EvtStore'
p178
S'StoreGateSvc'
p179
sS'ExtraInputs'
p180
S'[]'
p181
sS'Members'
p182
S'[]'
p183
sS'NeededResources'
p184
S'[]'
p185
sS'DetStore'
p186
S'StoreGateSvc/DetectorStore'
p187
ssS'NTupleSvc'
p188
(dp189
S'InhibitPathes'
p190
S'[]'
p191
sS'Input'
p192
S'[]'
p193
sS'Output'
p194
S'[]'
p195
ssS'EventPersistencySvc'
p196
(dp197
S'CnvServices'
p198
S'[]'
p199
ssS'AthAlgSeq'
p200
(dp201
S'ExtraOutputs'
p202
S'[]'
p203
sS'IgnoreFilterPassed'
p204
S'True'
p205
sS'EvtStore'
p206
S'StoreGateSvc'
p207
sS'ExtraInputs'
p208
S'[]'
p209
sS'StopOverride'
p210
S'True'
p211
sS'Members'
p212
S'[]'
p213
sS'NeededResources'
p214
S'[]'
p215
sS'DetStore'
p216
S'StoreGateSvc/DetectorStore'
p217
ssS'AthAllAlgSeq'
p218
(dp219
S'ExtraOutputs'
p220
S'[]'
p221
sS'EvtStore'
p222
S'StoreGateSvc'
p223
sS'ExtraInputs'
p224
S'[]'
p225
sS'StopOverride'
p226
S'True'
p227
sS'Members'
p228
S"['AthSequencer/AthCondSeq', 'AthSequencer/AthAlgSeq']"
p229
sS'NeededResources'
p230
S'[]'
p231
sS'DetStore'
p232
S'StoreGateSvc/DetectorStore'
p233
ssS'AthenaSealSvc'
p234
(dp235
S'DictNames'
p236
S'[]'
p237
sS'IgnoreDicts'
p238
S"['libSealCLHEPDict']"
p239
sS'IgnoreNames'
p240
S"['Gaudi', 'GaudiPython::Interface', 'GaudiPython::Helper', 'FactoryTable', 'IInterface', 'IFactory', 'IAlgFactory', 'ISvcFactory', 'IToolFactory', 'InterfaceID', 'StatusCode', 'IAppMgrUI', 'IProperty', 'Property', 'std::vector<Property*>', 'std::vector<const Property*>', 'std::list<IAlgorithm*>', 'std::list<IService*>', 'std::list<const IFactory*>', 'std::vector<IRegistry*>', 'SimpleProperty', 'SimplePropertyRef', 'IService', 'IAlgorithm', 'ISvcManager', 'IAlgManager', 'IJobOptionsSvc', 'ISvcLocator', 'IEventProcessor', 'IDataProviderSvc', 'IDataManagerSvc', 'IRegistry', 'ContainedObject', 'std::vector<const ContainedObject*>', 'DataObject', 'IHistogramSvc', 'AIDA::I', 'Algorithm', 'Service', 'GaudiPython::PyAlgorithm', 'GaudiPython::PyAlgorithmWrap', 'IParticlePropertySvc', 'ParticleProperty', 'StoreGateSvc', 'IStoragePolicy', 'CharDbArray', 'DoubleDbArray', 'FloatDbArray', 'IntDbArray', 'LongDbArray', 'ShortDbArray', 'AthenaEventLoopMgr', 'MinimalEventLoopMgr', 'PyAthenaEventLoopMgr', 'NTuple::Directory', 'NTuple::File ', 'NTuple::Tuple', 'INTuple', 'NTuple::Tuple', 'greater<int>', 'allocator<', 'string']"
p241
ssS'IncidentProcAlg2'
p242
(dp243
S'ExtraOutputs'
p244
S'[]'
p245
sS'NeededResources'
p246
S'[]'
p247
sS'ExtraInputs'
p248
S'[]'
p249
ssS'DetectorStore'
p250
(dp251
S'IncidentSvc'
p252
S'IncidentSvc'
p253
sS'ProxyProviderSvc'
p254
S'ProxyProviderSvc'
p255
ssS'ConditionStore'
p256
(dp257
S'IncidentSvc'
p258
S'IncidentSvc'
p259
sS'ProxyProviderSvc'
p260
S'ProxyProviderSvc'
p261
ssS'IncidentProcAlg1'
p262
(dp263
S'ExtraOutputs'
p264
S'[]'
p265
sS'NeededResources'
p266
S'[]'
p267
sS'ExtraInputs'
p268
S'[]'
p269
ssS'HistogramDataSvc'
p270
(dp271
S'Input'
p272
S'[]'
p273
sS'InhibitPathes'
p274
S'[]'
p275
ssS'HistoryStore'
p276
(dp277
S'IncidentSvc'
p278
S'IncidentSvc'
p279
sS'ProxyProviderSvc'
p280
S'ProxyProviderSvc'
p281
ss.ccollections
defaultdict
p1
(c__builtin__
dict
p2
tRp3
S'StatusCodeSvc'
p4
(dp5
S'Filter'
p6
S"['Reflex::NewDelFunctionsT<StatusCode>::delete_T(void*)', 'ROOT::Reflex::NewDelFunctionsT<StatusCode>::delete_T(void*)']"
p7
sS'OutputLevel'
p8
S'3'
sS'AbortOnError'
p9
S'True'
p10
ssS'AthenaSealSvc'
p11
(dp12
S'DictNames'
p13
S'[]'
p14
sS'IgnoreDicts'
p15
S"['libSealCLHEPDict']"
p16
sS'IgnoreNames'
p17
S"['Gaudi', 'GaudiPython::Interface', 'GaudiPython::Helper', 'FactoryTable', 'IInterface', 'IFactory', 'IAlgFactory', 'ISvcFactory', 'IToolFactory', 'InterfaceID', 'StatusCode', 'IAppMgrUI', 'IProperty', 'Property', 'std::vector<Property*>', 'std::vector<const Property*>', 'std::list<IAlgorithm*>', 'std::list<IService*>', 'std::list<const IFactory*>', 'std::vector<IRegistry*>', 'SimpleProperty', 'SimplePropertyRef', 'IService', 'IAlgorithm', 'ISvcManager', 'IAlgManager', 'IJobOptionsSvc', 'ISvcLocator', 'IEventProcessor', 'IDataProviderSvc', 'IDataManagerSvc', 'IRegistry', 'ContainedObject', 'std::vector<const ContainedObject*>', 'DataObject', 'IHistogramSvc', 'AIDA::I', 'Algorithm', 'Service', 'GaudiPython::PyAlgorithm', 'GaudiPython::PyAlgorithmWrap', 'IParticlePropertySvc', 'ParticleProperty', 'StoreGateSvc', 'IStoragePolicy', 'CharDbArray', 'DoubleDbArray', 'FloatDbArray', 'IntDbArray', 'LongDbArray', 'ShortDbArray', 'AthenaEventLoopMgr', 'MinimalEventLoopMgr', 'PyAthenaEventLoopMgr', 'NTuple::Directory', 'NTuple::File ', 'NTuple::Tuple', 'INTuple', 'NTuple::Tuple', 'greater<int>', 'allocator<', 'string']"
p18
ssS'CoreDumpSvc'
p19
(dp20
S'Signals'
p21
S'[11, 7, 4, 8]'
p22
sS'FatalHandler'
p23
S'-1'
p24
ssS'ApplicationMgr'
p25
(dp26
S'Runable'
p27
S'AppMgrRunable'
p28
sS'ReturnCode'
p29
S'0'
sS'TopAlg'
p30
S"['AthSequencer/AthMasterSeq']"
p31
sS'PrintAlgsSequence'
p32
S'False'
p33
sS'EventLoop'
p34
S'AthenaEventLoopMgr'
p35
sS'ExtSvcCreates'
p36
g33
sS'Environment'
p37
S'{}'
p38
sS'JobOptionsPath'
p39
S''
sS'Dlls'
p40
S'[]'
p41
sS'SvcMapping'
p42
S"['EvtDataSvc/EventDataSvc', 'DetDataSvc/DetectorDataSvc', 'HistogramSvc/HistogramDataSvc', 'HbookCnv::PersSvc/HbookHistSvc', 'RootHistCnv::PersSvc/RootHistSvc', 'EvtPersistencySvc/EventPersistencySvc', 'DetPersistencySvc/DetectorPersistencySvc', 'HistogramPersistencySvc/HistogramPersistencySvc']"
p43
sS'AppName'
p44
S'ApplicationMgr'
p45
sS'AuditServices'
p46
g33
sS'OutStream'
p47
S'[]'
p48
sS'ActivateHistory'
p49
g33
sS'StalledEventMonitoring'
p50
g33
sS'InitializationLoopCheck'
p51
g33
sS'JobOptionsSvcType'
p52
S'JobOptionsSvc'
p53
sS'JobOptionsPreAction'
p54
S''
sS'StatusCodeCheck'
p55
g10
sS'AuditTools'
p56
g33
sS'AlgTypeAliases'
p57
S'{}'
p58
sS'EvtSel'
p59
S''
sS'PluginDebugLevel'
p60
S'0'
sS'OutputLevel'
p61
S'3'
sS'AppVersion'
p62
S''
sS'EvtMax'
p63
S'-1'
p64
sS'SvcOptMapping'
p65
S'[]'
p66
sS'CreateSvc'
p67
S"['ToolSvc/ToolSvc', 'AthDictLoaderSvc/AthDictLoaderSvc', 'AthenaSealSvc/AthenaSealSvc', 'CoreDumpSvc/CoreDumpSvc']"
p68
sS'PropertiesPrint'
p69
g33
sS'JobOptionsType'
p70
S'NONE'
p71
sS'OutStreamType'
p72
S'AthenaOutputStream'
p73
sS'StopOnSignal'
p74
g33
sS'ExtSvc'
p75
S"['ToolSvc/ToolSvc', 'AuditorSvc/AuditorSvc', 'MessageSvc/MessageSvc', 'IncidentSvc/IncidentSvc', 'EvtPersistencySvc/EventPersistencySvc', 'HistogramSvc/HistogramDataSvc', 'NTupleSvc/NTupleSvc', 'RndmGenSvc/RndmGenSvc', 'ChronoStatSvc/ChronoStatSvc', 'StatusCodeSvc/StatusCodeSvc', 'StoreGateSvc/StoreGateSvc', 'StoreGateSvc/DetectorStore', 'StoreGateSvc/HistoryStore', 'StoreGateSvc/ConditionStore', 'ClassIDSvc/ClassIDSvc', 'AthDictLoaderSvc/AthDictLoaderSvc', 'AthenaSealSvc/AthenaSealSvc', 'CoreDumpSvc/CoreDumpSvc', 'JobOptionsSvc/JobOptionsSvc']"
p76
sS'AuditAlgorithms'
p77
g33
sS'HistogramPersistency'
p78
S'NONE'
p79
sS'MessageSvcType'
p80
S'MessageSvc'
p81
sS'JobOptionsPostAction'
p82
S''
ssS'MessageSvc'
p83
(dp84
S'verboseColorCode'
p85
S'[]'
p86
sS'setInfo'
p87
S'[]'
p88
sS'tracedInactiveSources'
p89
S'[]'
p90
sS'setAlways'
p91
S'[]'
p92
sS'debugColorCode'
p93
S'[]'
p94
sS'alwaysColorCode'
p95
S'[]'
p96
sS'enableSuppression'
p97
g10
sg8
S'3'
sS'warningColorCode'
p98
S"['yellow']"
p99
sS'errorColorCode'
p100
S"['white', 'red']"
p101
sS'setVerbose'
p102
S'[]'
p103
sS'infoColorCode'
p104
S'[]'
p105
sS'setDebug'
p106
S'[]'
p107
sS'setFatal'
p108
S'[]'
p109
sS'setError'
p110
S'[]'
p111
sS'fatalColorCode'
p112
S"['blue', 'red']"
p113
sS'setWarning'
p114
S'[]'
p115
ss.(lp1
.