ccollections
defaultdict
p1
(c__builtin__
dict
p2
tRp3
S'StoreGateSvc'
p4
(dp5
S'IncidentSvc'
p6
S'IncidentSvc'
p7
sS'ProxyProviderSvc'
p8
S'ProxyProviderSvc'
p9
ssS'ChronoStatSvc'
p10
(dp11
S'HiveWhiteBoardSvc'
p12
S'EventDataSvc'
p13
ssS'EventDataSvc'
p14
(dp15
S'HiveStoreSvc'
p16
S'StoreGateSvc'
p17
sS'NSlots'
p18
S'1'
ssS'AthBeginSeq'
p19
(dp20
S'ExtraOutputs'
p21
S'[]'
p22
sS'EvtStore'
p23
S'StoreGateSvc'
p24
sS'ExtraInputs'
p25
S'[]'
p26
sS'Sequential'
p27
S'True'
p28
sS'Members'
p29
S"['AthIncFirerAlg/BeginIncFiringAlg', 'IncidentProcAlg/IncidentProcAlg1']"
p30
sS'NeededResources'
p31
S'[]'
p32
sS'DetStore'
p33
S'StoreGateSvc/DetectorStore'
p34
ssS'TimelineSvc'
p35
(dp36
S'RecordTimeline'
p37
S'True'
p38
sS'Partial'
p39
S'False'
p40
ssS'AvalancheSchedulerSvc'
p41
(dp42
S'ThreadPoolSize'
p43
S'1'
sS'OutputLevel'
p44
S'3'
sS'DataLoaderAlg'
p45
S'SGInputLoader'
p46
sS'ShowControlFlow'
p47
S'False'
p48
sS'CheckDependencies'
p49
S'True'
p50
sS'ShowDataDependencies'
p51
S'False'
p52
ssS'SGInputLoader'
p53
(dp54
S'Load'
p55
S'[]'
p56
sS'ExtraOutputs'
p57
S'[]'
p58
sS'FailIfNoProxy'
p59
S'False'
p60
sS'EvtStore'
p61
S'StoreGateSvc'
p62
sS'ExtraInputs'
p63
S'[]'
p64
sS'NeededResources'
p65
S'[]'
p66
sS'DetStore'
p67
S'StoreGateSvc/DetectorStore'
p68
ssS'CoreDumpSvc'
p69
(dp70
S'Signals'
p71
S'[11, 7, 4, 8]'
p72
ssS'JobOptionsSvc'
p73
(dp74
S'SEARCHPATH'
p75
S'.:/afs/cern.ch/user/s/ssnyder/atlas-work3g/build-x86_64-centos7-gcc8-opt/x86_64-centos7-gcc8-opt/jobOptions:/cvmfs/atlas-nightlies.cern.ch/repo/sw/master--py2_Athena_x86_64-centos7-gcc8-opt/2020-08-14T2101/GAUDI/22.0.18/InstallArea/x86_64-centos7-gcc8-opt/jobOptions:/afs/cern.ch/user/s/ssnyder/atlas-work3g:/cvmfs/atlas-nightlies.cern.ch/repo/sw/master--py2_Athena_x86_64-centos7-gcc8-opt/2020-08-14T2101/Athena/22.0.18/InstallArea/x86_64-centos7-gcc8-opt/jobOptions:/cvmfs/atlas-nightlies.cern.ch/repo/sw/master--py2_Athena_x86_64-centos7-gcc8-opt/2020-08-14T2101/AthenaExternals/22.0.18/InstallArea/x86_64-centos7-gcc8-opt/jobOptions'
p76
sS'AuditStart'
p77
S'False'
p78
sS'AuditInitialize'
p79
S'False'
p80
sS'OutputLevel'
p81
S'3'
sS'AuditServices'
p82
S'False'
p83
sS'AuditStop'
p84
S'False'
p85
sS'GlobalDefaults'
p86
S'[  ]'
p87
sS'DUMPFILE'
p88
S''
sS'AuditFinalize'
p89
S'False'
p90
sS'PYTHONPARAMS'
p91
S''
sS'AuditReinitialize'
p92
S'False'
p93
sS'PATH'
p94
S'../options/job.opts'
p95
sS'ReportUnused'
p96
S'False'
p97
sS'PYTHONACTION'
p98
S''
sS'TYPE'
p99
S'NONE'
p100
sS'AuditRestart'
p101
S'False'
p102
ssS'AuditorSvc'
p103
(dp104
S'Auditors'
p105
S"['AlgContextAuditor/AlgContextAuditor', 'SGCommitAuditor/SGCommitAuditor']"
p106
ssS'ClassIDSvc'
p107
(dp108
S'CLIDDBFiles'
p109
S"['clid.db', 'Gaudi_clid.db']"
p110
ssS'AthOutSeq'
p111
(dp112
S'ExtraOutputs'
p113
S'[]'
p114
sS'EvtStore'
p115
S'StoreGateSvc'
p116
sS'ExtraInputs'
p117
S'[]'
p118
sS'StopOverride'
p119
S'True'
p120
sS'Members'
p121
S'[]'
p122
sS'NeededResources'
p123
S'[]'
p124
sS'DetStore'
p125
S'StoreGateSvc/DetectorStore'
p126
ssS'BeginIncFiringAlg'
p127
(dp128
S'ExtraOutputs'
p129
S'[]'
p130
sS'EvtStore'
p131
S'StoreGateSvc'
p132
sS'ExtraInputs'
p133
S'[]'
p134
sS'FireSerial'
p135
S'False'
p136
sS'Incidents'
p137
S"['BeginEvent']"
p138
sS'NeededResources'
p139
S'[]'
p140
sS'DetStore'
p141
S'StoreGateSvc/DetectorStore'
p142
ssS'AthCondSeq'
p143
(dp144
S'ExtraOutputs'
p145
S'[]'
p146
sS'EvtStore'
p147
S'StoreGateSvc'
p148
sS'ExtraInputs'
p149
S'[]'
p150
sS'StopOverride'
p151
S'True'
p152
sS'Members'
p153
S'[]'
p154
sS'NeededResources'
p155
S'[]'
p156
sS'DetStore'
p157
S'StoreGateSvc/DetectorStore'
p158
ssS'AthMasterSeq'
p159
(dp160
S'ExtraOutputs'
p161
S'[]'
p162
sS'EvtStore'
p163
S'StoreGateSvc'
p164
sS'ExtraInputs'
p165
S'[]'
p166
sS'Sequential'
p167
S'True'
p168
sS'Members'
p169
S"['AthSequencer/AthAlgEvtSeq', 'AthSequencer/AthOutSeq']"
p170
sS'NeededResources'
p171
S'[]'
p172
sS'DetStore'
p173
S'StoreGateSvc/DetectorStore'
p174
ssS'AthAlgEvtSeq'
p175
(dp176
S'ExtraOutputs'
p177
S'[]'
p178
sS'EvtStore'
p179
S'StoreGateSvc'
p180
sS'ExtraInputs'
p181
S'[]'
p182
sS'Sequential'
p183
S'True'
p184
sS'StopOverride'
p185
S'True'
p186
sS'Members'
p187
S"['AthSequencer/AthBeginSeq', 'AthSequencer/AthAllAlgSeq', 'AthSequencer/AthEndSeq']"
p188
sS'NeededResources'
p189
S'[]'
p190
sS'DetStore'
p191
S'StoreGateSvc/DetectorStore'
p192
ssS'AthEndSeq'
p193
(dp194
S'ExtraOutputs'
p195
S'[]'
p196
sS'EvtStore'
p197
S'StoreGateSvc'
p198
sS'ExtraInputs'
p199
S'[]'
p200
sS'Sequential'
p201
S'True'
p202
sS'Members'
p203
S"['AthIncFirerAlg/EndIncFiringAlg', 'IncidentProcAlg/IncidentProcAlg2']"
p204
sS'NeededResources'
p205
S'[]'
p206
sS'DetStore'
p207
S'StoreGateSvc/DetectorStore'
p208
ssS'AlgResourcePool'
p209
(dp210
S'OutputLevel'
p211
S'3'
sS'TopAlg'
p212
S"['AthMasterSeq']"
p213
ssS'EndIncFiringAlg'
p214
(dp215
S'ExtraOutputs'
p216
S'[]'
p217
sS'EvtStore'
p218
S'StoreGateSvc'
p219
sS'FireSerial'
p220
S'False'
p221
sS'ExtraInputs'
p222
S'[]'
p223
sS'Incidents'
p224
S"['EndEvent']"
p225
sS'NeededResources'
p226
S'[]'
p227
sS'DetStore'
p228
S'StoreGateSvc/DetectorStore'
p229
ssS'Streams'
p230
(dp231
S'ExtraOutputs'
p232
S'[]'
p233
sS'EvtStore'
p234
S'StoreGateSvc'
p235
sS'ExtraInputs'
p236
S'[]'
p237
sS'Members'
p238
S'[]'
p239
sS'NeededResources'
p240
S'[]'
p241
sS'DetStore'
p242
S'StoreGateSvc/DetectorStore'
p243
ssS'NTupleSvc'
p244
(dp245
S'InhibitPathes'
p246
S'[]'
p247
sS'Input'
p248
S'[]'
p249
sS'Output'
p250
S'[]'
p251
ssS'EventPersistencySvc'
p252
(dp253
S'CnvServices'
p254
S'[]'
p255
ssS'AthAlgSeq'
p256
(dp257
S'ExtraOutputs'
p258
S'[]'
p259
sS'IgnoreFilterPassed'
p260
S'True'
p261
sS'EvtStore'
p262
S'StoreGateSvc'
p263
sS'ExtraInputs'
p264
S'[]'
p265
sS'StopOverride'
p266
S'True'
p267
sS'Members'
p268
S"['SGInputLoader/SGInputLoader']"
p269
sS'NeededResources'
p270
S'[]'
p271
sS'DetStore'
p272
S'StoreGateSvc/DetectorStore'
p273
ssS'AthAllAlgSeq'
p274
(dp275
S'ExtraOutputs'
p276
S'[]'
p277
sS'EvtStore'
p278
S'StoreGateSvc'
p279
sS'ExtraInputs'
p280
S'[]'
p281
sS'StopOverride'
p282
S'True'
p283
sS'Members'
p284
S"['AthSequencer/AthAlgSeq', 'AthSequencer/AthCondSeq']"
p285
sS'NeededResources'
p286
S'[]'
p287
sS'DetStore'
p288
S'StoreGateSvc/DetectorStore'
p289
ssS'IncidentProcAlg1'
p290
(dp291
S'ExtraOutputs'
p292
S'[]'
p293
sS'NeededResources'
p294
S'[]'
p295
sS'ExtraInputs'
p296
S'[]'
p297
ssS'IncidentProcAlg2'
p298
(dp299
S'ExtraOutputs'
p300
S'[]'
p301
sS'NeededResources'
p302
S'[]'
p303
sS'ExtraInputs'
p304
S'[]'
p305
ssS'MessageSvc'
p306
(dp307
S'fatalColorCode'
p308
S"[ 'blue' , 'red' ]"
p309
sS'verboseColorCode'
p310
S'[  ]'
p311
sS'defaultLimit'
p312
S'0'
sS'enableSuppression'
p313
S'True'
p314
sS'errorColorCode'
p315
S"[ 'white' , 'red' ]"
p316
sS'alwaysLimit'
p317
S'0'
sS'showStats'
p318
S'False'
p319
sS'AuditReinitialize'
p320
S'False'
p321
sS'setFatal'
p322
S'[  ]'
p323
sS'infoLimit'
p324
S'0'
sS'errorLimit'
p325
S'0'
sS'AuditRestart'
p326
S'False'
p327
sS'Format'
p328
S'% F%40W%S%4W%R%e%s%8W%R%T %0W%M'
p329
sS'AuditServices'
p330
S'False'
p331
sS'AuditInitialize'
p332
S'False'
p333
sS'AuditFinalize'
p334
S'False'
p335
sS'setInfo'
p336
S'[  ]'
p337
sS'setAlways'
p338
S'[  ]'
p339
sS'debugColorCode'
p340
S'[  ]'
p341
sS'alwaysColorCode'
p342
S'[  ]'
p343
sS'warningLimit'
p344
S'0'
sS'useColors'
p345
S'False'
p346
sS'OutputLevel'
p347
S'3'
sS'countInactive'
p348
S'False'
p349
sS'AuditStop'
p350
S'False'
p351
sS'setDebug'
p352
S'[  ]'
p353
sS'timeFormat'
p354
S'%Y-%m-%d %H:%M:%S,%f'
p355
sS'fatalLimit'
p356
S'0'
sS'setError'
p357
S'[  ]'
p358
sS'loggedStreams'
p359
S'{  }'
p360
sS'tracedInactiveSources'
p361
S'[  ]'
p362
sS'setVerbose'
p363
S'[  ]'
p364
sS'statLevel'
p365
S'0'
sS'verboseLimit'
p366
S'0'
sS'debugLimit'
p367
S'0'
sS'AuditStart'
p368
S'False'
p369
sS'infoColorCode'
p370
S'[  ]'
p371
sS'warningColorCode'
p372
S"[ 'yellow' ]"
p373
sS'setWarning'
p374
S'[  ]'
p375
ssS'DetectorStore'
p376
(dp377
S'IncidentSvc'
p378
S'IncidentSvc'
p379
sS'ProxyProviderSvc'
p380
S'ProxyProviderSvc'
p381
ssS'ConditionStore'
p382
(dp383
S'IncidentSvc'
p384
S'IncidentSvc'
p385
sS'ProxyProviderSvc'
p386
S'ProxyProviderSvc'
p387
ssS'ApplicationMgr'
p388
(dp389
S'Runable'
p390
S'AppMgrRunable'
p391
sS'ReturnCode'
p392
S'0'
sS'TopAlg'
p393
S"[ 'AthSequencer/AthMasterSeq' ]"
p394
sS'PrintAlgsSequence'
p395
S'False'
p396
sS'EventLoop'
p397
S'AthenaHiveEventLoopMgr'
p398
sS'ExtSvcCreates'
p399
S'False'
p400
sS'Environment'
p401
S'{  }'
p402
sS'Exit'
p403
S'0'
sS'ActivateHistory'
p404
S'False'
p405
sS'SvcMapping'
p406
S"[ 'EvtDataSvc/EventDataSvc' , 'DetDataSvc/DetectorDataSvc' , 'HistogramSvc/HistogramDataSvc' , 'HbookCnv::PersSvc/HbookHistSvc' , 'RootHistCnv::PersSvc/RootHistSvc' , 'EvtPersistencySvc/EventPersistencySvc' , 'DetPersistencySvc/DetectorPersistencySvc' , 'HistogramPersistencySvc/HistogramPersistencySvc' ]"
p407
sS'AppName'
p408
S'ApplicationMgr'
p409
sS'AuditServices'
p410
S'False'
p411
sS'OutStream'
p412
S'[  ]'
p413
sS'JobOptionsPath'
p414
S''
sS'StalledEventMonitoring'
p415
S'False'
p416
sS'InitializationLoopCheck'
p417
S'False'
p418
sS'JobOptionsSvcType'
p419
S'JobOptionsSvc'
p420
sS'JobOptionsPreAction'
p421
S''
sS'StatusCodeCheck'
p422
S'False'
p423
sS'CreateSvc'
p424
S"[ 'ToolSvc/ToolSvc' , 'AthDictLoaderSvc/AthDictLoaderSvc' , 'CoreDumpSvc/CoreDumpSvc' ]"
p425
sS'AuditTools'
p426
S'False'
p427
sS'AlgTypeAliases'
p428
S'{  }'
p429
sS'EvtSel'
p430
S''
sS'PluginDebugLevel'
p431
S'0'
sS'OutputLevel'
p432
S'3'
sS'EvtMax'
p433
S'-1'
p434
sS'AppVersion'
p435
S''
sS'Go'
p436
S'0'
sS'HistogramPersistency'
p437
S'NONE'
p438
sS'PropertiesPrint'
p439
S'False'
p440
sS'JobOptionsType'
p441
S'NONE'
p442
sS'OutStreamType'
p443
S'AthenaOutputStream'
p444
sS'StopOnSignal'
p445
S'False'
p446
sS'ExtSvc'
p447
S"[ 'ToolSvc/ToolSvc' , 'AuditorSvc/AuditorSvc' , 'MessageSvc/MessageSvc' , 'IncidentSvc/IncidentSvc' , 'EvtPersistencySvc/EventPersistencySvc' , 'HistogramSvc/HistogramDataSvc' , 'NTupleSvc/NTupleSvc' , 'RndmGenSvc/RndmGenSvc' , 'ChronoStatSvc/ChronoStatSvc' , 'StoreGateSvc/StoreGateSvc' , 'StoreGateSvc/DetectorStore' , 'StoreGateSvc/HistoryStore' , 'StoreGateSvc/ConditionStore' , 'ClassIDSvc/ClassIDSvc' , 'AthDictLoaderSvc/AthDictLoaderSvc' , 'CoreDumpSvc/CoreDumpSvc' , 'SG::HiveMgrSvc/EventDataSvc' , 'AlgResourcePool/AlgResourcePool' , 'AvalancheSchedulerSvc/AvalancheSchedulerSvc' , 'AthenaHiveEventLoopMgr/AthenaHiveEventLoopMgr' , 'TimelineSvc/TimelineSvc' , 'JobOptionsSvc/JobOptionsSvc' ]"
p448
sS'AuditAlgorithms'
p449
S'True'
p450
sS'Dlls'
p451
S'[  ]'
p452
sS'SvcOptMapping'
p453
S'[  ]'
p454
sS'MessageSvcType'
p455
S'InertMessageSvc'
p456
sS'JobOptionsPostAction'
p457
S''
ssS'HistogramDataSvc'
p458
(dp459
S'Input'
p460
S'[]'
p461
sS'InhibitPathes'
p462
S'[]'
p463
ssS'HistoryStore'
p464
(dp465
S'IncidentSvc'
p466
S'IncidentSvc'
p467
sS'ProxyProviderSvc'
p468
S'ProxyProviderSvc'
p469
ss.ccollections
defaultdict
p1
(c__builtin__
dict
p2
tRp3
S'JobOptionsSvc'
p4
(dp5
S'GlobalDefaults'
p6
S'[]'
p7
ssS'AthenaHiveEventLoopMgr'
p8
(dp9
S'TopAlg'
p10
S'[]'
p11
sS'OutStream'
p12
S'[]'
p13
sS'EventStore'
p14
S'StoreGateSvc'
p15
sS'SchedulerSvc'
p16
S'AvalancheSchedulerSvc'
p17
sS'WhiteboardSvc'
p18
S'EventDataSvc'
p19
sS'PreSelectTools'
p20
S'[]'
p21
ssS'CoreDumpSvc'
p22
(dp23
S'Signals'
p24
S'[11, 7, 4, 8]'
p25
ssS'ApplicationMgr'
p26
(dp27
S'Runable'
p28
S'AppMgrRunable'
p29
sS'ReturnCode'
p30
S'0'
sS'TopAlg'
p31
S"['AthSequencer/AthMasterSeq']"
p32
sS'PrintAlgsSequence'
p33
S'False'
p34
sS'EventLoop'
p35
S'AthenaHiveEventLoopMgr'
p36
sS'ExtSvcCreates'
p37
g34
sS'Environment'
p38
S'{}'
p39
sS'JobOptionsPath'
p40
S''
sS'Dlls'
p41
S'[]'
p42
sS'SvcMapping'
p43
S"['EvtDataSvc/EventDataSvc', 'DetDataSvc/DetectorDataSvc', 'HistogramSvc/HistogramDataSvc', 'HbookCnv::PersSvc/HbookHistSvc', 'RootHistCnv::PersSvc/RootHistSvc', 'EvtPersistencySvc/EventPersistencySvc', 'DetPersistencySvc/DetectorPersistencySvc', 'HistogramPersistencySvc/HistogramPersistencySvc']"
p44
sS'AppName'
p45
S'ApplicationMgr'
p46
sS'AuditServices'
p47
g34
sS'OutStream'
p48
S'[]'
p49
sS'ActivateHistory'
p50
g34
sS'StalledEventMonitoring'
p51
g34
sS'InitializationLoopCheck'
p52
g34
sS'JobOptionsSvcType'
p53
S'JobOptionsSvc'
p54
sS'JobOptionsPreAction'
p55
S''
sS'StatusCodeCheck'
p56
g34
sS'AuditTools'
p57
g34
sS'AlgTypeAliases'
p58
S'{}'
p59
sS'EvtSel'
p60
S''
sS'PluginDebugLevel'
p61
S'0'
sS'OutputLevel'
p62
S'3'
sS'AppVersion'
p63
S''
sS'EvtMax'
p64
S'-1'
p65
sS'SvcOptMapping'
p66
S'[]'
p67
sS'CreateSvc'
p68
S"['ToolSvc/ToolSvc', 'AthDictLoaderSvc/AthDictLoaderSvc', 'CoreDumpSvc/CoreDumpSvc']"
p69
sS'PropertiesPrint'
p70
g34
sS'JobOptionsType'
p71
S'NONE'
p72
sS'OutStreamType'
p73
S'AthenaOutputStream'
p74
sS'StopOnSignal'
p75
g34
sS'ExtSvc'
p76
S"['ToolSvc/ToolSvc', 'AuditorSvc/AuditorSvc', 'MessageSvc/MessageSvc', 'IncidentSvc/IncidentSvc', 'EvtPersistencySvc/EventPersistencySvc', 'HistogramSvc/HistogramDataSvc', 'NTupleSvc/NTupleSvc', 'RndmGenSvc/RndmGenSvc', 'ChronoStatSvc/ChronoStatSvc', 'StoreGateSvc/StoreGateSvc', 'StoreGateSvc/DetectorStore', 'StoreGateSvc/HistoryStore', 'StoreGateSvc/ConditionStore', 'ClassIDSvc/ClassIDSvc', 'AthDictLoaderSvc/AthDictLoaderSvc', 'CoreDumpSvc/CoreDumpSvc', 'SG::HiveMgrSvc/EventDataSvc', 'AlgResourcePool/AlgResourcePool', 'AvalancheSchedulerSvc/AvalancheSchedulerSvc', 'AthenaHiveEventLoopMgr/AthenaHiveEventLoopMgr', 'TimelineSvc/TimelineSvc', 'JobOptionsSvc/JobOptionsSvc']"
p77
sS'AuditAlgorithms'
p78
S'True'
p79
sS'HistogramPersistency'
p80
S'NONE'
p81
sS'MessageSvcType'
p82
S'InertMessageSvc'
p83
sS'JobOptionsPostAction'
p84
S''
ssS'MessageSvc'
p85
(dp86
S'verboseColorCode'
p87
S'[]'
p88
sS'alwaysColorCode'
p89
S'[]'
p90
sS'setInfo'
p91
S'[]'
p92
sS'tracedInactiveSources'
p93
S'[]'
p94
sS'setAlways'
p95
S'[]'
p96
sS'Format'
p97
S'% F%40W%S%4W%R%e%s%8W%R%T %0W%M'
p98
sS'defaultLimit'
p99
S'0'
sS'enableSuppression'
p100
g79
sS'OutputLevel'
p101
S'3'
sS'warningColorCode'
p102
S"['yellow']"
p103
sS'errorColorCode'
p104
S"['white', 'red']"
p105
sS'setVerbose'
p106
S'[]'
p107
sS'debugColorCode'
p108
S'[]'
p109
sS'infoColorCode'
p110
S'[]'
p111
sS'setDebug'
p112
S'[]'
p113
sS'setFatal'
p114
S'[]'
p115
sS'setError'
p116
S'[]'
p117
sS'fatalColorCode'
p118
S"['blue', 'red']"
p119
sS'setWarning'
p120
S'[]'
p121
ss.(lp1
.