ccollections
defaultdict
p1
(c__builtin__
dict
p2
tRp3
S'StoreGateSvc'
p4
(dp5
S'IncidentSvc'
p6
S'IncidentSvc'
p7
sS'ProxyProviderSvc'
p8
S'ProxyProviderSvc'
p9
ssS'ChronoStatSvc'
p10
(dp11
S'HiveWhiteBoardSvc'
p12
S'EventDataSvc'
p13
ssS'EventDataSvc'
p14
(dp15
S'HiveStoreSvc'
p16
S'StoreGateSvc'
p17
sS'NSlots'
p18
S'1'
ssS'AthBeginSeq'
p19
(dp20
S'ExtraOutputs'
p21
S'[]'
p22
sS'EvtStore'
p23
S'StoreGateSvc'
p24
sS'ExtraInputs'
p25
S'[]'
p26
sS'Sequential'
p27
S'True'
p28
sS'Members'
p29
S"['AthIncFirerAlg/BeginIncFiringAlg', 'IncidentProcAlg/IncidentProcAlg1']"
p30
sS'NeededResources'
p31
S'[]'
p32
sS'DetStore'
p33
S'StoreGateSvc/DetectorStore'
p34
ssS'TimelineSvc'
p35
(dp36
S'Partial'
p37
S'False'
p38
sS'RecordTimeline'
p39
S'True'
p40
ssS'AvalancheSchedulerSvc'
p41
(dp42
S'ThreadPoolSize'
p43
S'1'
sS'OutputLevel'
p44
S'3'
sS'DataLoaderAlg'
p45
S'SGInputLoader'
p46
sS'ShowControlFlow'
p47
S'False'
p48
sS'CheckDependencies'
p49
S'True'
p50
sS'ShowDataDependencies'
p51
S'False'
p52
ssS'SGInputLoader'
p53
(dp54
S'ExtraOutputs'
p55
S'[]'
p56
sS'Load'
p57
S'[]'
p58
sS'FailIfNoProxy'
p59
S'False'
p60
sS'EvtStore'
p61
S'StoreGateSvc'
p62
sS'ExtraInputs'
p63
S'[]'
p64
sS'NeededResources'
p65
S'[]'
p66
sS'DetStore'
p67
S'StoreGateSvc/DetectorStore'
p68
ssS'CoreDumpSvc'
p69
(dp70
S'Signals'
p71
S'[11, 7, 4, 8]'
p72
sS'FatalHandler'
p73
S'-1'
p74
ssS'AuditorSvc'
p75
(dp76
S'Auditors'
p77
S"['AlgContextAuditor/AlgContextAuditor', 'SGCommitAuditor/SGCommitAuditor']"
p78
ssS'ClassIDSvc'
p79
(dp80
S'CLIDDBFiles'
p81
S"['clid.db', 'Gaudi_clid.db']"
p82
ssS'AthOutSeq'
p83
(dp84
S'ExtraOutputs'
p85
S'[]'
p86
sS'EvtStore'
p87
S'StoreGateSvc'
p88
sS'ExtraInputs'
p89
S'[]'
p90
sS'StopOverride'
p91
S'True'
p92
sS'Members'
p93
S'[]'
p94
sS'NeededResources'
p95
S'[]'
p96
sS'DetStore'
p97
S'StoreGateSvc/DetectorStore'
p98
ssS'BeginIncFiringAlg'
p99
(dp100
S'ExtraOutputs'
p101
S'[]'
p102
sS'EvtStore'
p103
S'StoreGateSvc'
p104
sS'ExtraInputs'
p105
S'[]'
p106
sS'FireSerial'
p107
S'False'
p108
sS'Incidents'
p109
S"['BeginEvent']"
p110
sS'NeededResources'
p111
S'[]'
p112
sS'DetStore'
p113
S'StoreGateSvc/DetectorStore'
p114
ssS'AthCondSeq'
p115
(dp116
S'ExtraOutputs'
p117
S'[]'
p118
sS'EvtStore'
p119
S'StoreGateSvc'
p120
sS'ExtraInputs'
p121
S'[]'
p122
sS'StopOverride'
p123
S'True'
p124
sS'Members'
p125
S'[]'
p126
sS'NeededResources'
p127
S'[]'
p128
sS'DetStore'
p129
S'StoreGateSvc/DetectorStore'
p130
ssS'StatusCodeSvc'
p131
(dp132
S'Filter'
p133
S"['Reflex::NewDelFunctionsT<StatusCode>::delete_T(void*)', 'ROOT::Reflex::NewDelFunctionsT<StatusCode>::delete_T(void*)']"
p134
sS'OutputLevel'
p135
S'3'
sS'AbortOnError'
p136
S'False'
p137
ssS'AthMasterSeq'
p138
(dp139
S'ExtraOutputs'
p140
S'[]'
p141
sS'EvtStore'
p142
S'StoreGateSvc'
p143
sS'ExtraInputs'
p144
S'[]'
p145
sS'Sequential'
p146
S'True'
p147
sS'Members'
p148
S"['AthSequencer/AthAlgEvtSeq', 'AthSequencer/AthOutSeq', 'AthSequencer/AthRegSeq']"
p149
sS'NeededResources'
p150
S'[]'
p151
sS'DetStore'
p152
S'StoreGateSvc/DetectorStore'
p153
ssS'AthAlgEvtSeq'
p154
(dp155
S'ExtraOutputs'
p156
S'[]'
p157
sS'EvtStore'
p158
S'StoreGateSvc'
p159
sS'ExtraInputs'
p160
S'[]'
p161
sS'Sequential'
p162
S'True'
p163
sS'StopOverride'
p164
S'True'
p165
sS'Members'
p166
S"['AthSequencer/AthBeginSeq', 'AthSequencer/AthAllAlgSeq', 'AthSequencer/AthEndSeq']"
p167
sS'NeededResources'
p168
S'[]'
p169
sS'DetStore'
p170
S'StoreGateSvc/DetectorStore'
p171
ssS'AthEndSeq'
p172
(dp173
S'ExtraOutputs'
p174
S'[]'
p175
sS'EvtStore'
p176
S'StoreGateSvc'
p177
sS'ExtraInputs'
p178
S'[]'
p179
sS'Sequential'
p180
S'True'
p181
sS'Members'
p182
S"['AthIncFirerAlg/EndIncFiringAlg', 'IncidentProcAlg/IncidentProcAlg2']"
p183
sS'NeededResources'
p184
S'[]'
p185
sS'DetStore'
p186
S'StoreGateSvc/DetectorStore'
p187
ssS'AlgResourcePool'
p188
(dp189
S'OutputLevel'
p190
S'3'
sS'TopAlg'
p191
S"['AthMasterSeq']"
p192
ssS'AthRegSeq'
p193
(dp194
S'ExtraOutputs'
p195
S'[]'
p196
sS'EvtStore'
p197
S'StoreGateSvc'
p198
sS'ExtraInputs'
p199
S'[]'
p200
sS'StopOverride'
p201
S'True'
p202
sS'Members'
p203
S'[]'
p204
sS'NeededResources'
p205
S'[]'
p206
sS'DetStore'
p207
S'StoreGateSvc/DetectorStore'
p208
ssS'EndIncFiringAlg'
p209
(dp210
S'ExtraOutputs'
p211
S'[]'
p212
sS'EvtStore'
p213
S'StoreGateSvc'
p214
sS'ExtraInputs'
p215
S'[]'
p216
sS'FireSerial'
p217
S'False'
p218
sS'Incidents'
p219
S"['EndEvent']"
p220
sS'NeededResources'
p221
S'[]'
p222
sS'DetStore'
p223
S'StoreGateSvc/DetectorStore'
p224
ssS'Streams'
p225
(dp226
S'ExtraOutputs'
p227
S'[]'
p228
sS'EvtStore'
p229
S'StoreGateSvc'
p230
sS'ExtraInputs'
p231
S'[]'
p232
sS'Members'
p233
S'[]'
p234
sS'NeededResources'
p235
S'[]'
p236
sS'DetStore'
p237
S'StoreGateSvc/DetectorStore'
p238
ssS'NTupleSvc'
p239
(dp240
S'InhibitPathes'
p241
S'[]'
p242
sS'Input'
p243
S'[]'
p244
sS'Output'
p245
S'[]'
p246
ssS'EventPersistencySvc'
p247
(dp248
S'CnvServices'
p249
S'[]'
p250
ssS'AthAlgSeq'
p251
(dp252
S'ExtraOutputs'
p253
S'[]'
p254
sS'IgnoreFilterPassed'
p255
S'True'
p256
sS'EvtStore'
p257
S'StoreGateSvc'
p258
sS'ExtraInputs'
p259
S'[]'
p260
sS'StopOverride'
p261
S'True'
p262
sS'Members'
p263
S"['SGInputLoader/SGInputLoader']"
p264
sS'NeededResources'
p265
S'[]'
p266
sS'DetStore'
p267
S'StoreGateSvc/DetectorStore'
p268
ssS'AthAllAlgSeq'
p269
(dp270
S'ExtraOutputs'
p271
S'[]'
p272
sS'EvtStore'
p273
S'StoreGateSvc'
p274
sS'ExtraInputs'
p275
S'[]'
p276
sS'StopOverride'
p277
S'True'
p278
sS'Members'
p279
S"['AthSequencer/AthAlgSeq', 'AthSequencer/AthCondSeq']"
p280
sS'NeededResources'
p281
S'[]'
p282
sS'DetStore'
p283
S'StoreGateSvc/DetectorStore'
p284
ssS'AthenaSealSvc'
p285
(dp286
S'DictNames'
p287
S'[]'
p288
sS'IgnoreDicts'
p289
S"['libSealCLHEPDict']"
p290
sS'IgnoreNames'
p291
S"['Gaudi', 'GaudiPython::Interface', 'GaudiPython::Helper', 'FactoryTable', 'IInterface', 'IFactory', 'IAlgFactory', 'ISvcFactory', 'IToolFactory', 'InterfaceID', 'StatusCode', 'IAppMgrUI', 'IProperty', 'Property', 'std::vector<Property*>', 'std::vector<const Property*>', 'std::list<IAlgorithm*>', 'std::list<IService*>', 'std::list<const IFactory*>', 'std::vector<IRegistry*>', 'SimpleProperty', 'SimplePropertyRef', 'IService', 'IAlgorithm', 'ISvcManager', 'IAlgManager', 'IJobOptionsSvc', 'ISvcLocator', 'IEventProcessor', 'IDataProviderSvc', 'IDataManagerSvc', 'IRegistry', 'ContainedObject', 'std::vector<const ContainedObject*>', 'DataObject', 'IHistogramSvc', 'AIDA::I', 'Algorithm', 'Service', 'GaudiPython::PyAlgorithm', 'GaudiPython::PyAlgorithmWrap', 'IParticlePropertySvc', 'ParticleProperty', 'StoreGateSvc', 'IStoragePolicy', 'CharDbArray', 'DoubleDbArray', 'FloatDbArray', 'IntDbArray', 'LongDbArray', 'ShortDbArray', 'AthenaEventLoopMgr', 'MinimalEventLoopMgr', 'PyAthenaEventLoopMgr', 'NTuple::Directory', 'NTuple::File ', 'NTuple::Tuple', 'INTuple', 'NTuple::Tuple', 'greater<int>', 'allocator<', 'string']"
p292
ssS'IncidentProcAlg2'
p293
(dp294
S'ExtraOutputs'
p295
S'[]'
p296
sS'NeededResources'
p297
S'[]'
p298
sS'ExtraInputs'
p299
S'[]'
p300
ssS'DetectorStore'
p301
(dp302
S'IncidentSvc'
p303
S'IncidentSvc'
p304
sS'ProxyProviderSvc'
p305
S'ProxyProviderSvc'
p306
ssS'ConditionStore'
p307
(dp308
S'IncidentSvc'
p309
S'IncidentSvc'
p310
sS'ProxyProviderSvc'
p311
S'ProxyProviderSvc'
p312
ssS'IncidentProcAlg1'
p313
(dp314
S'ExtraOutputs'
p315
S'[]'
p316
sS'NeededResources'
p317
S'[]'
p318
sS'ExtraInputs'
p319
S'[]'
p320
ssS'HistogramDataSvc'
p321
(dp322
S'Input'
p323
S'[]'
p324
sS'InhibitPathes'
p325
S'[]'
p326
ssS'HistoryStore'
p327
(dp328
S'IncidentSvc'
p329
S'IncidentSvc'
p330
sS'ProxyProviderSvc'
p331
S'ProxyProviderSvc'
p332
ss.ccollections
defaultdict
p1
(c__builtin__
dict
p2
tRp3
S'CoreDumpSvc'
p4
(dp5
S'AuditInitialize'
p6
S'False'
p7
sS'OutputLevel'
p8
S'0'
sS'AuditServices'
p9
g7
sS'AuditStart'
p10
g7
sS'CallOldHandler'
p11
S'True'
p12
sS'Signals'
p13
S'[11, 7, 4, 8]'
p14
sS'AuditFinalize'
p15
g7
sS'AuditStop'
p16
g7
sS'AuditReinitialize'
p17
g7
sS'TimeOut'
p18
S'1.8e+12'
p19
sS'FatalHandler'
p20
S'0'
sS'AuditRestart'
p21
g7
sS'CoreDumpStream'
p22
S'stdout'
p23
ssS'MessageSvc'
p24
(dp25
S'verboseColorCode'
p26
S'[]'
p27
sS'defaultLimit'
p28
S'0'
sS'enableSuppression'
p29
g12
sS'errorColorCode'
p30
S"['white', 'red']"
p31
sS'alwaysLimit'
p32
S'0'
sS'showStats'
p33
g7
sS'AuditReinitialize'
p34
g7
sS'setFatal'
p35
S'[]'
p36
sS'infoLimit'
p37
S'0'
sS'errorLimit'
p38
S'0'
sS'AuditRestart'
p39
g7
sS'Format'
p40
S'% F%40W%S%4W%e%s%7W%R%T %0W%M'
p41
sS'AuditServices'
p42
g7
sS'alwaysColorCode'
p43
S'[]'
p44
sS'AuditFinalize'
p45
g7
sS'setError'
p46
S'[]'
p47
sS'setInfo'
p48
S'[]'
p49
sS'setAlways'
p50
S'[]'
p51
sS'debugColorCode'
p52
S'[]'
p53
sS'AuditInitialize'
p54
g7
sS'warningLimit'
p55
S'0'
sS'useColors'
p56
g7
sS'OutputLevel'
p57
S'3'
sS'countInactive'
p58
g7
sS'AuditStop'
p59
g7
sS'setDebug'
p60
S'[]'
p61
sS'timeFormat'
p62
S'%Y-%m-%d %H:%M:%S,%f'
p63
sS'fatalLimit'
p64
S'0'
sS'fatalColorCode'
p65
S"['blue', 'red']"
p66
sS'loggedStreams'
p67
S'{}'
p68
sS'tracedInactiveSources'
p69
S'[]'
p70
sS'setVerbose'
p71
S'[]'
p72
sS'statLevel'
p73
S'0'
sS'verboseLimit'
p74
S'0'
sS'debugLimit'
p75
S'0'
sS'AuditStart'
p76
g7
sS'infoColorCode'
p77
S'[]'
p78
sS'setWarning'
p79
S'[]'
p80
sS'warningColorCode'
p81
S"['yellow']"
p82
ssS'AthenaSealSvc'
p83
(dp84
S'UseChronoStag'
p85
g12
sS'AuditInitialize'
p86
g7
sS'AuditServices'
p87
g7
sS'OutputLevel'
p88
S'0'
sS'AuditStart'
p89
g7
sS'IgnoreNames'
p90
S"['Gaudi', 'GaudiPython::Interface', 'GaudiPython::Helper', 'FactoryTable', 'IInterface', 'IFactory', 'IAlgFactory', 'ISvcFactory', 'IToolFactory', 'InterfaceID', 'StatusCode', 'IAppMgrUI', 'IProperty', 'Property', 'std::vector<Property*>', 'std::vector<const Property*>', 'std::list<IAlgorithm*>', 'std::list<IService*>', 'std::list<const IFactory*>', 'std::vector<IRegistry*>', 'SimpleProperty', 'SimplePropertyRef', 'IService', 'IAlgorithm', 'ISvcManager', 'IAlgManager', 'IJobOptionsSvc', 'ISvcLocator', 'IEventProcessor', 'IDataProviderSvc', 'IDataManagerSvc', 'IRegistry', 'ContainedObject', 'std::vector<const ContainedObject*>', 'DataObject', 'IHistogramSvc', 'AIDA::I', 'Algorithm', 'Service', 'GaudiPython::PyAlgorithm', 'GaudiPython::PyAlgorithmWrap', 'IParticlePropertySvc', 'ParticleProperty', 'StoreGateSvc', 'IStoragePolicy', 'CharDbArray', 'DoubleDbArray', 'FloatDbArray', 'IntDbArray', 'LongDbArray', 'ShortDbArray', 'AthenaEventLoopMgr', 'MinimalEventLoopMgr', 'PyAthenaEventLoopMgr', 'NTuple::Directory', 'NTuple::File ', 'NTuple::Tuple', 'INTuple', 'NTuple::Tuple', 'greater<int>', 'allocator<', 'string']"
p91
sS'AuditFinalize'
p92
g7
sS'AuditStop'
p93
g7
sS'AuditReinitialize'
p94
g7
sS'CheckDictAtInit'
p95
g7
sS'DictNames'
p96
S'[]'
p97
sS'AuditRestart'
p98
g7
sS'CheckDictionary'
p99
g12
sS'LoadAllDicts'
p100
g7
sS'IgnoreDicts'
p101
S"['libSealCLHEPDict']"
p102
ssS'JobOptionsSvc'
p103
(dp104
S'AuditStop'
p105
g7
sS'SEARCHPATH'
p106
S'.:/afs/cern.ch/user/s/ssnyder/atlas-work3/build-x86_64-centos7-gcc8-opt/x86_64-centos7-gcc8-opt/jobOptions:/cvmfs/atlas-nightlies.cern.ch/repo/sw/master/2019-06-06T2127/GAUDI/22.0.2/InstallArea/x86_64-centos7-gcc8-opt/jobOptions:/afs/cern.ch/user/s/ssnyder/atlas-work3:/cvmfs/atlas-nightlies.cern.ch/repo/sw/master/2019-06-06T2127/Athena/22.0.2/InstallArea/x86_64-centos7-gcc8-opt/jobOptions:/cvmfs/atlas-nightlies.cern.ch/repo/sw/master/2019-06-06T2127/AthenaExternals/22.0.2/InstallArea/x86_64-centos7-gcc8-opt/jobOptions'
p107
sS'AuditInitialize'
p108
g7
sS'AuditServices'
p109
g7
sS'OutputLevel'
p110
S'3'
sS'AuditStart'
p111
g7
sS'DUMPFILE'
p112
S''
sS'AuditFinalize'
p113
g7
sS'PYTHONPARAMS'
p114
S''
sS'AuditReinitialize'
p115
g7
sS'PATH'
p116
S'../options/job.opts'
p117
sS'PYTHONACTION'
p118
S''
sS'TYPE'
p119
S'NONE'
p120
sS'AuditRestart'
p121
g7
ssS'ToolSvc'
p122
(dp123
S'AuditInitialize'
p124
g7
sS'OutputLevel'
p125
S'0'
sS'AuditServices'
p126
g7
sS'AuditStart'
p127
g7
sS'AuditFinalize'
p128
g7
sS'AuditStop'
p129
g7
sS'AuditReinitialize'
p130
g7
sS'AuditRestart'
p131
g7
ssS'ApplicationMgr'
p132
(dp133
S'Runable'
p134
S'AppMgrRunable'
p135
sS'ReturnCode'
p136
S'0'
sS'TopAlg'
p137
S"['AthSequencer/AthMasterSeq']"
p138
sS'PrintAlgsSequence'
p139
g7
sS'EventLoop'
p140
S'AthenaHiveEventLoopMgr'
p141
sS'ExtSvcCreates'
p142
g7
sS'Environment'
p143
S'{}'
p144
sS'JobOptionsPath'
p145
S''
sS'Dlls'
p146
S'[]'
p147
sS'SvcMapping'
p148
S"['EvtDataSvc/EventDataSvc', 'DetDataSvc/DetectorDataSvc', 'HistogramSvc/HistogramDataSvc', 'HbookCnv::PersSvc/HbookHistSvc', 'RootHistCnv::PersSvc/RootHistSvc', 'EvtPersistencySvc/EventPersistencySvc', 'DetPersistencySvc/DetectorPersistencySvc', 'HistogramPersistencySvc/HistogramPersistencySvc']"
p149
sS'AppName'
p150
S'ApplicationMgr'
p151
sS'AuditServices'
p152
g7
sS'OutStream'
p153
S'[]'
p154
sS'ActivateHistory'
p155
g7
sS'StalledEventMonitoring'
p156
g7
sS'InitializationLoopCheck'
p157
g7
sS'JobOptionsSvcType'
p158
S'JobOptionsSvc'
p159
sS'JobOptionsPreAction'
p160
S''
sS'StatusCodeCheck'
p161
g7
sS'AuditTools'
p162
g7
sS'AlgTypeAliases'
p163
S'{}'
p164
sS'EvtSel'
p165
S''
sS'PluginDebugLevel'
p166
S'0'
sS'OutputLevel'
p167
S'3'
sS'AppVersion'
p168
S''
sS'EvtMax'
p169
S'-1'
p170
sS'SvcOptMapping'
p171
S'[]'
p172
sS'CreateSvc'
p173
S"['ToolSvc/ToolSvc', 'AthDictLoaderSvc/AthDictLoaderSvc', 'AthenaSealSvc/AthenaSealSvc', 'CoreDumpSvc/CoreDumpSvc']"
p174
sS'PropertiesPrint'
p175
g7
sS'JobOptionsType'
p176
S'NONE'
p177
sS'OutStreamType'
p178
S'AthenaOutputStream'
p179
sS'StopOnSignal'
p180
g7
sS'ExtSvc'
p181
S"['ToolSvc/ToolSvc', 'AuditorSvc/AuditorSvc', 'MessageSvc/MessageSvc', 'IncidentSvc/IncidentSvc', 'EvtPersistencySvc/EventPersistencySvc', 'HistogramSvc/HistogramDataSvc', 'NTupleSvc/NTupleSvc', 'RndmGenSvc/RndmGenSvc', 'ChronoStatSvc/ChronoStatSvc', 'StatusCodeSvc/StatusCodeSvc', 'StoreGateSvc/StoreGateSvc', 'StoreGateSvc/DetectorStore', 'StoreGateSvc/HistoryStore', 'StoreGateSvc/ConditionStore', 'ClassIDSvc/ClassIDSvc', 'AthDictLoaderSvc/AthDictLoaderSvc', 'AthenaSealSvc/AthenaSealSvc', 'CoreDumpSvc/CoreDumpSvc', 'SG::HiveMgrSvc/EventDataSvc', 'AlgResourcePool/AlgResourcePool', 'AvalancheSchedulerSvc/AvalancheSchedulerSvc', 'AthenaHiveEventLoopMgr/AthenaHiveEventLoopMgr', 'TimelineSvc/TimelineSvc', 'JobOptionsSvc/JobOptionsSvc']"
p182
sS'AuditAlgorithms'
p183
g12
sS'HistogramPersistency'
p184
S'NONE'
p185
sS'MessageSvcType'
p186
S'InertMessageSvc'
p187
sS'JobOptionsPostAction'
p188
S''
ssS'AthenaHiveEventLoopMgr'
p189
(dp190
S'TopAlg'
p191
S'[]'
p192
sS'AuditReinitialize'
p193
g7
sS'SchedulerSvc'
p194
S'AvalancheSchedulerSvc'
p195
sS'AuditRestart'
p196
g7
sS'EventPrintoutInterval'
p197
S'1'
sS'UseSecondaryEventNumber'
p198
g7
sS'FailureMode'
p199
S'1'
sS'FakeTimestampInterval'
p200
S'1'
sS'AuditServices'
p201
g7
sS'OutStream'
p202
S'[]'
p203
sS'AuditFinalize'
p204
g7
sS'PreSelectTools'
p205
S'[]'
p206
sS'TimeKeeper'
p207
S''
sS'HistWriteInterval'
p208
S'0'
sS'AuditInitialize'
p209
g7
sS'OutputLevel'
p210
S'0'
sS'EvtSel'
p211
S''
sS'HistogramPersistency'
p212
S''
sS'AuditStop'
p213
g7
sS'FakeLumiBlockInterval'
p214
S'0'
sS'EventStore'
p215
S'StoreGateSvc'
p216
sS'PrintControlFlowExpression'
p217
g7
sS'OutStreamType'
p218
S'AthenaOutputStream'
p219
sS'ClearStorePolicy'
p220
S'EndEvent'
p221
sS'AuditStart'
p222
g7
sS'WhiteboardSvc'
p223
S'EventDataSvc'
p224
ssS'AthDictLoaderSvc'
p225
(dp226
S'AuditInitialize'
p227
g7
sS'OutputLevel'
p228
S'0'
sS'AuditServices'
p229
g7
sS'AuditStart'
p230
g7
sS'DoRecursiveLoad'
p231
g12
sS'AuditFinalize'
p232
g7
sS'AuditStop'
p233
g7
sS'AuditReinitialize'
p234
g7
sS'AuditRestart'
p235
g7
ss.(lp1
.