ccollections
defaultdict
p1
(c__builtin__
dict
p2
tRp3
S'StoreGateSvc'
p4
(dp5
S'IncidentSvc'
p6
S'IncidentSvc'
p7
sS'ProxyProviderSvc'
p8
S'ProxyProviderSvc'
p9
ssS'ChronoStatSvc'
p10
(dp11
S'HiveWhiteBoardSvc'
p12
S'EventDataSvc'
p13
ssS'AthBeginSeq'
p14
(dp15
S'ExtraOutputs'
p16
S'[]'
p17
sS'EvtStore'
p18
S'StoreGateSvc'
p19
sS'ExtraInputs'
p20
S'[]'
p21
sS'Sequential'
p22
S'True'
p23
sS'Members'
p24
S"['AthIncFirerAlg/BeginIncFiringAlg', 'IncidentProcAlg/IncidentProcAlg1']"
p25
sS'NeededResources'
p26
S'[]'
p27
sS'DetStore'
p28
S'StoreGateSvc/DetectorStore'
p29
ssS'CoreDumpSvc'
p30
(dp31
S'Signals'
p32
S'[11, 7, 4, 8]'
p33
sS'FatalHandler'
p34
S'-1'
p35
ssS'AuditorSvc'
p36
(dp37
S'Auditors'
p38
S"['AlgContextAuditor/AlgContextAuditor']"
p39
ssS'ClassIDSvc'
p40
(dp41
S'CLIDDBFiles'
p42
S"['clid.db', 'Gaudi_clid.db']"
p43
ssS'AthOutSeq'
p44
(dp45
S'ExtraOutputs'
p46
S'[]'
p47
sS'EvtStore'
p48
S'StoreGateSvc'
p49
sS'ExtraInputs'
p50
S'[]'
p51
sS'StopOverride'
p52
S'True'
p53
sS'Members'
p54
S'[]'
p55
sS'NeededResources'
p56
S'[]'
p57
sS'DetStore'
p58
S'StoreGateSvc/DetectorStore'
p59
ssS'BeginIncFiringAlg'
p60
(dp61
S'ExtraOutputs'
p62
S'[]'
p63
sS'EvtStore'
p64
S'StoreGateSvc'
p65
sS'ExtraInputs'
p66
S'[]'
p67
sS'FireSerial'
p68
S'False'
p69
sS'Incidents'
p70
S"['BeginEvent']"
p71
sS'NeededResources'
p72
S'[]'
p73
sS'DetStore'
p74
S'StoreGateSvc/DetectorStore'
p75
ssS'AthCondSeq'
p76
(dp77
S'ExtraOutputs'
p78
S'[]'
p79
sS'EvtStore'
p80
S'StoreGateSvc'
p81
sS'ExtraInputs'
p82
S'[]'
p83
sS'StopOverride'
p84
S'True'
p85
sS'Members'
p86
S'[]'
p87
sS'NeededResources'
p88
S'[]'
p89
sS'DetStore'
p90
S'StoreGateSvc/DetectorStore'
p91
ssS'AthMasterSeq'
p92
(dp93
S'ExtraOutputs'
p94
S'[]'
p95
sS'EvtStore'
p96
S'StoreGateSvc'
p97
sS'ExtraInputs'
p98
S'[]'
p99
sS'Sequential'
p100
S'True'
p101
sS'Members'
p102
S"['AthSequencer/AthAlgEvtSeq', 'AthSequencer/AthOutSeq', 'AthSequencer/AthRegSeq']"
p103
sS'NeededResources'
p104
S'[]'
p105
sS'DetStore'
p106
S'StoreGateSvc/DetectorStore'
p107
ssS'AthAlgEvtSeq'
p108
(dp109
S'ExtraOutputs'
p110
S'[]'
p111
sS'EvtStore'
p112
S'StoreGateSvc'
p113
sS'ExtraInputs'
p114
S'[]'
p115
sS'Sequential'
p116
S'True'
p117
sS'StopOverride'
p118
S'True'
p119
sS'Members'
p120
S"['AthSequencer/AthBeginSeq', 'AthSequencer/AthAllAlgSeq', 'AthSequencer/AthEndSeq']"
p121
sS'NeededResources'
p122
S'[]'
p123
sS'DetStore'
p124
S'StoreGateSvc/DetectorStore'
p125
ssS'AthEndSeq'
p126
(dp127
S'ExtraOutputs'
p128
S'[]'
p129
sS'EvtStore'
p130
S'StoreGateSvc'
p131
sS'ExtraInputs'
p132
S'[]'
p133
sS'Sequential'
p134
S'True'
p135
sS'Members'
p136
S"['AthIncFirerAlg/EndIncFiringAlg', 'IncidentProcAlg/IncidentProcAlg2']"
p137
sS'NeededResources'
p138
S'[]'
p139
sS'DetStore'
p140
S'StoreGateSvc/DetectorStore'
p141
ssS'AthRegSeq'
p142
(dp143
S'ExtraOutputs'
p144
S'[]'
p145
sS'EvtStore'
p146
S'StoreGateSvc'
p147
sS'ExtraInputs'
p148
S'[]'
p149
sS'StopOverride'
p150
S'True'
p151
sS'Members'
p152
S'[]'
p153
sS'NeededResources'
p154
S'[]'
p155
sS'DetStore'
p156
S'StoreGateSvc/DetectorStore'
p157
ssS'EndIncFiringAlg'
p158
(dp159
S'ExtraOutputs'
p160
S'[]'
p161
sS'EvtStore'
p162
S'StoreGateSvc'
p163
sS'ExtraInputs'
p164
S'[]'
p165
sS'FireSerial'
p166
S'False'
p167
sS'Incidents'
p168
S"['EndEvent']"
p169
sS'NeededResources'
p170
S'[]'
p171
sS'DetStore'
p172
S'StoreGateSvc/DetectorStore'
p173
ssS'Streams'
p174
(dp175
S'ExtraOutputs'
p176
S'[]'
p177
sS'EvtStore'
p178
S'StoreGateSvc'
p179
sS'ExtraInputs'
p180
S'[]'
p181
sS'Members'
p182
S'[]'
p183
sS'NeededResources'
p184
S'[]'
p185
sS'DetStore'
p186
S'StoreGateSvc/DetectorStore'
p187
ssS'NTupleSvc'
p188
(dp189
S'InhibitPathes'
p190
S'[]'
p191
sS'Input'
p192
S'[]'
p193
sS'Output'
p194
S'[]'
p195
ssS'EventPersistencySvc'
p196
(dp197
S'CnvServices'
p198
S'[]'
p199
ssS'AthAlgSeq'
p200
(dp201
S'ExtraOutputs'
p202
S'[]'
p203
sS'IgnoreFilterPassed'
p204
S'True'
p205
sS'EvtStore'
p206
S'StoreGateSvc'
p207
sS'ExtraInputs'
p208
S'[]'
p209
sS'StopOverride'
p210
S'True'
p211
sS'Members'
p212
S'[]'
p213
sS'NeededResources'
p214
S'[]'
p215
sS'DetStore'
p216
S'StoreGateSvc/DetectorStore'
p217
ssS'AthAllAlgSeq'
p218
(dp219
S'ExtraOutputs'
p220
S'[]'
p221
sS'EvtStore'
p222
S'StoreGateSvc'
p223
sS'ExtraInputs'
p224
S'[]'
p225
sS'StopOverride'
p226
S'True'
p227
sS'Members'
p228
S"['AthSequencer/AthCondSeq', 'AthSequencer/AthAlgSeq']"
p229
sS'NeededResources'
p230
S'[]'
p231
sS'DetStore'
p232
S'StoreGateSvc/DetectorStore'
p233
ssS'AthenaSealSvc'
p234
(dp235
S'DictNames'
p236
S'[]'
p237
sS'IgnoreDicts'
p238
S"['libSealCLHEPDict']"
p239
sS'IgnoreNames'
p240
S"['Gaudi', 'GaudiPython::Interface', 'GaudiPython::Helper', 'FactoryTable', 'IInterface', 'IFactory', 'IAlgFactory', 'ISvcFactory', 'IToolFactory', 'InterfaceID', 'StatusCode', 'IAppMgrUI', 'IProperty', 'Property', 'std::vector<Property*>', 'std::vector<const Property*>', 'std::list<IAlgorithm*>', 'std::list<IService*>', 'std::list<const IFactory*>', 'std::vector<IRegistry*>', 'SimpleProperty', 'SimplePropertyRef', 'IService', 'IAlgorithm', 'ISvcManager', 'IAlgManager', 'IJobOptionsSvc', 'ISvcLocator', 'IEventProcessor', 'IDataProviderSvc', 'IDataManagerSvc', 'IRegistry', 'ContainedObject', 'std::vector<const ContainedObject*>', 'DataObject', 'IHistogramSvc', 'AIDA::I', 'Algorithm', 'Service', 'GaudiPython::PyAlgorithm', 'GaudiPython::PyAlgorithmWrap', 'IParticlePropertySvc', 'ParticleProperty', 'StoreGateSvc', 'IStoragePolicy', 'CharDbArray', 'DoubleDbArray', 'FloatDbArray', 'IntDbArray', 'LongDbArray', 'ShortDbArray', 'AthenaEventLoopMgr', 'MinimalEventLoopMgr', 'PyAthenaEventLoopMgr', 'NTuple::Directory', 'NTuple::File ', 'NTuple::Tuple', 'INTuple', 'NTuple::Tuple', 'greater<int>', 'allocator<', 'string']"
p241
ssS'IncidentProcAlg2'
p242
(dp243
S'ExtraOutputs'
p244
S'[]'
p245
sS'NeededResources'
p246
S'[]'
p247
sS'ExtraInputs'
p248
S'[]'
p249
ssS'DetectorStore'
p250
(dp251
S'IncidentSvc'
p252
S'IncidentSvc'
p253
sS'ProxyProviderSvc'
p254
S'ProxyProviderSvc'
p255
ssS'ConditionStore'
p256
(dp257
S'IncidentSvc'
p258
S'IncidentSvc'
p259
sS'ProxyProviderSvc'
p260
S'ProxyProviderSvc'
p261
ssS'IncidentProcAlg1'
p262
(dp263
S'ExtraOutputs'
p264
S'[]'
p265
sS'NeededResources'
p266
S'[]'
p267
sS'ExtraInputs'
p268
S'[]'
p269
ssS'HistogramDataSvc'
p270
(dp271
S'Input'
p272
S'[]'
p273
sS'InhibitPathes'
p274
S'[]'
p275
ssS'HistoryStore'
p276
(dp277
S'IncidentSvc'
p278
S'IncidentSvc'
p279
sS'ProxyProviderSvc'
p280
S'ProxyProviderSvc'
p281
ss.ccollections
defaultdict
p1
(c__builtin__
dict
p2
tRp3
S'CoreDumpSvc'
p4
(dp5
S'AuditInitialize'
p6
S'False'
p7
sS'OutputLevel'
p8
S'0'
sS'AuditServices'
p9
g7
sS'AuditStart'
p10
g7
sS'CallOldHandler'
p11
S'True'
p12
sS'Signals'
p13
S'[11, 7, 4, 8]'
p14
sS'AuditFinalize'
p15
g7
sS'AuditStop'
p16
g7
sS'AuditReinitialize'
p17
g7
sS'TimeOut'
p18
S'1.8e+12'
p19
sS'FatalHandler'
p20
S'0'
sS'AuditRestart'
p21
g7
sS'CoreDumpStream'
p22
S'stdout'
p23
ssS'MessageSvc'
p24
(dp25
S'verboseColorCode'
p26
S'[]'
p27
sS'defaultLimit'
p28
S'500'
p29
sS'enableSuppression'
p30
g12
sS'errorColorCode'
p31
S"['white', 'red']"
p32
sS'alwaysLimit'
p33
S'0'
sS'showStats'
p34
g7
sS'AuditReinitialize'
p35
g7
sS'setFatal'
p36
S'[]'
p37
sS'infoLimit'
p38
S'500'
p39
sS'errorLimit'
p40
S'500'
p41
sS'AuditRestart'
p42
g7
sS'Format'
p43
S'% F%18W%S%7W%R%T %0W%M'
p44
sS'AuditServices'
p45
g7
sS'alwaysColorCode'
p46
S'[]'
p47
sS'AuditFinalize'
p48
g7
sS'setError'
p49
S'[]'
p50
sS'setInfo'
p51
S'[]'
p52
sS'setAlways'
p53
S'[]'
p54
sS'debugColorCode'
p55
S'[]'
p56
sS'AuditInitialize'
p57
g7
sS'warningLimit'
p58
S'500'
p59
sS'useColors'
p60
g7
sS'OutputLevel'
p61
S'3'
sS'countInactive'
p62
g7
sS'AuditStop'
p63
g7
sS'setDebug'
p64
S'[]'
p65
sS'timeFormat'
p66
S'%Y-%m-%d %H:%M:%S,%f'
p67
sS'fatalLimit'
p68
S'500'
p69
sS'fatalColorCode'
p70
S"['blue', 'red']"
p71
sS'loggedStreams'
p72
S'{}'
p73
sS'tracedInactiveSources'
p74
S'[]'
p75
sS'setVerbose'
p76
S'[]'
p77
sS'statLevel'
p78
S'0'
sS'verboseLimit'
p79
S'500'
p80
sS'debugLimit'
p81
S'500'
p82
sS'AuditStart'
p83
g7
sS'infoColorCode'
p84
S'[]'
p85
sS'setWarning'
p86
S'[]'
p87
sS'warningColorCode'
p88
S"['yellow']"
p89
ssS'AthenaSealSvc'
p90
(dp91
S'UseChronoStag'
p92
g12
sS'AuditInitialize'
p93
g7
sS'AuditServices'
p94
g7
sS'OutputLevel'
p95
S'0'
sS'AuditStart'
p96
g7
sS'IgnoreNames'
p97
S"['Gaudi', 'GaudiPython::Interface', 'GaudiPython::Helper', 'FactoryTable', 'IInterface', 'IFactory', 'IAlgFactory', 'ISvcFactory', 'IToolFactory', 'InterfaceID', 'StatusCode', 'IAppMgrUI', 'IProperty', 'Property', 'std::vector<Property*>', 'std::vector<const Property*>', 'std::list<IAlgorithm*>', 'std::list<IService*>', 'std::list<const IFactory*>', 'std::vector<IRegistry*>', 'SimpleProperty', 'SimplePropertyRef', 'IService', 'IAlgorithm', 'ISvcManager', 'IAlgManager', 'IJobOptionsSvc', 'ISvcLocator', 'IEventProcessor', 'IDataProviderSvc', 'IDataManagerSvc', 'IRegistry', 'ContainedObject', 'std::vector<const ContainedObject*>', 'DataObject', 'IHistogramSvc', 'AIDA::I', 'Algorithm', 'Service', 'GaudiPython::PyAlgorithm', 'GaudiPython::PyAlgorithmWrap', 'IParticlePropertySvc', 'ParticleProperty', 'StoreGateSvc', 'IStoragePolicy', 'CharDbArray', 'DoubleDbArray', 'FloatDbArray', 'IntDbArray', 'LongDbArray', 'ShortDbArray', 'AthenaEventLoopMgr', 'MinimalEventLoopMgr', 'PyAthenaEventLoopMgr', 'NTuple::Directory', 'NTuple::File ', 'NTuple::Tuple', 'INTuple', 'NTuple::Tuple', 'greater<int>', 'allocator<', 'string']"
p98
sS'AuditFinalize'
p99
g7
sS'AuditStop'
p100
g7
sS'AuditReinitialize'
p101
g7
sS'CheckDictAtInit'
p102
g7
sS'DictNames'
p103
S'[]'
p104
sS'AuditRestart'
p105
g7
sS'CheckDictionary'
p106
g12
sS'LoadAllDicts'
p107
g7
sS'IgnoreDicts'
p108
S"['libSealCLHEPDict']"
p109
ssS'JobOptionsSvc'
p110
(dp111
S'AuditStop'
p112
g7
sS'SEARCHPATH'
p113
S'.:/afs/cern.ch/user/s/ssnyder/atlas-work3/build-x86_64-centos7-gcc8-opt/x86_64-centos7-gcc8-opt/jobOptions:/cvmfs/atlas-nightlies.cern.ch/repo/sw/master/2019-06-06T2127/GAUDI/22.0.2/InstallArea/x86_64-centos7-gcc8-opt/jobOptions:/afs/cern.ch/user/s/ssnyder/atlas-work3:/cvmfs/atlas-nightlies.cern.ch/repo/sw/master/2019-06-06T2127/Athena/22.0.2/InstallArea/x86_64-centos7-gcc8-opt/jobOptions:/cvmfs/atlas-nightlies.cern.ch/repo/sw/master/2019-06-06T2127/AthenaExternals/22.0.2/InstallArea/x86_64-centos7-gcc8-opt/jobOptions'
p114
sS'AuditInitialize'
p115
g7
sS'AuditServices'
p116
g7
sS'OutputLevel'
p117
S'3'
sS'AuditStart'
p118
g7
sS'DUMPFILE'
p119
S''
sS'AuditFinalize'
p120
g7
sS'PYTHONPARAMS'
p121
S''
sS'AuditReinitialize'
p122
g7
sS'PATH'
p123
S'../options/job.opts'
p124
sS'PYTHONACTION'
p125
S''
sS'TYPE'
p126
S'NONE'
p127
sS'AuditRestart'
p128
g7
ssS'ToolSvc'
p129
(dp130
S'AuditInitialize'
p131
g7
sS'OutputLevel'
p132
S'0'
sS'AuditServices'
p133
g7
sS'AuditStart'
p134
g7
sS'AuditFinalize'
p135
g7
sS'AuditStop'
p136
g7
sS'AuditReinitialize'
p137
g7
sS'AuditRestart'
p138
g7
ssS'ApplicationMgr'
p139
(dp140
S'Runable'
p141
S'AppMgrRunable'
p142
sS'ReturnCode'
p143
S'0'
sS'TopAlg'
p144
S"['AthSequencer/AthMasterSeq']"
p145
sS'PrintAlgsSequence'
p146
g7
sS'EventLoop'
p147
S'AthenaEventLoopMgr'
p148
sS'ExtSvcCreates'
p149
g7
sS'Environment'
p150
S'{}'
p151
sS'JobOptionsPath'
p152
S''
sS'Dlls'
p153
S'[]'
p154
sS'SvcMapping'
p155
S"['EvtDataSvc/EventDataSvc', 'DetDataSvc/DetectorDataSvc', 'HistogramSvc/HistogramDataSvc', 'HbookCnv::PersSvc/HbookHistSvc', 'RootHistCnv::PersSvc/RootHistSvc', 'EvtPersistencySvc/EventPersistencySvc', 'DetPersistencySvc/DetectorPersistencySvc', 'HistogramPersistencySvc/HistogramPersistencySvc']"
p156
sS'AppName'
p157
S'ApplicationMgr'
p158
sS'AuditServices'
p159
g7
sS'OutStream'
p160
S'[]'
p161
sS'ActivateHistory'
p162
g7
sS'StalledEventMonitoring'
p163
g7
sS'InitializationLoopCheck'
p164
g7
sS'JobOptionsSvcType'
p165
S'JobOptionsSvc'
p166
sS'JobOptionsPreAction'
p167
S''
sS'StatusCodeCheck'
p168
g12
sS'AuditTools'
p169
g7
sS'AlgTypeAliases'
p170
S'{}'
p171
sS'EvtSel'
p172
S''
sS'PluginDebugLevel'
p173
S'0'
sS'OutputLevel'
p174
S'3'
sS'AppVersion'
p175
S''
sS'EvtMax'
p176
S'-1'
p177
sS'SvcOptMapping'
p178
S'[]'
p179
sS'CreateSvc'
p180
S"['ToolSvc/ToolSvc', 'AthDictLoaderSvc/AthDictLoaderSvc', 'AthenaSealSvc/AthenaSealSvc', 'CoreDumpSvc/CoreDumpSvc']"
p181
sS'PropertiesPrint'
p182
g7
sS'JobOptionsType'
p183
S'NONE'
p184
sS'OutStreamType'
p185
S'AthenaOutputStream'
p186
sS'StopOnSignal'
p187
g7
sS'ExtSvc'
p188
S"['ToolSvc/ToolSvc', 'AuditorSvc/AuditorSvc', 'MessageSvc/MessageSvc', 'IncidentSvc/IncidentSvc', 'EvtPersistencySvc/EventPersistencySvc', 'HistogramSvc/HistogramDataSvc', 'NTupleSvc/NTupleSvc', 'RndmGenSvc/RndmGenSvc', 'ChronoStatSvc/ChronoStatSvc', 'StatusCodeSvc/StatusCodeSvc', 'StoreGateSvc/StoreGateSvc', 'StoreGateSvc/DetectorStore', 'StoreGateSvc/HistoryStore', 'StoreGateSvc/ConditionStore', 'ClassIDSvc/ClassIDSvc', 'AthDictLoaderSvc/AthDictLoaderSvc', 'AthenaSealSvc/AthenaSealSvc', 'CoreDumpSvc/CoreDumpSvc', 'JobOptionsSvc/JobOptionsSvc']"
p189
sS'AuditAlgorithms'
p190
g7
sS'HistogramPersistency'
p191
S'NONE'
p192
sS'MessageSvcType'
p193
S'MessageSvc'
p194
sS'JobOptionsPostAction'
p195
S''
ssS'StatusCodeSvc'
p196
(dp197
S'AuditRestart'
p198
g7
sS'AuditInitialize'
p199
g7
sS'OutputLevel'
p200
S'3'
sS'AuditServices'
p201
g7
sS'AuditStart'
p202
g7
sS'AbortOnError'
p203
g12
sS'Filter'
p204
S"['Reflex::NewDelFunctionsT<StatusCode>::delete_T(void*)', 'ROOT::Reflex::NewDelFunctionsT<StatusCode>::delete_T(void*)']"
p205
sS'AuditFinalize'
p206
g7
sS'AuditStop'
p207
g7
sS'AuditReinitialize'
p208
g7
sS'SuppressCheck'
p209
g7
sS'IgnoreDicts'
p210
g12
ssS'AthDictLoaderSvc'
p211
(dp212
S'AuditInitialize'
p213
g7
sS'OutputLevel'
p214
S'0'
sS'AuditServices'
p215
g7
sS'AuditStart'
p216
g7
sS'DoRecursiveLoad'
p217
g12
sS'AuditFinalize'
p218
g7
sS'AuditStop'
p219
g7
sS'AuditReinitialize'
p220
g7
sS'AuditRestart'
p221
g7
ss.(lp1
.