ccollections
defaultdict
p1
(c__builtin__
dict
p2
tRp3
S'StoreGateSvc'
p4
(dp5
S'IncidentSvc'
p6
S'IncidentSvc'
p7
sS'ProxyProviderSvc'
p8
S'ProxyProviderSvc'
p9
ssS'ChronoStatSvc'
p10
(dp11
S'HiveWhiteBoardSvc'
p12
S'EventDataSvc'
p13
ssS'EventDataSvc'
p14
(dp15
S'HiveStoreSvc'
p16
S'StoreGateSvc'
p17
sS'NSlots'
p18
S'1'
ssS'AthBeginSeq'
p19
(dp20
S'ExtraOutputs'
p21
S'[]'
p22
sS'EvtStore'
p23
S'StoreGateSvc'
p24
sS'ExtraInputs'
p25
S'[]'
p26
sS'Sequential'
p27
S'True'
p28
sS'Members'
p29
S"['AthIncFirerAlg/BeginIncFiringAlg', 'IncidentProcAlg/IncidentProcAlg1']"
p30
sS'NeededResources'
p31
S'[]'
p32
sS'DetStore'
p33
S'StoreGateSvc/DetectorStore'
p34
ssS'TimelineSvc'
p35
(dp36
S'Partial'
p37
S'False'
p38
sS'RecordTimeline'
p39
S'True'
p40
ssS'AvalancheSchedulerSvc'
p41
(dp42
S'ThreadPoolSize'
p43
S'1'
sS'OutputLevel'
p44
S'3'
sS'DataLoaderAlg'
p45
S'SGInputLoader'
p46
sS'ShowControlFlow'
p47
S'False'
p48
sS'CheckDependencies'
p49
S'True'
p50
sS'ShowDataDependencies'
p51
S'False'
p52
ssS'SGInputLoader'
p53
(dp54
S'ExtraOutputs'
p55
S'[]'
p56
sS'Load'
p57
S'[]'
p58
sS'FailIfNoProxy'
p59
S'False'
p60
sS'EvtStore'
p61
S'StoreGateSvc'
p62
sS'ExtraInputs'
p63
S'[]'
p64
sS'NeededResources'
p65
S'[]'
p66
sS'DetStore'
p67
S'StoreGateSvc/DetectorStore'
p68
ssS'CoreDumpSvc'
p69
(dp70
S'Signals'
p71
S'[11, 7, 4, 8]'
p72
sS'FatalHandler'
p73
S'-1'
p74
ssS'AuditorSvc'
p75
(dp76
S'Auditors'
p77
S"['AlgContextAuditor/AlgContextAuditor', 'SGCommitAuditor/SGCommitAuditor']"
p78
ssS'ClassIDSvc'
p79
(dp80
S'CLIDDBFiles'
p81
S"['clid.db', 'Gaudi_clid.db']"
p82
ssS'AthOutSeq'
p83
(dp84
S'ExtraOutputs'
p85
S'[]'
p86
sS'EvtStore'
p87
S'StoreGateSvc'
p88
sS'ExtraInputs'
p89
S'[]'
p90
sS'StopOverride'
p91
S'True'
p92
sS'Members'
p93
S'[]'
p94
sS'NeededResources'
p95
S'[]'
p96
sS'DetStore'
p97
S'StoreGateSvc/DetectorStore'
p98
ssS'BeginIncFiringAlg'
p99
(dp100
S'ExtraOutputs'
p101
S'[]'
p102
sS'EvtStore'
p103
S'StoreGateSvc'
p104
sS'ExtraInputs'
p105
S'[]'
p106
sS'FireSerial'
p107
S'False'
p108
sS'Incidents'
p109
S"['BeginEvent']"
p110
sS'NeededResources'
p111
S'[]'
p112
sS'DetStore'
p113
S'StoreGateSvc/DetectorStore'
p114
ssS'AthCondSeq'
p115
(dp116
S'ExtraOutputs'
p117
S'[]'
p118
sS'EvtStore'
p119
S'StoreGateSvc'
p120
sS'ExtraInputs'
p121
S'[]'
p122
sS'StopOverride'
p123
S'True'
p124
sS'Members'
p125
S'[]'
p126
sS'NeededResources'
p127
S'[]'
p128
sS'DetStore'
p129
S'StoreGateSvc/DetectorStore'
p130
ssS'AthMasterSeq'
p131
(dp132
S'ExtraOutputs'
p133
S'[]'
p134
sS'EvtStore'
p135
S'StoreGateSvc'
p136
sS'ExtraInputs'
p137
S'[]'
p138
sS'Sequential'
p139
S'True'
p140
sS'Members'
p141
S"['AthSequencer/AthAlgEvtSeq', 'AthSequencer/AthOutSeq', 'AthSequencer/AthRegSeq']"
p142
sS'NeededResources'
p143
S'[]'
p144
sS'DetStore'
p145
S'StoreGateSvc/DetectorStore'
p146
ssS'AthAlgEvtSeq'
p147
(dp148
S'ExtraOutputs'
p149
S'[]'
p150
sS'EvtStore'
p151
S'StoreGateSvc'
p152
sS'ExtraInputs'
p153
S'[]'
p154
sS'Sequential'
p155
S'True'
p156
sS'StopOverride'
p157
S'True'
p158
sS'Members'
p159
S"['AthSequencer/AthBeginSeq', 'AthSequencer/AthAllAlgSeq', 'AthSequencer/AthEndSeq']"
p160
sS'NeededResources'
p161
S'[]'
p162
sS'DetStore'
p163
S'StoreGateSvc/DetectorStore'
p164
ssS'AthEndSeq'
p165
(dp166
S'ExtraOutputs'
p167
S'[]'
p168
sS'EvtStore'
p169
S'StoreGateSvc'
p170
sS'ExtraInputs'
p171
S'[]'
p172
sS'Sequential'
p173
S'True'
p174
sS'Members'
p175
S"['AthIncFirerAlg/EndIncFiringAlg', 'IncidentProcAlg/IncidentProcAlg2']"
p176
sS'NeededResources'
p177
S'[]'
p178
sS'DetStore'
p179
S'StoreGateSvc/DetectorStore'
p180
ssS'AlgResourcePool'
p181
(dp182
S'OutputLevel'
p183
S'3'
sS'TopAlg'
p184
S"['AthMasterSeq']"
p185
ssS'AthRegSeq'
p186
(dp187
S'ExtraOutputs'
p188
S'[]'
p189
sS'EvtStore'
p190
S'StoreGateSvc'
p191
sS'ExtraInputs'
p192
S'[]'
p193
sS'StopOverride'
p194
S'True'
p195
sS'Members'
p196
S'[]'
p197
sS'NeededResources'
p198
S'[]'
p199
sS'DetStore'
p200
S'StoreGateSvc/DetectorStore'
p201
ssS'EndIncFiringAlg'
p202
(dp203
S'ExtraOutputs'
p204
S'[]'
p205
sS'EvtStore'
p206
S'StoreGateSvc'
p207
sS'ExtraInputs'
p208
S'[]'
p209
sS'FireSerial'
p210
S'False'
p211
sS'Incidents'
p212
S"['EndEvent']"
p213
sS'NeededResources'
p214
S'[]'
p215
sS'DetStore'
p216
S'StoreGateSvc/DetectorStore'
p217
ssS'Streams'
p218
(dp219
S'ExtraOutputs'
p220
S'[]'
p221
sS'EvtStore'
p222
S'StoreGateSvc'
p223
sS'ExtraInputs'
p224
S'[]'
p225
sS'Members'
p226
S'[]'
p227
sS'NeededResources'
p228
S'[]'
p229
sS'DetStore'
p230
S'StoreGateSvc/DetectorStore'
p231
ssS'NTupleSvc'
p232
(dp233
S'InhibitPathes'
p234
S'[]'
p235
sS'Input'
p236
S'[]'
p237
sS'Output'
p238
S'[]'
p239
ssS'EventPersistencySvc'
p240
(dp241
S'CnvServices'
p242
S'[]'
p243
ssS'AthAlgSeq'
p244
(dp245
S'ExtraOutputs'
p246
S'[]'
p247
sS'Members'
p248
S"['SGInputLoader/SGInputLoader']"
p249
sS'EvtStore'
p250
S'StoreGateSvc'
p251
sS'ExtraInputs'
p252
S'[]'
p253
sS'StopOverride'
p254
S'True'
p255
sS'IgnoreFilterPassed'
p256
S'True'
p257
sS'NeededResources'
p258
S'[]'
p259
sS'DetStore'
p260
S'StoreGateSvc/DetectorStore'
p261
ssS'AthAllAlgSeq'
p262
(dp263
S'ExtraOutputs'
p264
S'[]'
p265
sS'EvtStore'
p266
S'StoreGateSvc'
p267
sS'ExtraInputs'
p268
S'[]'
p269
sS'StopOverride'
p270
S'True'
p271
sS'Members'
p272
S"['AthSequencer/AthAlgSeq', 'AthSequencer/AthCondSeq']"
p273
sS'NeededResources'
p274
S'[]'
p275
sS'DetStore'
p276
S'StoreGateSvc/DetectorStore'
p277
ssS'AthenaSealSvc'
p278
(dp279
S'DictNames'
p280
S'[]'
p281
sS'IgnoreDicts'
p282
S"['libSealCLHEPDict']"
p283
sS'IgnoreNames'
p284
S"['Gaudi', 'GaudiPython::Interface', 'GaudiPython::Helper', 'FactoryTable', 'IInterface', 'IFactory', 'IAlgFactory', 'ISvcFactory', 'IToolFactory', 'InterfaceID', 'StatusCode', 'IAppMgrUI', 'IProperty', 'Property', 'std::vector<Property*>', 'std::vector<const Property*>', 'std::list<IAlgorithm*>', 'std::list<IService*>', 'std::list<const IFactory*>', 'std::vector<IRegistry*>', 'SimpleProperty', 'SimplePropertyRef', 'IService', 'IAlgorithm', 'ISvcManager', 'IAlgManager', 'IJobOptionsSvc', 'ISvcLocator', 'IEventProcessor', 'IDataProviderSvc', 'IDataManagerSvc', 'IRegistry', 'ContainedObject', 'std::vector<const ContainedObject*>', 'DataObject', 'IHistogramSvc', 'AIDA::I', 'Algorithm', 'Service', 'GaudiPython::PyAlgorithm', 'GaudiPython::PyAlgorithmWrap', 'IParticlePropertySvc', 'ParticleProperty', 'StoreGateSvc', 'IStoragePolicy', 'CharDbArray', 'DoubleDbArray', 'FloatDbArray', 'IntDbArray', 'LongDbArray', 'ShortDbArray', 'AthenaEventLoopMgr', 'MinimalEventLoopMgr', 'PyAthenaEventLoopMgr', 'NTuple::Directory', 'NTuple::File ', 'NTuple::Tuple', 'INTuple', 'NTuple::Tuple', 'greater<int>', 'allocator<', 'string']"
p285
ssS'IncidentProcAlg2'
p286
(dp287
S'ExtraOutputs'
p288
S'[]'
p289
sS'NeededResources'
p290
S'[]'
p291
sS'ExtraInputs'
p292
S'[]'
p293
ssS'DetectorStore'
p294
(dp295
S'IncidentSvc'
p296
S'IncidentSvc'
p297
sS'ProxyProviderSvc'
p298
S'ProxyProviderSvc'
p299
ssS'ConditionStore'
p300
(dp301
S'IncidentSvc'
p302
S'IncidentSvc'
p303
sS'ProxyProviderSvc'
p304
S'ProxyProviderSvc'
p305
ssS'IncidentProcAlg1'
p306
(dp307
S'ExtraOutputs'
p308
S'[]'
p309
sS'NeededResources'
p310
S'[]'
p311
sS'ExtraInputs'
p312
S'[]'
p313
ssS'HistogramDataSvc'
p314
(dp315
S'Input'
p316
S'[]'
p317
sS'InhibitPathes'
p318
S'[]'
p319
ssS'HistoryStore'
p320
(dp321
S'IncidentSvc'
p322
S'IncidentSvc'
p323
sS'ProxyProviderSvc'
p324
S'ProxyProviderSvc'
p325
ss.ccollections
defaultdict
p1
(c__builtin__
dict
p2
tRp3
S'AthenaSealSvc'
p4
(dp5
S'DictNames'
p6
S'[]'
p7
sS'IgnoreDicts'
p8
S"['libSealCLHEPDict']"
p9
sS'IgnoreNames'
p10
S"['Gaudi', 'GaudiPython::Interface', 'GaudiPython::Helper', 'FactoryTable', 'IInterface', 'IFactory', 'IAlgFactory', 'ISvcFactory', 'IToolFactory', 'InterfaceID', 'StatusCode', 'IAppMgrUI', 'IProperty', 'Property', 'std::vector<Property*>', 'std::vector<const Property*>', 'std::list<IAlgorithm*>', 'std::list<IService*>', 'std::list<const IFactory*>', 'std::vector<IRegistry*>', 'SimpleProperty', 'SimplePropertyRef', 'IService', 'IAlgorithm', 'ISvcManager', 'IAlgManager', 'IJobOptionsSvc', 'ISvcLocator', 'IEventProcessor', 'IDataProviderSvc', 'IDataManagerSvc', 'IRegistry', 'ContainedObject', 'std::vector<const ContainedObject*>', 'DataObject', 'IHistogramSvc', 'AIDA::I', 'Algorithm', 'Service', 'GaudiPython::PyAlgorithm', 'GaudiPython::PyAlgorithmWrap', 'IParticlePropertySvc', 'ParticleProperty', 'StoreGateSvc', 'IStoragePolicy', 'CharDbArray', 'DoubleDbArray', 'FloatDbArray', 'IntDbArray', 'LongDbArray', 'ShortDbArray', 'AthenaEventLoopMgr', 'MinimalEventLoopMgr', 'PyAthenaEventLoopMgr', 'NTuple::Directory', 'NTuple::File ', 'NTuple::Tuple', 'INTuple', 'NTuple::Tuple', 'greater<int>', 'allocator<', 'string']"
p11
ssS'AthenaHiveEventLoopMgr'
p12
(dp13
S'TopAlg'
p14
S'[]'
p15
sS'OutStream'
p16
S'[]'
p17
sS'EventStore'
p18
S'StoreGateSvc'
p19
sS'SchedulerSvc'
p20
S'AvalancheSchedulerSvc'
p21
sS'WhiteboardSvc'
p22
S'EventDataSvc'
p23
sS'PreSelectTools'
p24
S'[]'
p25
ssS'CoreDumpSvc'
p26
(dp27
S'Signals'
p28
S'[11, 7, 4, 8]'
p29
sS'FatalHandler'
p30
S'-1'
p31
ssS'ApplicationMgr'
p32
(dp33
S'Runable'
p34
S'AppMgrRunable'
p35
sS'ReturnCode'
p36
S'0'
sS'TopAlg'
p37
S"['AthSequencer/AthMasterSeq']"
p38
sS'PrintAlgsSequence'
p39
S'False'
p40
sS'EventLoop'
p41
S'AthenaHiveEventLoopMgr'
p42
sS'ExtSvcCreates'
p43
g40
sS'Environment'
p44
S'{}'
p45
sS'JobOptionsPath'
p46
S''
sS'Dlls'
p47
S'[]'
p48
sS'SvcMapping'
p49
S"['EvtDataSvc/EventDataSvc', 'DetDataSvc/DetectorDataSvc', 'HistogramSvc/HistogramDataSvc', 'HbookCnv::PersSvc/HbookHistSvc', 'RootHistCnv::PersSvc/RootHistSvc', 'EvtPersistencySvc/EventPersistencySvc', 'DetPersistencySvc/DetectorPersistencySvc', 'HistogramPersistencySvc/HistogramPersistencySvc']"
p50
sS'AppName'
p51
S'ApplicationMgr'
p52
sS'AuditServices'
p53
g40
sS'OutStream'
p54
S'[]'
p55
sS'ActivateHistory'
p56
g40
sS'StalledEventMonitoring'
p57
g40
sS'InitializationLoopCheck'
p58
g40
sS'JobOptionsSvcType'
p59
S'JobOptionsSvc'
p60
sS'JobOptionsPreAction'
p61
S''
sS'StatusCodeCheck'
p62
g40
sS'AuditTools'
p63
g40
sS'AlgTypeAliases'
p64
S'{}'
p65
sS'EvtSel'
p66
S''
sS'PluginDebugLevel'
p67
S'0'
sS'OutputLevel'
p68
S'3'
sS'AppVersion'
p69
S''
sS'EvtMax'
p70
S'-1'
p71
sS'SvcOptMapping'
p72
S'[]'
p73
sS'CreateSvc'
p74
S"['ToolSvc/ToolSvc', 'AthDictLoaderSvc/AthDictLoaderSvc', 'AthenaSealSvc/AthenaSealSvc', 'CoreDumpSvc/CoreDumpSvc']"
p75
sS'PropertiesPrint'
p76
g40
sS'JobOptionsType'
p77
S'NONE'
p78
sS'OutStreamType'
p79
S'AthenaOutputStream'
p80
sS'StopOnSignal'
p81
g40
sS'ExtSvc'
p82
S"['ToolSvc/ToolSvc', 'AuditorSvc/AuditorSvc', 'MessageSvc/MessageSvc', 'IncidentSvc/IncidentSvc', 'EvtPersistencySvc/EventPersistencySvc', 'HistogramSvc/HistogramDataSvc', 'NTupleSvc/NTupleSvc', 'RndmGenSvc/RndmGenSvc', 'ChronoStatSvc/ChronoStatSvc', 'StoreGateSvc/StoreGateSvc', 'StoreGateSvc/DetectorStore', 'StoreGateSvc/HistoryStore', 'StoreGateSvc/ConditionStore', 'ClassIDSvc/ClassIDSvc', 'AthDictLoaderSvc/AthDictLoaderSvc', 'AthenaSealSvc/AthenaSealSvc', 'CoreDumpSvc/CoreDumpSvc', 'SG::HiveMgrSvc/EventDataSvc', 'AlgResourcePool/AlgResourcePool', 'AvalancheSchedulerSvc/AvalancheSchedulerSvc', 'AthenaHiveEventLoopMgr/AthenaHiveEventLoopMgr', 'TimelineSvc/TimelineSvc', 'JobOptionsSvc/JobOptionsSvc']"
p83
sS'AuditAlgorithms'
p84
S'True'
p85
sS'HistogramPersistency'
p86
S'NONE'
p87
sS'MessageSvcType'
p88
S'InertMessageSvc'
p89
sS'JobOptionsPostAction'
p90
S''
ssS'MessageSvc'
p91
(dp92
S'verboseColorCode'
p93
S'[]'
p94
sS'alwaysColorCode'
p95
S'[]'
p96
sS'setInfo'
p97
S'[]'
p98
sS'tracedInactiveSources'
p99
S'[]'
p100
sS'setAlways'
p101
S'[]'
p102
sS'Format'
p103
S'% F%40W%S%4W%R%e%s%8W%R%T %0W%M'
p104
sS'defaultLimit'
p105
S'0'
sS'enableSuppression'
p106
g85
sS'OutputLevel'
p107
S'3'
sS'warningColorCode'
p108
S"['yellow']"
p109
sS'errorColorCode'
p110
S"['white', 'red']"
p111
sS'setVerbose'
p112
S'[]'
p113
sS'debugColorCode'
p114
S'[]'
p115
sS'infoColorCode'
p116
S'[]'
p117
sS'setDebug'
p118
S'[]'
p119
sS'setFatal'
p120
S'[]'
p121
sS'setError'
p122
S'[]'
p123
sS'fatalColorCode'
p124
S"['blue', 'red']"
p125
sS'setWarning'
p126
S'[]'
p127
ss.(lp1
.