ccollections
defaultdict
p1
(c__builtin__
dict
p2
tRp3
S'StoreGateSvc'
p4
(dp5
S'IncidentSvc'
p6
S'IncidentSvc'
p7
sS'ProxyProviderSvc'
p8
S'ProxyProviderSvc'
p9
ssS'ChronoStatSvc'
p10
(dp11
S'HiveWhiteBoardSvc'
p12
S'EventDataSvc'
p13
ssS'AthBeginSeq'
p14
(dp15
S'ExtraOutputs'
p16
S'[]'
p17
sS'EvtStore'
p18
S'StoreGateSvc'
p19
sS'ExtraInputs'
p20
S'[]'
p21
sS'Sequential'
p22
S'True'
p23
sS'Members'
p24
S"['AthIncFirerAlg/BeginIncFiringAlg', 'IncidentProcAlg/IncidentProcAlg1']"
p25
sS'NeededResources'
p26
S'[]'
p27
sS'DetStore'
p28
S'StoreGateSvc/DetectorStore'
p29
ssS'CoreDumpSvc'
p30
(dp31
S'Signals'
p32
S'[11, 7, 4, 8]'
p33
ssS'JobOptionsSvc'
p34
(dp35
S'SEARCHPATH'
p36
S'.:/afs/cern.ch/user/s/ssnyder/atlas-work3g/build-x86_64-centos7-gcc8-opt/x86_64-centos7-gcc8-opt/jobOptions:/cvmfs/atlas-nightlies.cern.ch/repo/sw/master--py2_Athena_x86_64-centos7-gcc8-opt/2020-08-14T2101/GAUDI/22.0.18/InstallArea/x86_64-centos7-gcc8-opt/jobOptions:/afs/cern.ch/user/s/ssnyder/atlas-work3g:/cvmfs/atlas-nightlies.cern.ch/repo/sw/master--py2_Athena_x86_64-centos7-gcc8-opt/2020-08-14T2101/Athena/22.0.18/InstallArea/x86_64-centos7-gcc8-opt/jobOptions:/cvmfs/atlas-nightlies.cern.ch/repo/sw/master--py2_Athena_x86_64-centos7-gcc8-opt/2020-08-14T2101/AthenaExternals/22.0.18/InstallArea/x86_64-centos7-gcc8-opt/jobOptions'
p37
sS'AuditStart'
p38
S'False'
p39
sS'AuditInitialize'
p40
S'False'
p41
sS'OutputLevel'
p42
S'3'
sS'AuditServices'
p43
S'False'
p44
sS'AuditStop'
p45
S'False'
p46
sS'GlobalDefaults'
p47
S'[  ]'
p48
sS'DUMPFILE'
p49
S''
sS'AuditFinalize'
p50
S'False'
p51
sS'PYTHONPARAMS'
p52
S''
sS'AuditReinitialize'
p53
S'False'
p54
sS'PATH'
p55
S'../options/job.opts'
p56
sS'ReportUnused'
p57
S'False'
p58
sS'PYTHONACTION'
p59
S''
sS'TYPE'
p60
S'NONE'
p61
sS'AuditRestart'
p62
S'False'
p63
ssS'AuditorSvc'
p64
(dp65
S'Auditors'
p66
S"['AlgContextAuditor/AlgContextAuditor']"
p67
ssS'ClassIDSvc'
p68
(dp69
S'CLIDDBFiles'
p70
S"['clid.db', 'Gaudi_clid.db']"
p71
ssS'AthOutSeq'
p72
(dp73
S'ExtraOutputs'
p74
S'[]'
p75
sS'EvtStore'
p76
S'StoreGateSvc'
p77
sS'ExtraInputs'
p78
S'[]'
p79
sS'StopOverride'
p80
S'True'
p81
sS'Members'
p82
S'[]'
p83
sS'NeededResources'
p84
S'[]'
p85
sS'DetStore'
p86
S'StoreGateSvc/DetectorStore'
p87
ssS'BeginIncFiringAlg'
p88
(dp89
S'ExtraOutputs'
p90
S'[]'
p91
sS'EvtStore'
p92
S'StoreGateSvc'
p93
sS'ExtraInputs'
p94
S'[]'
p95
sS'FireSerial'
p96
S'False'
p97
sS'Incidents'
p98
S"['BeginEvent']"
p99
sS'NeededResources'
p100
S'[]'
p101
sS'DetStore'
p102
S'StoreGateSvc/DetectorStore'
p103
ssS'AthCondSeq'
p104
(dp105
S'ExtraOutputs'
p106
S'[]'
p107
sS'EvtStore'
p108
S'StoreGateSvc'
p109
sS'ExtraInputs'
p110
S'[]'
p111
sS'StopOverride'
p112
S'True'
p113
sS'Members'
p114
S'[]'
p115
sS'NeededResources'
p116
S'[]'
p117
sS'DetStore'
p118
S'StoreGateSvc/DetectorStore'
p119
ssS'AthMasterSeq'
p120
(dp121
S'ExtraOutputs'
p122
S'[]'
p123
sS'EvtStore'
p124
S'StoreGateSvc'
p125
sS'ExtraInputs'
p126
S'[]'
p127
sS'Sequential'
p128
S'True'
p129
sS'Members'
p130
S"['AthSequencer/AthAlgEvtSeq', 'AthSequencer/AthOutSeq']"
p131
sS'NeededResources'
p132
S'[]'
p133
sS'DetStore'
p134
S'StoreGateSvc/DetectorStore'
p135
ssS'AthAlgEvtSeq'
p136
(dp137
S'ExtraOutputs'
p138
S'[]'
p139
sS'EvtStore'
p140
S'StoreGateSvc'
p141
sS'ExtraInputs'
p142
S'[]'
p143
sS'Sequential'
p144
S'True'
p145
sS'StopOverride'
p146
S'True'
p147
sS'Members'
p148
S"['AthSequencer/AthBeginSeq', 'AthSequencer/AthAllAlgSeq', 'AthSequencer/AthEndSeq']"
p149
sS'NeededResources'
p150
S'[]'
p151
sS'DetStore'
p152
S'StoreGateSvc/DetectorStore'
p153
ssS'AthEndSeq'
p154
(dp155
S'ExtraOutputs'
p156
S'[]'
p157
sS'EvtStore'
p158
S'StoreGateSvc'
p159
sS'ExtraInputs'
p160
S'[]'
p161
sS'Sequential'
p162
S'True'
p163
sS'Members'
p164
S"['AthIncFirerAlg/EndIncFiringAlg', 'IncidentProcAlg/IncidentProcAlg2']"
p165
sS'NeededResources'
p166
S'[]'
p167
sS'DetStore'
p168
S'StoreGateSvc/DetectorStore'
p169
ssS'EndIncFiringAlg'
p170
(dp171
S'ExtraOutputs'
p172
S'[]'
p173
sS'EvtStore'
p174
S'StoreGateSvc'
p175
sS'FireSerial'
p176
S'False'
p177
sS'ExtraInputs'
p178
S'[]'
p179
sS'Incidents'
p180
S"['EndEvent']"
p181
sS'NeededResources'
p182
S'[]'
p183
sS'DetStore'
p184
S'StoreGateSvc/DetectorStore'
p185
ssS'Streams'
p186
(dp187
S'ExtraOutputs'
p188
S'[]'
p189
sS'EvtStore'
p190
S'StoreGateSvc'
p191
sS'ExtraInputs'
p192
S'[]'
p193
sS'Members'
p194
S'[]'
p195
sS'NeededResources'
p196
S'[]'
p197
sS'DetStore'
p198
S'StoreGateSvc/DetectorStore'
p199
ssS'NTupleSvc'
p200
(dp201
S'InhibitPathes'
p202
S'[]'
p203
sS'Input'
p204
S'[]'
p205
sS'Output'
p206
S'[]'
p207
ssS'EventPersistencySvc'
p208
(dp209
S'CnvServices'
p210
S'[]'
p211
ssS'AthAlgSeq'
p212
(dp213
S'ExtraOutputs'
p214
S'[]'
p215
sS'IgnoreFilterPassed'
p216
S'True'
p217
sS'EvtStore'
p218
S'StoreGateSvc'
p219
sS'ExtraInputs'
p220
S'[]'
p221
sS'StopOverride'
p222
S'True'
p223
sS'Members'
p224
S'[]'
p225
sS'NeededResources'
p226
S'[]'
p227
sS'DetStore'
p228
S'StoreGateSvc/DetectorStore'
p229
ssS'AthAllAlgSeq'
p230
(dp231
S'ExtraOutputs'
p232
S'[]'
p233
sS'EvtStore'
p234
S'StoreGateSvc'
p235
sS'ExtraInputs'
p236
S'[]'
p237
sS'StopOverride'
p238
S'True'
p239
sS'Members'
p240
S"['AthSequencer/AthCondSeq', 'AthSequencer/AthAlgSeq']"
p241
sS'NeededResources'
p242
S'[]'
p243
sS'DetStore'
p244
S'StoreGateSvc/DetectorStore'
p245
ssS'IncidentProcAlg1'
p246
(dp247
S'ExtraOutputs'
p248
S'[]'
p249
sS'NeededResources'
p250
S'[]'
p251
sS'ExtraInputs'
p252
S'[]'
p253
ssS'IncidentProcAlg2'
p254
(dp255
S'ExtraOutputs'
p256
S'[]'
p257
sS'NeededResources'
p258
S'[]'
p259
sS'ExtraInputs'
p260
S'[]'
p261
ssS'MessageSvc'
p262
(dp263
S'fatalColorCode'
p264
S"[ 'blue' , 'red' ]"
p265
sS'verboseColorCode'
p266
S'[  ]'
p267
sS'defaultLimit'
p268
S'500'
p269
sS'enableSuppression'
p270
S'True'
p271
sS'errorColorCode'
p272
S"[ 'white' , 'red' ]"
p273
sS'alwaysLimit'
p274
S'0'
sS'showStats'
p275
S'False'
p276
sS'AuditReinitialize'
p277
S'False'
p278
sS'setFatal'
p279
S'[  ]'
p280
sS'infoLimit'
p281
S'500'
p282
sS'errorLimit'
p283
S'500'
p284
sS'AuditRestart'
p285
S'False'
p286
sS'Format'
p287
S'% F%18W%S%7W%R%T %0W%M'
p288
sS'AuditServices'
p289
S'False'
p290
sS'AuditInitialize'
p291
S'False'
p292
sS'AuditFinalize'
p293
S'False'
p294
sS'setInfo'
p295
S'[  ]'
p296
sS'setAlways'
p297
S'[  ]'
p298
sS'debugColorCode'
p299
S'[  ]'
p300
sS'alwaysColorCode'
p301
S'[  ]'
p302
sS'warningLimit'
p303
S'500'
p304
sS'useColors'
p305
S'False'
p306
sS'OutputLevel'
p307
S'3'
sS'countInactive'
p308
S'False'
p309
sS'AuditStop'
p310
S'False'
p311
sS'setDebug'
p312
S'[  ]'
p313
sS'timeFormat'
p314
S'%Y-%m-%d %H:%M:%S,%f'
p315
sS'fatalLimit'
p316
S'500'
p317
sS'setError'
p318
S'[  ]'
p319
sS'loggedStreams'
p320
S'{  }'
p321
sS'tracedInactiveSources'
p322
S'[  ]'
p323
sS'setVerbose'
p324
S'[  ]'
p325
sS'statLevel'
p326
S'0'
sS'verboseLimit'
p327
S'500'
p328
sS'debugLimit'
p329
S'500'
p330
sS'AuditStart'
p331
S'False'
p332
sS'infoColorCode'
p333
S'[  ]'
p334
sS'warningColorCode'
p335
S"[ 'yellow' ]"
p336
sS'setWarning'
p337
S'[  ]'
p338
ssS'DetectorStore'
p339
(dp340
S'IncidentSvc'
p341
S'IncidentSvc'
p342
sS'ProxyProviderSvc'
p343
S'ProxyProviderSvc'
p344
ssS'ConditionStore'
p345
(dp346
S'IncidentSvc'
p347
S'IncidentSvc'
p348
sS'ProxyProviderSvc'
p349
S'ProxyProviderSvc'
p350
ssS'ApplicationMgr'
p351
(dp352
S'AlgTypeAliases'
p353
S'{  }'
p354
sS'ReturnCode'
p355
S'0'
sS'TopAlg'
p356
S"[ 'AthSequencer/AthMasterSeq' ]"
p357
sS'PrintAlgsSequence'
p358
S'False'
p359
sS'EventLoop'
p360
S'AthenaEventLoopMgr'
p361
sS'ExtSvcCreates'
p362
S'False'
p363
sS'Environment'
p364
S'{  }'
p365
sS'Exit'
p366
S'0'
sS'ActivateHistory'
p367
S'False'
p368
sS'Runable'
p369
S'AppMgrRunable'
p370
sS'SvcMapping'
p371
S"[ 'EvtDataSvc/EventDataSvc' , 'DetDataSvc/DetectorDataSvc' , 'HistogramSvc/HistogramDataSvc' , 'HbookCnv::PersSvc/HbookHistSvc' , 'RootHistCnv::PersSvc/RootHistSvc' , 'EvtPersistencySvc/EventPersistencySvc' , 'DetPersistencySvc/DetectorPersistencySvc' , 'HistogramPersistencySvc/HistogramPersistencySvc' ]"
p372
sS'AppName'
p373
S'ApplicationMgr'
p374
sS'AuditServices'
p375
S'False'
p376
sS'OutStream'
p377
S'[  ]'
p378
sS'JobOptionsPath'
p379
S''
sS'StalledEventMonitoring'
p380
S'False'
p381
sS'InitializationLoopCheck'
p382
S'False'
p383
sS'JobOptionsSvcType'
p384
S'JobOptionsSvc'
p385
sS'StatusCodeCheck'
p386
S'False'
p387
sS'CreateSvc'
p388
S"[ 'ToolSvc/ToolSvc' , 'AthDictLoaderSvc/AthDictLoaderSvc' , 'CoreDumpSvc/CoreDumpSvc' ]"
p389
sS'AuditTools'
p390
S'False'
p391
sS'AppVersion'
p392
S''
sS'EvtSel'
p393
S''
sS'PluginDebugLevel'
p394
S'0'
sS'OutputLevel'
p395
S'3'
sS'EvtMax'
p396
S'-1'
p397
sS'JobOptionsPreAction'
p398
S''
sS'Go'
p399
S'0'
sS'HistogramPersistency'
p400
S'NONE'
p401
sS'PropertiesPrint'
p402
S'False'
p403
sS'JobOptionsType'
p404
S'NONE'
p405
sS'OutStreamType'
p406
S'AthenaOutputStream'
p407
sS'StopOnSignal'
p408
S'False'
p409
sS'ExtSvc'
p410
S"[ 'ToolSvc/ToolSvc' , 'AuditorSvc/AuditorSvc' , 'MessageSvc/MessageSvc' , 'IncidentSvc/IncidentSvc' , 'EvtPersistencySvc/EventPersistencySvc' , 'HistogramSvc/HistogramDataSvc' , 'NTupleSvc/NTupleSvc' , 'RndmGenSvc/RndmGenSvc' , 'ChronoStatSvc/ChronoStatSvc' , 'StoreGateSvc/StoreGateSvc' , 'StoreGateSvc/DetectorStore' , 'StoreGateSvc/HistoryStore' , 'StoreGateSvc/ConditionStore' , 'ClassIDSvc/ClassIDSvc' , 'AthDictLoaderSvc/AthDictLoaderSvc' , 'CoreDumpSvc/CoreDumpSvc' , 'JobOptionsSvc/JobOptionsSvc' ]"
p411
sS'AuditAlgorithms'
p412
S'False'
p413
sS'Dlls'
p414
S'[  ]'
p415
sS'SvcOptMapping'
p416
S'[  ]'
p417
sS'MessageSvcType'
p418
S'MessageSvc'
p419
sS'JobOptionsPostAction'
p420
S''
ssS'HistogramDataSvc'
p421
(dp422
S'Input'
p423
S'[]'
p424
sS'InhibitPathes'
p425
S'[]'
p426
ssS'HistoryStore'
p427
(dp428
S'IncidentSvc'
p429
S'IncidentSvc'
p430
sS'ProxyProviderSvc'
p431
S'ProxyProviderSvc'
p432
ss.ccollections
defaultdict
p1
(c__builtin__
dict
p2
tRp3
S'JobOptionsSvc'
p4
(dp5
S'GlobalDefaults'
p6
S'[]'
p7
ssS'CoreDumpSvc'
p8
(dp9
S'Signals'
p10
S'[11, 7, 4, 8]'
p11
ssS'ApplicationMgr'
p12
(dp13
S'Runable'
p14
S'AppMgrRunable'
p15
sS'ReturnCode'
p16
S'0'
sS'TopAlg'
p17
S"['AthSequencer/AthMasterSeq']"
p18
sS'PrintAlgsSequence'
p19
S'False'
p20
sS'EventLoop'
p21
S'AthenaEventLoopMgr'
p22
sS'ExtSvcCreates'
p23
g20
sS'Environment'
p24
S'{}'
p25
sS'JobOptionsPath'
p26
S''
sS'Dlls'
p27
S'[]'
p28
sS'SvcMapping'
p29
S"['EvtDataSvc/EventDataSvc', 'DetDataSvc/DetectorDataSvc', 'HistogramSvc/HistogramDataSvc', 'HbookCnv::PersSvc/HbookHistSvc', 'RootHistCnv::PersSvc/RootHistSvc', 'EvtPersistencySvc/EventPersistencySvc', 'DetPersistencySvc/DetectorPersistencySvc', 'HistogramPersistencySvc/HistogramPersistencySvc']"
p30
sS'AppName'
p31
S'ApplicationMgr'
p32
sS'AuditServices'
p33
g20
sS'OutStream'
p34
S'[]'
p35
sS'ActivateHistory'
p36
g20
sS'StalledEventMonitoring'
p37
g20
sS'InitializationLoopCheck'
p38
g20
sS'JobOptionsSvcType'
p39
S'JobOptionsSvc'
p40
sS'JobOptionsPreAction'
p41
S''
sS'StatusCodeCheck'
p42
g20
sS'AuditTools'
p43
g20
sS'AlgTypeAliases'
p44
S'{}'
p45
sS'EvtSel'
p46
S''
sS'PluginDebugLevel'
p47
S'0'
sS'OutputLevel'
p48
S'3'
sS'AppVersion'
p49
S''
sS'EvtMax'
p50
S'-1'
p51
sS'SvcOptMapping'
p52
S'[]'
p53
sS'CreateSvc'
p54
S"['ToolSvc/ToolSvc', 'AthDictLoaderSvc/AthDictLoaderSvc', 'CoreDumpSvc/CoreDumpSvc']"
p55
sS'PropertiesPrint'
p56
g20
sS'JobOptionsType'
p57
S'NONE'
p58
sS'OutStreamType'
p59
S'AthenaOutputStream'
p60
sS'StopOnSignal'
p61
g20
sS'ExtSvc'
p62
S"['ToolSvc/ToolSvc', 'AuditorSvc/AuditorSvc', 'MessageSvc/MessageSvc', 'IncidentSvc/IncidentSvc', 'EvtPersistencySvc/EventPersistencySvc', 'HistogramSvc/HistogramDataSvc', 'NTupleSvc/NTupleSvc', 'RndmGenSvc/RndmGenSvc', 'ChronoStatSvc/ChronoStatSvc', 'StoreGateSvc/StoreGateSvc', 'StoreGateSvc/DetectorStore', 'StoreGateSvc/HistoryStore', 'StoreGateSvc/ConditionStore', 'ClassIDSvc/ClassIDSvc', 'AthDictLoaderSvc/AthDictLoaderSvc', 'CoreDumpSvc/CoreDumpSvc', 'JobOptionsSvc/JobOptionsSvc']"
p63
sS'AuditAlgorithms'
p64
g20
sS'HistogramPersistency'
p65
S'NONE'
p66
sS'MessageSvcType'
p67
S'MessageSvc'
p68
sS'JobOptionsPostAction'
p69
S''
ssS'MessageSvc'
p70
(dp71
S'verboseColorCode'
p72
S'[]'
p73
sS'setInfo'
p74
S'[]'
p75
sS'tracedInactiveSources'
p76
S'[]'
p77
sS'setAlways'
p78
S'[]'
p79
sS'debugColorCode'
p80
S'[]'
p81
sS'alwaysColorCode'
p82
S'[]'
p83
sS'enableSuppression'
p84
S'True'
p85
sS'OutputLevel'
p86
S'3'
sS'warningColorCode'
p87
S"['yellow']"
p88
sS'errorColorCode'
p89
S"['white', 'red']"
p90
sS'setVerbose'
p91
S'[]'
p92
sS'infoColorCode'
p93
S'[]'
p94
sS'setDebug'
p95
S'[]'
p96
sS'setFatal'
p97
S'[]'
p98
sS'setError'
p99
S'[]'
p100
sS'fatalColorCode'
p101
S"['blue', 'red']"
p102
sS'setWarning'
p103
S'[]'
p104
ss.(lp1
.