ccollections
defaultdict
p1
(c__builtin__
dict
p2
tRp3
S'StoreGateSvc'
p4
(dp5
S'IncidentSvc'
p6
S'IncidentSvc'
p7
sS'ProxyProviderSvc'
p8
S'ProxyProviderSvc'
p9
ssS'ChronoStatSvc'
p10
(dp11
S'HiveWhiteBoardSvc'
p12
S'EventDataSvc'
p13
ssS'AthBeginSeq'
p14
(dp15
S'ExtraOutputs'
p16
S'[]'
p17
sS'EvtStore'
p18
S'StoreGateSvc'
p19
sS'ExtraInputs'
p20
S'[]'
p21
sS'Sequential'
p22
S'True'
p23
sS'Members'
p24
S"['AthIncFirerAlg/BeginIncFiringAlg', 'IncidentProcAlg/IncidentProcAlg1']"
p25
sS'NeededResources'
p26
S'[]'
p27
sS'DetStore'
p28
S'StoreGateSvc/DetectorStore'
p29
ssS'CoreDumpSvc'
p30
(dp31
S'Signals'
p32
S'[11, 7, 4, 8]'
p33
sS'FatalHandler'
p34
S'-1'
p35
ssS'AuditorSvc'
p36
(dp37
S'Auditors'
p38
S"['AlgContextAuditor/AlgContextAuditor']"
p39
ssS'ClassIDSvc'
p40
(dp41
S'CLIDDBFiles'
p42
S"['clid.db', 'Gaudi_clid.db']"
p43
ssS'AthOutSeq'
p44
(dp45
S'ExtraOutputs'
p46
S'[]'
p47
sS'EvtStore'
p48
S'StoreGateSvc'
p49
sS'ExtraInputs'
p50
S'[]'
p51
sS'StopOverride'
p52
S'True'
p53
sS'Members'
p54
S'[]'
p55
sS'NeededResources'
p56
S'[]'
p57
sS'DetStore'
p58
S'StoreGateSvc/DetectorStore'
p59
ssS'BeginIncFiringAlg'
p60
(dp61
S'ExtraOutputs'
p62
S'[]'
p63
sS'EvtStore'
p64
S'StoreGateSvc'
p65
sS'ExtraInputs'
p66
S'[]'
p67
sS'FireSerial'
p68
S'False'
p69
sS'Incidents'
p70
S"['BeginEvent']"
p71
sS'NeededResources'
p72
S'[]'
p73
sS'DetStore'
p74
S'StoreGateSvc/DetectorStore'
p75
ssS'AthCondSeq'
p76
(dp77
S'ExtraOutputs'
p78
S'[]'
p79
sS'EvtStore'
p80
S'StoreGateSvc'
p81
sS'ExtraInputs'
p82
S'[]'
p83
sS'Members'
p84
S'[]'
p85
sS'NeededResources'
p86
S'[]'
p87
sS'DetStore'
p88
S'StoreGateSvc/DetectorStore'
p89
ssS'AthMasterSeq'
p90
(dp91
S'ExtraOutputs'
p92
S'[]'
p93
sS'EvtStore'
p94
S'StoreGateSvc'
p95
sS'ExtraInputs'
p96
S'[]'
p97
sS'Sequential'
p98
S'True'
p99
sS'Members'
p100
S"['AthSequencer/AthAlgEvtSeq', 'AthSequencer/AthOutSeq', 'AthSequencer/AthRegSeq']"
p101
sS'NeededResources'
p102
S'[]'
p103
sS'DetStore'
p104
S'StoreGateSvc/DetectorStore'
p105
ssS'AthAlgEvtSeq'
p106
(dp107
S'ExtraOutputs'
p108
S'[]'
p109
sS'EvtStore'
p110
S'StoreGateSvc'
p111
sS'ExtraInputs'
p112
S'[]'
p113
sS'Sequential'
p114
S'True'
p115
sS'StopOverride'
p116
S'True'
p117
sS'Members'
p118
S"['AthSequencer/AthBeginSeq', 'AthSequencer/AthAllAlgSeq', 'AthSequencer/AthEndSeq']"
p119
sS'NeededResources'
p120
S'[]'
p121
sS'DetStore'
p122
S'StoreGateSvc/DetectorStore'
p123
ssS'AthEndSeq'
p124
(dp125
S'ExtraOutputs'
p126
S'[]'
p127
sS'EvtStore'
p128
S'StoreGateSvc'
p129
sS'ExtraInputs'
p130
S'[]'
p131
sS'Sequential'
p132
S'True'
p133
sS'Members'
p134
S"['AthIncFirerAlg/EndIncFiringAlg', 'IncidentProcAlg/IncidentProcAlg2']"
p135
sS'NeededResources'
p136
S'[]'
p137
sS'DetStore'
p138
S'StoreGateSvc/DetectorStore'
p139
ssS'AthRegSeq'
p140
(dp141
S'ExtraOutputs'
p142
S'[]'
p143
sS'EvtStore'
p144
S'StoreGateSvc'
p145
sS'ExtraInputs'
p146
S'[]'
p147
sS'Members'
p148
S'[]'
p149
sS'NeededResources'
p150
S'[]'
p151
sS'DetStore'
p152
S'StoreGateSvc/DetectorStore'
p153
ssS'EndIncFiringAlg'
p154
(dp155
S'ExtraOutputs'
p156
S'[]'
p157
sS'EvtStore'
p158
S'StoreGateSvc'
p159
sS'ExtraInputs'
p160
S'[]'
p161
sS'FireSerial'
p162
S'False'
p163
sS'Incidents'
p164
S"['EndEvent']"
p165
sS'NeededResources'
p166
S'[]'
p167
sS'DetStore'
p168
S'StoreGateSvc/DetectorStore'
p169
ssS'Streams'
p170
(dp171
S'ExtraOutputs'
p172
S'[]'
p173
sS'EvtStore'
p174
S'StoreGateSvc'
p175
sS'ExtraInputs'
p176
S'[]'
p177
sS'Members'
p178
S'[]'
p179
sS'NeededResources'
p180
S'[]'
p181
sS'DetStore'
p182
S'StoreGateSvc/DetectorStore'
p183
ssS'NTupleSvc'
p184
(dp185
S'InhibitPathes'
p186
S'[]'
p187
sS'Input'
p188
S'[]'
p189
sS'Output'
p190
S'[]'
p191
ssS'EventPersistencySvc'
p192
(dp193
S'CnvServices'
p194
S'[]'
p195
ssS'AthAlgSeq'
p196
(dp197
S'ExtraOutputs'
p198
S'[]'
p199
sS'IgnoreFilterPassed'
p200
S'True'
p201
sS'EvtStore'
p202
S'StoreGateSvc'
p203
sS'ExtraInputs'
p204
S'[]'
p205
sS'StopOverride'
p206
S'True'
p207
sS'Members'
p208
S'[]'
p209
sS'NeededResources'
p210
S'[]'
p211
sS'DetStore'
p212
S'StoreGateSvc/DetectorStore'
p213
ssS'AthAllAlgSeq'
p214
(dp215
S'ExtraOutputs'
p216
S'[]'
p217
sS'EvtStore'
p218
S'StoreGateSvc'
p219
sS'ExtraInputs'
p220
S'[]'
p221
sS'Members'
p222
S"['AthSequencer/AthCondSeq', 'AthSequencer/AthAlgSeq']"
p223
sS'NeededResources'
p224
S'[]'
p225
sS'DetStore'
p226
S'StoreGateSvc/DetectorStore'
p227
ssS'AthenaSealSvc'
p228
(dp229
S'DictNames'
p230
S'[]'
p231
sS'IgnoreDicts'
p232
S"['libSealCLHEPDict']"
p233
sS'IgnoreNames'
p234
S"['Gaudi', 'GaudiPython::Interface', 'GaudiPython::Helper', 'FactoryTable', 'IInterface', 'IFactory', 'IAlgFactory', 'ISvcFactory', 'IToolFactory', 'InterfaceID', 'StatusCode', 'IAppMgrUI', 'IProperty', 'Property', 'std::vector<Property*>', 'std::vector<const Property*>', 'std::list<IAlgorithm*>', 'std::list<IService*>', 'std::list<const IFactory*>', 'std::vector<IRegistry*>', 'SimpleProperty', 'SimplePropertyRef', 'IService', 'IAlgorithm', 'ISvcManager', 'IAlgManager', 'IJobOptionsSvc', 'ISvcLocator', 'IEventProcessor', 'IDataProviderSvc', 'IDataManagerSvc', 'IRegistry', 'ContainedObject', 'std::vector<const ContainedObject*>', 'DataObject', 'IHistogramSvc', 'AIDA::I', 'Algorithm', 'Service', 'GaudiPython::PyAlgorithm', 'GaudiPython::PyAlgorithmWrap', 'IParticlePropertySvc', 'ParticleProperty', 'StoreGateSvc', 'IStoragePolicy', 'CharDbArray', 'DoubleDbArray', 'FloatDbArray', 'IntDbArray', 'LongDbArray', 'ShortDbArray', 'AthenaEventLoopMgr', 'MinimalEventLoopMgr', 'PyAthenaEventLoopMgr', 'NTuple::Directory', 'NTuple::File ', 'NTuple::Tuple', 'INTuple', 'NTuple::Tuple', 'greater<int>', 'allocator<', 'string']"
p235
ssS'IncidentProcAlg2'
p236
(dp237
S'ExtraOutputs'
p238
S'[]'
p239
sS'NeededResources'
p240
S'[]'
p241
sS'ExtraInputs'
p242
S'[]'
p243
ssS'DetectorStore'
p244
(dp245
S'IncidentSvc'
p246
S'IncidentSvc'
p247
sS'ProxyProviderSvc'
p248
S'ProxyProviderSvc'
p249
ssS'ConditionStore'
p250
(dp251
S'IncidentSvc'
p252
S'IncidentSvc'
p253
sS'ProxyProviderSvc'
p254
S'ProxyProviderSvc'
p255
ssS'IncidentProcAlg1'
p256
(dp257
S'ExtraOutputs'
p258
S'[]'
p259
sS'NeededResources'
p260
S'[]'
p261
sS'ExtraInputs'
p262
S'[]'
p263
ssS'HistogramDataSvc'
p264
(dp265
S'Input'
p266
S'[]'
p267
sS'InhibitPathes'
p268
S'[]'
p269
ssS'HistoryStore'
p270
(dp271
S'IncidentSvc'
p272
S'IncidentSvc'
p273
sS'ProxyProviderSvc'
p274
S'ProxyProviderSvc'
p275
ss.ccollections
defaultdict
p1
(c__builtin__
dict
p2
tRp3
S'CoreDumpSvc'
p4
(dp5
S'AuditInitialize'
p6
S'False'
p7
sS'OutputLevel'
p8
S'0'
sS'AuditServices'
p9
g7
sS'AuditStart'
p10
g7
sS'CallOldHandler'
p11
S'True'
p12
sS'Signals'
p13
S'[11, 7, 4, 8]'
p14
sS'AuditFinalize'
p15
g7
sS'AuditStop'
p16
g7
sS'AuditReinitialize'
p17
g7
sS'TimeOut'
p18
S'1.8e+12'
p19
sS'FatalHandler'
p20
S'0'
sS'AuditRestart'
p21
g7
sS'CoreDumpStream'
p22
S'stdout'
p23
ssS'MessageSvc'
p24
(dp25
S'verboseColorCode'
p26
S'[]'
p27
sS'defaultLimit'
p28
S'500'
p29
sS'enableSuppression'
p30
g12
sS'errorColorCode'
p31
S"['white', 'red']"
p32
sS'alwaysLimit'
p33
S'0'
sS'showStats'
p34
g7
sS'AuditReinitialize'
p35
g7
sS'setFatal'
p36
S'[]'
p37
sS'infoLimit'
p38
S'500'
p39
sS'errorLimit'
p40
S'500'
p41
sS'AuditRestart'
p42
g7
sS'Format'
p43
S'% F%18W%S%7W%R%T %0W%M'
p44
sS'AuditServices'
p45
g7
sS'alwaysColorCode'
p46
S'[]'
p47
sS'AuditFinalize'
p48
g7
sS'setError'
p49
S'[]'
p50
sS'setInfo'
p51
S'[]'
p52
sS'setAlways'
p53
S'[]'
p54
sS'debugColorCode'
p55
S'[]'
p56
sS'AuditInitialize'
p57
g7
sS'warningLimit'
p58
S'500'
p59
sS'useColors'
p60
g7
sS'OutputLevel'
p61
S'3'
sS'countInactive'
p62
g7
sS'AuditStop'
p63
g7
sS'setDebug'
p64
S'[]'
p65
sS'timeFormat'
p66
S'%Y-%m-%d %H:%M:%S,%f'
p67
sS'fatalLimit'
p68
S'500'
p69
sS'fatalColorCode'
p70
S"['blue', 'red']"
p71
sS'loggedStreams'
p72
S'{}'
p73
sS'tracedInactiveSources'
p74
S'[]'
p75
sS'setVerbose'
p76
S'[]'
p77
sS'statLevel'
p78
S'0'
sS'verboseLimit'
p79
S'500'
p80
sS'debugLimit'
p81
S'500'
p82
sS'AuditStart'
p83
g7
sS'infoColorCode'
p84
S'[]'
p85
sS'setWarning'
p86
S'[]'
p87
sS'warningColorCode'
p88
S"['yellow']"
p89
ssS'AthenaSealSvc'
p90
(dp91
S'UseChronoStag'
p92
g12
sS'AuditInitialize'
p93
g7
sS'AuditServices'
p94
g7
sS'OutputLevel'
p95
S'0'
sS'AuditStart'
p96
g7
sS'IgnoreNames'
p97
S"['Gaudi', 'GaudiPython::Interface', 'GaudiPython::Helper', 'FactoryTable', 'IInterface', 'IFactory', 'IAlgFactory', 'ISvcFactory', 'IToolFactory', 'InterfaceID', 'StatusCode', 'IAppMgrUI', 'IProperty', 'Property', 'std::vector<Property*>', 'std::vector<const Property*>', 'std::list<IAlgorithm*>', 'std::list<IService*>', 'std::list<const IFactory*>', 'std::vector<IRegistry*>', 'SimpleProperty', 'SimplePropertyRef', 'IService', 'IAlgorithm', 'ISvcManager', 'IAlgManager', 'IJobOptionsSvc', 'ISvcLocator', 'IEventProcessor', 'IDataProviderSvc', 'IDataManagerSvc', 'IRegistry', 'ContainedObject', 'std::vector<const ContainedObject*>', 'DataObject', 'IHistogramSvc', 'AIDA::I', 'Algorithm', 'Service', 'GaudiPython::PyAlgorithm', 'GaudiPython::PyAlgorithmWrap', 'IParticlePropertySvc', 'ParticleProperty', 'StoreGateSvc', 'IStoragePolicy', 'CharDbArray', 'DoubleDbArray', 'FloatDbArray', 'IntDbArray', 'LongDbArray', 'ShortDbArray', 'AthenaEventLoopMgr', 'MinimalEventLoopMgr', 'PyAthenaEventLoopMgr', 'NTuple::Directory', 'NTuple::File ', 'NTuple::Tuple', 'INTuple', 'NTuple::Tuple', 'greater<int>', 'allocator<', 'string']"
p98
sS'AuditFinalize'
p99
g7
sS'AuditStop'
p100
g7
sS'AuditReinitialize'
p101
g7
sS'CheckDictAtInit'
p102
g7
sS'DictNames'
p103
S'[]'
p104
sS'AuditRestart'
p105
g7
sS'CheckDictionary'
p106
g12
sS'LoadAllDicts'
p107
g7
sS'IgnoreDicts'
p108
S"['libSealCLHEPDict']"
p109
ssS'JobOptionsSvc'
p110
(dp111
S'AuditStop'
p112
g7
sS'SEARCHPATH'
p113
S'.:/afs/cern.ch/work/s/smh/MR_21423/bld/x86_64-centos7-gcc8-opt/jobOptions:/cvmfs/atlas-nightlies.cern.ch/repo/sw/master/2019-03-03T2138/GAUDI/22.0.1/InstallArea/x86_64-centos7-gcc8-opt/jobOptions:/afs/cern.ch/work/s/smh/MR_21423/bld:/cvmfs/atlas-nightlies.cern.ch/repo/sw/master/2019-03-03T2138/Athena/22.0.1/InstallArea/x86_64-centos7-gcc8-opt/jobOptions:/cvmfs/atlas-nightlies.cern.ch/repo/sw/master/2019-03-03T2138/AthenaExternals/22.0.1/InstallArea/x86_64-centos7-gcc8-opt/jobOptions'
p114
sS'AuditInitialize'
p115
g7
sS'AuditServices'
p116
g7
sS'OutputLevel'
p117
S'3'
sS'AuditStart'
p118
g7
sS'DUMPFILE'
p119
S''
sS'AuditFinalize'
p120
g7
sS'PYTHONPARAMS'
p121
S''
sS'AuditReinitialize'
p122
g7
sS'PATH'
p123
S'../options/job.opts'
p124
sS'PYTHONACTION'
p125
S''
sS'TYPE'
p126
S'NONE'
p127
sS'AuditRestart'
p128
g7
ssS'ToolSvc'
p129
(dp130
S'AuditInitialize'
p131
g7
sS'OutputLevel'
p132
S'0'
sS'AuditServices'
p133
g7
sS'AuditStart'
p134
g7
sS'AuditFinalize'
p135
g7
sS'AuditStop'
p136
g7
sS'AuditReinitialize'
p137
g7
sS'AuditRestart'
p138
g7
ssS'ApplicationMgr'
p139
(dp140
S'Runable'
p141
S'AppMgrRunable'
p142
sS'ReturnCode'
p143
S'0'
sS'TopAlg'
p144
S"['AthSequencer/AthMasterSeq']"
p145
sS'EventLoop'
p146
S'AthenaEventLoopMgr'
p147
sS'ExtSvcCreates'
p148
g7
sS'Environment'
p149
S'{}'
p150
sS'JobOptionsPath'
p151
S''
sS'Dlls'
p152
S'[]'
p153
sS'SvcMapping'
p154
S"['EvtDataSvc/EventDataSvc', 'DetDataSvc/DetectorDataSvc', 'HistogramSvc/HistogramDataSvc', 'HbookCnv::PersSvc/HbookHistSvc', 'RootHistCnv::PersSvc/RootHistSvc', 'EvtPersistencySvc/EventPersistencySvc', 'DetPersistencySvc/DetectorPersistencySvc', 'HistogramPersistencySvc/HistogramPersistencySvc']"
p155
sS'AppName'
p156
S'ApplicationMgr'
p157
sS'AuditServices'
p158
g7
sS'OutStream'
p159
S'[]'
p160
sS'ActivateHistory'
p161
g7
sS'StalledEventMonitoring'
p162
g7
sS'InitializationLoopCheck'
p163
g7
sS'JobOptionsSvcType'
p164
S'JobOptionsSvc'
p165
sS'JobOptionsPreAction'
p166
S''
sS'StatusCodeCheck'
p167
g12
sS'AuditTools'
p168
g7
sS'AlgTypeAliases'
p169
S'{}'
p170
sS'EvtSel'
p171
S''
sS'PluginDebugLevel'
p172
S'0'
sS'OutputLevel'
p173
S'3'
sS'AppVersion'
p174
S''
sS'EvtMax'
p175
S'-1'
p176
sS'SvcOptMapping'
p177
S'[]'
p178
sS'CreateSvc'
p179
S"['ToolSvc/ToolSvc', 'AthDictLoaderSvc/AthDictLoaderSvc', 'AthenaSealSvc/AthenaSealSvc', 'CoreDumpSvc/CoreDumpSvc']"
p180
sS'PropertiesPrint'
p181
g7
sS'JobOptionsType'
p182
S'NONE'
p183
sS'OutStreamType'
p184
S'AthenaOutputStream'
p185
sS'StopOnSignal'
p186
g7
sS'ExtSvc'
p187
S"['ToolSvc/ToolSvc', 'AuditorSvc/AuditorSvc', 'MessageSvc/MessageSvc', 'IncidentSvc/IncidentSvc', 'EvtPersistencySvc/EventPersistencySvc', 'HistogramSvc/HistogramDataSvc', 'NTupleSvc/NTupleSvc', 'RndmGenSvc/RndmGenSvc', 'ChronoStatSvc/ChronoStatSvc', 'StatusCodeSvc/StatusCodeSvc', 'StoreGateSvc/StoreGateSvc', 'StoreGateSvc/DetectorStore', 'StoreGateSvc/HistoryStore', 'StoreGateSvc/ConditionStore', 'ClassIDSvc/ClassIDSvc', 'AthDictLoaderSvc/AthDictLoaderSvc', 'AthenaSealSvc/AthenaSealSvc', 'CoreDumpSvc/CoreDumpSvc', 'JobOptionsSvc/JobOptionsSvc']"
p188
sS'AuditAlgorithms'
p189
g7
sS'HistogramPersistency'
p190
S'NONE'
p191
sS'MessageSvcType'
p192
S'MessageSvc'
p193
sS'JobOptionsPostAction'
p194
S''
ssS'StatusCodeSvc'
p195
(dp196
S'AuditRestart'
p197
g7
sS'AuditInitialize'
p198
g7
sS'OutputLevel'
p199
S'3'
sS'AuditServices'
p200
g7
sS'AuditStart'
p201
g7
sS'AbortOnError'
p202
g12
sS'Filter'
p203
S"['Reflex::NewDelFunctionsT<StatusCode>::delete_T(void*)', 'ROOT::Reflex::NewDelFunctionsT<StatusCode>::delete_T(void*)']"
p204
sS'AuditFinalize'
p205
g7
sS'AuditStop'
p206
g7
sS'AuditReinitialize'
p207
g7
sS'SuppressCheck'
p208
g7
sS'IgnoreDicts'
p209
g12
ssS'AthDictLoaderSvc'
p210
(dp211
S'AuditInitialize'
p212
g7
sS'OutputLevel'
p213
S'0'
sS'AuditServices'
p214
g7
sS'AuditStart'
p215
g7
sS'DoRecursiveLoad'
p216
g12
sS'AuditFinalize'
p217
g7
sS'AuditStop'
p218
g7
sS'AuditReinitialize'
p219
g7
sS'AuditRestart'
p220
g7
ss.(lp1
.