ccollections
defaultdict
p1
(c__builtin__
dict
p2
tRp3
S'StoreGateSvc'
p4
(dp5
S'IncidentSvc'
p6
S'IncidentSvc'
p7
sS'ProxyProviderSvc'
p8
S'ProxyProviderSvc'
p9
ssS'ChronoStatSvc'
p10
(dp11
S'HiveWhiteBoardSvc'
p12
S'EventDataSvc'
p13
ssS'EventDataSvc'
p14
(dp15
S'HiveStoreSvc'
p16
S'StoreGateSvc'
p17
sS'NSlots'
p18
S'1'
ssS'AthBeginSeq'
p19
(dp20
S'ExtraOutputs'
p21
S'[]'
p22
sS'EvtStore'
p23
S'StoreGateSvc'
p24
sS'ExtraInputs'
p25
S'[]'
p26
sS'Sequential'
p27
S'True'
p28
sS'Members'
p29
S"['AthIncFirerAlg/BeginIncFiringAlg', 'IncidentProcAlg/IncidentProcAlg1']"
p30
sS'NeededResources'
p31
S'[]'
p32
sS'DetStore'
p33
S'StoreGateSvc/DetectorStore'
p34
ssS'TimelineSvc'
p35
(dp36
S'Partial'
p37
S'False'
p38
sS'RecordTimeline'
p39
S'True'
p40
ssS'AvalancheSchedulerSvc'
p41
(dp42
S'ThreadPoolSize'
p43
S'1'
sS'OutputLevel'
p44
S'3'
sS'DataLoaderAlg'
p45
S'SGInputLoader'
p46
sS'ShowControlFlow'
p47
S'False'
p48
sS'CheckDependencies'
p49
S'True'
p50
sS'ShowDataDependencies'
p51
S'False'
p52
ssS'SGInputLoader'
p53
(dp54
S'ExtraOutputs'
p55
S'[]'
p56
sS'Load'
p57
S'[]'
p58
sS'FailIfNoProxy'
p59
S'False'
p60
sS'EvtStore'
p61
S'StoreGateSvc'
p62
sS'ExtraInputs'
p63
S'[]'
p64
sS'NeededResources'
p65
S'[]'
p66
sS'DetStore'
p67
S'StoreGateSvc/DetectorStore'
p68
ssS'CoreDumpSvc'
p69
(dp70
S'Signals'
p71
S'[11, 7, 4, 8]'
p72
sS'FatalHandler'
p73
S'-1'
p74
ssS'AuditorSvc'
p75
(dp76
S'Auditors'
p77
S"['AlgContextAuditor/AlgContextAuditor', 'SGCommitAuditor/SGCommitAuditor']"
p78
ssS'ClassIDSvc'
p79
(dp80
S'CLIDDBFiles'
p81
S"['clid.db', 'Gaudi_clid.db']"
p82
ssS'AthOutSeq'
p83
(dp84
S'ExtraOutputs'
p85
S'[]'
p86
sS'EvtStore'
p87
S'StoreGateSvc'
p88
sS'ExtraInputs'
p89
S'[]'
p90
sS'StopOverride'
p91
S'True'
p92
sS'Members'
p93
S'[]'
p94
sS'NeededResources'
p95
S'[]'
p96
sS'DetStore'
p97
S'StoreGateSvc/DetectorStore'
p98
ssS'BeginIncFiringAlg'
p99
(dp100
S'ExtraOutputs'
p101
S'[]'
p102
sS'EvtStore'
p103
S'StoreGateSvc'
p104
sS'ExtraInputs'
p105
S'[]'
p106
sS'FireSerial'
p107
S'False'
p108
sS'Incidents'
p109
S"['BeginEvent']"
p110
sS'NeededResources'
p111
S'[]'
p112
sS'DetStore'
p113
S'StoreGateSvc/DetectorStore'
p114
ssS'AthCondSeq'
p115
(dp116
S'ExtraOutputs'
p117
S'[]'
p118
sS'EvtStore'
p119
S'StoreGateSvc'
p120
sS'ExtraInputs'
p121
S'[]'
p122
sS'StopOverride'
p123
S'True'
p124
sS'Members'
p125
S'[]'
p126
sS'NeededResources'
p127
S'[]'
p128
sS'DetStore'
p129
S'StoreGateSvc/DetectorStore'
p130
ssS'AthMasterSeq'
p131
(dp132
S'ExtraOutputs'
p133
S'[]'
p134
sS'EvtStore'
p135
S'StoreGateSvc'
p136
sS'ExtraInputs'
p137
S'[]'
p138
sS'Sequential'
p139
S'True'
p140
sS'Members'
p141
S"['AthSequencer/AthAlgEvtSeq', 'AthSequencer/AthOutSeq', 'AthSequencer/AthRegSeq']"
p142
sS'NeededResources'
p143
S'[]'
p144
sS'DetStore'
p145
S'StoreGateSvc/DetectorStore'
p146
ssS'AthAlgEvtSeq'
p147
(dp148
S'ExtraOutputs'
p149
S'[]'
p150
sS'EvtStore'
p151
S'StoreGateSvc'
p152
sS'ExtraInputs'
p153
S'[]'
p154
sS'Sequential'
p155
S'True'
p156
sS'StopOverride'
p157
S'True'
p158
sS'Members'
p159
S"['AthSequencer/AthBeginSeq', 'AthSequencer/AthAllAlgSeq', 'AthSequencer/AthEndSeq']"
p160
sS'NeededResources'
p161
S'[]'
p162
sS'DetStore'
p163
S'StoreGateSvc/DetectorStore'
p164
ssS'AthEndSeq'
p165
(dp166
S'ExtraOutputs'
p167
S'[]'
p168
sS'EvtStore'
p169
S'StoreGateSvc'
p170
sS'ExtraInputs'
p171
S'[]'
p172
sS'Sequential'
p173
S'True'
p174
sS'Members'
p175
S"['AthIncFirerAlg/EndIncFiringAlg', 'IncidentProcAlg/IncidentProcAlg2']"
p176
sS'NeededResources'
p177
S'[]'
p178
sS'DetStore'
p179
S'StoreGateSvc/DetectorStore'
p180
ssS'AlgResourcePool'
p181
(dp182
S'OutputLevel'
p183
S'3'
sS'TopAlg'
p184
S"['AthMasterSeq']"
p185
ssS'AthRegSeq'
p186
(dp187
S'ExtraOutputs'
p188
S'[]'
p189
sS'EvtStore'
p190
S'StoreGateSvc'
p191
sS'ExtraInputs'
p192
S'[]'
p193
sS'StopOverride'
p194
S'True'
p195
sS'Members'
p196
S'[]'
p197
sS'NeededResources'
p198
S'[]'
p199
sS'DetStore'
p200
S'StoreGateSvc/DetectorStore'
p201
ssS'EndIncFiringAlg'
p202
(dp203
S'ExtraOutputs'
p204
S'[]'
p205
sS'EvtStore'
p206
S'StoreGateSvc'
p207
sS'ExtraInputs'
p208
S'[]'
p209
sS'FireSerial'
p210
S'False'
p211
sS'Incidents'
p212
S"['EndEvent']"
p213
sS'NeededResources'
p214
S'[]'
p215
sS'DetStore'
p216
S'StoreGateSvc/DetectorStore'
p217
ssS'Streams'
p218
(dp219
S'ExtraOutputs'
p220
S'[]'
p221
sS'EvtStore'
p222
S'StoreGateSvc'
p223
sS'ExtraInputs'
p224
S'[]'
p225
sS'Members'
p226
S'[]'
p227
sS'NeededResources'
p228
S'[]'
p229
sS'DetStore'
p230
S'StoreGateSvc/DetectorStore'
p231
ssS'NTupleSvc'
p232
(dp233
S'InhibitPathes'
p234
S'[]'
p235
sS'Input'
p236
S'[]'
p237
sS'Output'
p238
S'[]'
p239
ssS'EventPersistencySvc'
p240
(dp241
S'CnvServices'
p242
S'[]'
p243
ssS'AthAlgSeq'
p244
(dp245
S'ExtraOutputs'
p246
S'[]'
p247
sS'Members'
p248
S"['SGInputLoader/SGInputLoader']"
p249
sS'EvtStore'
p250
S'StoreGateSvc'
p251
sS'ExtraInputs'
p252
S'[]'
p253
sS'StopOverride'
p254
S'True'
p255
sS'IgnoreFilterPassed'
p256
S'True'
p257
sS'NeededResources'
p258
S'[]'
p259
sS'DetStore'
p260
S'StoreGateSvc/DetectorStore'
p261
ssS'AthAllAlgSeq'
p262
(dp263
S'ExtraOutputs'
p264
S'[]'
p265
sS'EvtStore'
p266
S'StoreGateSvc'
p267
sS'ExtraInputs'
p268
S'[]'
p269
sS'StopOverride'
p270
S'True'
p271
sS'Members'
p272
S"['AthSequencer/AthAlgSeq', 'AthSequencer/AthCondSeq']"
p273
sS'NeededResources'
p274
S'[]'
p275
sS'DetStore'
p276
S'StoreGateSvc/DetectorStore'
p277
ssS'IncidentProcAlg1'
p278
(dp279
S'ExtraOutputs'
p280
S'[]'
p281
sS'NeededResources'
p282
S'[]'
p283
sS'ExtraInputs'
p284
S'[]'
p285
ssS'IncidentProcAlg2'
p286
(dp287
S'ExtraOutputs'
p288
S'[]'
p289
sS'NeededResources'
p290
S'[]'
p291
sS'ExtraInputs'
p292
S'[]'
p293
ssS'DetectorStore'
p294
(dp295
S'IncidentSvc'
p296
S'IncidentSvc'
p297
sS'ProxyProviderSvc'
p298
S'ProxyProviderSvc'
p299
ssS'ConditionStore'
p300
(dp301
S'IncidentSvc'
p302
S'IncidentSvc'
p303
sS'ProxyProviderSvc'
p304
S'ProxyProviderSvc'
p305
ssS'HistogramDataSvc'
p306
(dp307
S'Input'
p308
S'[]'
p309
sS'InhibitPathes'
p310
S'[]'
p311
ssS'HistoryStore'
p312
(dp313
S'IncidentSvc'
p314
S'IncidentSvc'
p315
sS'ProxyProviderSvc'
p316
S'ProxyProviderSvc'
p317
ss.ccollections
defaultdict
p1
(c__builtin__
dict
p2
tRp3
S'CoreDumpSvc'
p4
(dp5
S'Signals'
p6
S'[11, 7, 4, 8]'
p7
sS'FatalHandler'
p8
S'-1'
p9
ssS'AthenaHiveEventLoopMgr'
p10
(dp11
S'TopAlg'
p12
S'[]'
p13
sS'OutStream'
p14
S'[]'
p15
sS'EventStore'
p16
S'StoreGateSvc'
p17
sS'SchedulerSvc'
p18
S'AvalancheSchedulerSvc'
p19
sS'WhiteboardSvc'
p20
S'EventDataSvc'
p21
sS'PreSelectTools'
p22
S'[]'
p23
ssS'ApplicationMgr'
p24
(dp25
S'Runable'
p26
S'AppMgrRunable'
p27
sS'ReturnCode'
p28
S'0'
sS'TopAlg'
p29
S"['AthSequencer/AthMasterSeq']"
p30
sS'PrintAlgsSequence'
p31
S'False'
p32
sS'EventLoop'
p33
S'AthenaHiveEventLoopMgr'
p34
sS'ExtSvcCreates'
p35
g32
sS'Environment'
p36
S'{}'
p37
sS'JobOptionsPath'
p38
S''
sS'Dlls'
p39
S'[]'
p40
sS'SvcMapping'
p41
S"['EvtDataSvc/EventDataSvc', 'DetDataSvc/DetectorDataSvc', 'HistogramSvc/HistogramDataSvc', 'HbookCnv::PersSvc/HbookHistSvc', 'RootHistCnv::PersSvc/RootHistSvc', 'EvtPersistencySvc/EventPersistencySvc', 'DetPersistencySvc/DetectorPersistencySvc', 'HistogramPersistencySvc/HistogramPersistencySvc']"
p42
sS'AppName'
p43
S'ApplicationMgr'
p44
sS'AuditServices'
p45
g32
sS'OutStream'
p46
S'[]'
p47
sS'ActivateHistory'
p48
g32
sS'StalledEventMonitoring'
p49
g32
sS'InitializationLoopCheck'
p50
g32
sS'JobOptionsSvcType'
p51
S'JobOptionsSvc'
p52
sS'JobOptionsPreAction'
p53
S''
sS'StatusCodeCheck'
p54
g32
sS'AuditTools'
p55
g32
sS'AlgTypeAliases'
p56
S'{}'
p57
sS'EvtSel'
p58
S''
sS'PluginDebugLevel'
p59
S'0'
sS'OutputLevel'
p60
S'3'
sS'AppVersion'
p61
S''
sS'EvtMax'
p62
S'-1'
p63
sS'SvcOptMapping'
p64
S'[]'
p65
sS'CreateSvc'
p66
S"['ToolSvc/ToolSvc', 'AthDictLoaderSvc/AthDictLoaderSvc', 'CoreDumpSvc/CoreDumpSvc']"
p67
sS'PropertiesPrint'
p68
g32
sS'JobOptionsType'
p69
S'NONE'
p70
sS'OutStreamType'
p71
S'AthenaOutputStream'
p72
sS'StopOnSignal'
p73
g32
sS'ExtSvc'
p74
S"['ToolSvc/ToolSvc', 'AuditorSvc/AuditorSvc', 'MessageSvc/MessageSvc', 'IncidentSvc/IncidentSvc', 'EvtPersistencySvc/EventPersistencySvc', 'HistogramSvc/HistogramDataSvc', 'NTupleSvc/NTupleSvc', 'RndmGenSvc/RndmGenSvc', 'ChronoStatSvc/ChronoStatSvc', 'StoreGateSvc/StoreGateSvc', 'StoreGateSvc/DetectorStore', 'StoreGateSvc/HistoryStore', 'StoreGateSvc/ConditionStore', 'ClassIDSvc/ClassIDSvc', 'AthDictLoaderSvc/AthDictLoaderSvc', 'CoreDumpSvc/CoreDumpSvc', 'SG::HiveMgrSvc/EventDataSvc', 'AlgResourcePool/AlgResourcePool', 'AvalancheSchedulerSvc/AvalancheSchedulerSvc', 'AthenaHiveEventLoopMgr/AthenaHiveEventLoopMgr', 'TimelineSvc/TimelineSvc', 'JobOptionsSvc/JobOptionsSvc']"
p75
sS'AuditAlgorithms'
p76
S'True'
p77
sS'HistogramPersistency'
p78
S'NONE'
p79
sS'MessageSvcType'
p80
S'InertMessageSvc'
p81
sS'JobOptionsPostAction'
p82
S''
ssS'MessageSvc'
p83
(dp84
S'verboseColorCode'
p85
S'[]'
p86
sS'alwaysColorCode'
p87
S'[]'
p88
sS'setInfo'
p89
S'[]'
p90
sS'tracedInactiveSources'
p91
S'[]'
p92
sS'setAlways'
p93
S'[]'
p94
sS'Format'
p95
S'% F%40W%S%4W%R%e%s%8W%R%T %0W%M'
p96
sS'defaultLimit'
p97
S'0'
sS'enableSuppression'
p98
g77
sS'OutputLevel'
p99
S'3'
sS'warningColorCode'
p100
S"['yellow']"
p101
sS'errorColorCode'
p102
S"['white', 'red']"
p103
sS'setVerbose'
p104
S'[]'
p105
sS'debugColorCode'
p106
S'[]'
p107
sS'infoColorCode'
p108
S'[]'
p109
sS'setDebug'
p110
S'[]'
p111
sS'setFatal'
p112
S'[]'
p113
sS'setError'
p114
S'[]'
p115
sS'fatalColorCode'
p116
S"['blue', 'red']"
p117
sS'setWarning'
p118
S'[]'
p119
ss.(lp1
.