(dp0
S'inputFiles'
p1
(lp2
S'first#/castor/cern.ch/grid/atlas/atlasscratchdisk/data10_7TeV/RAW/other/data10_7TeV.00165591.calibration_IDTracks.daq.RAW/data10_7TeV.00165591.calibration_IDTracks.daq.RAW._lb0000._SFO-10._0001.data'
p3
asS'outputTFile'
p4
S'OutputTFileNumber0#/tmp/lacuesta/matrixTFile1.root'
p5
sS'inputAlignmentConstants'
p6
S'inputAlignmentConstants#'
p7
s.