(i__main__
LogFile
p0
(dp1
S'_installed_files'
p2
(dp3
S'../../../Event/xAOD/xAODAssociationsAthenaPool/x86_64-slc6-gcc47-opt/libxAODAssociationsAthenaPoolPoolCnv.so'
p4
S'../../../../InstallArea/x86_64-slc6-gcc47-opt/lib/libxAODAssociationsAthenaPoolPoolCnv.so'
p5
sS'../../../Event/xAOD/xAODAssociationsAthenaPool/x86_64-slc6-gcc47-opt/libxAODAssociationsAthenaPoolPoolCnv.so.debug'
p6
S'../../../../InstallArea/x86_64-slc6-gcc47-opt/lib/libxAODAssociationsAthenaPoolPoolCnv.so.debug'
p7
ssb.