(i__main__
LogFile
p0
(dp1
S'_installed_files'
p2
(dp3
S'../../../Event/xAOD/xAODHIEventShapeAthenaPool/x86_64-slc6-gcc47-opt/libxAODHIEventShapeAthenaPoolPoolCnv.so'
p4
S'../../../../InstallArea/x86_64-slc6-gcc47-opt/lib/libxAODHIEventShapeAthenaPoolPoolCnv.so'
p5
sS'../../../Event/xAOD/xAODHIEventShapeAthenaPool/x86_64-slc6-gcc47-opt/libxAODHIEventShapeAthenaPoolPoolCnv.so.debug'
p6
S'../../../../InstallArea/x86_64-slc6-gcc47-opt/lib/libxAODHIEventShapeAthenaPoolPoolCnv.so.debug'
p7
sS'../../../Event/xAOD/xAODHIEventAthenaPool/x86_64-slc6-gcc47-opt/libxAODHIEventAthenaPoolPoolCnv.so'
p8
S'../../../../InstallArea/x86_64-slc6-gcc47-opt/lib/libxAODHIEventAthenaPoolPoolCnv.so'
p9
sS'../../../Event/xAOD/xAODHIEventAthenaPool/x86_64-slc6-gcc47-opt/libxAODHIEventAthenaPoolPoolCnv.so.debug'
p10
S'../../../../InstallArea/x86_64-slc6-gcc47-opt/lib/libxAODHIEventAthenaPoolPoolCnv.so.debug'
p11
ssb.