(i__main__
LogFile
p0
(dp1
S'_installed_files'
p2
(dp3
S'../../../MuonSoftware/MuonCleanUpSummer2015/MuonNewEDM/x86_64-slc6-gcc48-opt/libMuonNewEDM.so.debug'
p4
S'../../../../InstallArea/x86_64-slc6-gcc48-opt/lib/libMuonNewEDM.so.debug'
p5
sS'../../../MuonSoftware/MuonCleanUpSummer2015/MuonNewEDM/x86_64-slc6-gcc48-opt/libMuonNewEDM.so'
p6
S'../../../../InstallArea/x86_64-slc6-gcc48-opt/lib/libMuonNewEDM.so'
p7
sS'../../../MuonSpectrometer/MuonReconstruction/MuonRecEvent/MuonLayerEvent/x86_64-slc6-gcc48-opt/libMuonLayerEvent.so'
p8
S'../../../../../InstallArea/x86_64-slc6-gcc48-opt/lib/libMuonLayerEvent.so'
p9
sS'../../../MuonSpectrometer/MuonReconstruction/MuonRecEvent/MuonLayerEvent/x86_64-slc6-gcc48-opt/libMuonLayerEvent.so.debug'
p10
S'../../../../../InstallArea/x86_64-slc6-gcc48-opt/lib/libMuonLayerEvent.so.debug'
p11
ssb.