(i__main__
LogFile
p0
(dp1
S'_installed_files'
p2
(dp3
S'../../../../../atlas/15.3.0/GAUDI/v20r4p3/GaudiPolicy/cmt/fragments/__init__.py'
p4
S'../../../../InstallArea/python/ALFA_Digitization/__init__.py'
p5
sS'../../ForwardDetectors/ALFA/ALFA_Digitization/genConf/ALFA_Digitization'
p6
(dp7
S'../../../ForwardDetectors/ALFA/ALFA_Digitization/genConf/ALFA_Digitization/ALFA_DigitizationConf.py'
p8
S'../../../../InstallArea/python/ALFA_Digitization/ALFA_DigitizationConf.py'
p9
sS'../../../ForwardDetectors/ALFA/ALFA_Digitization/genConf/ALFA_Digitization/ALFA_Digitization_confDb.py'
p10
S'../../../../InstallArea/python/ALFA_Digitization/ALFA_Digitization_confDb.py'
p11
ssS'../../../ForwardDetectors/ALFA/ALFA_Digitization/i686-slc4-gcc34-opt/libALFA_Digitization.so'
p12
S'../../../../InstallArea/i686-slc4-gcc34-opt/lib/libALFA_Digitization.so'
p13
ssb.