(i__main__
LogFile
p0
(dp1
S'_installed_files'
p2
(dp3
S'../../../ForwardDetectors/FPTracker/i686-slc5-gcc43-opt/fpTrackerMain.exe'
p4
S'../../../InstallArea/i686-slc5-gcc43-opt/bin/fpTrackerMain.exe'
p5
sS'../../../ForwardDetectors/FPTracker/i686-slc4-gcc34-dbg/fpTrackerMain.exe'
p6
S'../../../InstallArea/i686-slc4-gcc34-dbg/bin/fpTrackerMain.exe'
p7
sS'../../../ForwardDetectors/FPTracker/i686-slc5-gcc43-opt/libFPTracker.so'
p8
S'../../../InstallArea/i686-slc5-gcc43-opt/lib/libFPTracker.so'
p9
sS'../../../16.3.0/ForwardDetectors/FPTracker/i686-slc5-gcc43-opt/libFPTracker.so'
p10
S'../../../../InstallArea/i686-slc5-gcc43-opt/lib/libFPTracker.so'
p11
sS'../../../ForwardDetectors/FPTracker/i686-slc4-gcc34-dbg/libFPTracker.so'
p12
S'../../../InstallArea/i686-slc4-gcc34-dbg/lib/libFPTracker.so'
p13
sS'../../../FPTracker/i686-slc4-gcc34-dbg/libFPTracker.so'
p14
S'../../InstallArea/i686-slc4-gcc34-dbg/lib/libFPTracker.so'
p15
sS'../../../ForwardDetectors/FPTracker/i686-slc4-gcc34-opt/fpTrackerMain.exe'
p16
S'../../../InstallArea/i686-slc4-gcc34-opt/bin/fpTrackerMain.exe'
p17
sS'../../../16.3.0/ForwardDetectors/FPTracker/i686-slc5-gcc43-opt/fpTrackerMain.exe'
p18
S'../../../../InstallArea/i686-slc5-gcc43-opt/bin/fpTrackerMain.exe'
p19
sS'../../../ForwardDetectors/FPTracker/NotSupported/libFPTracker.so'
p20
S'../../../InstallArea/NotSupported/lib/libFPTracker.so'
p21
sS'../../../ForwardDetectors/FPTracker/i686-slc4-gcc34-opt/libFPTracker.so'
p22
S'../../../InstallArea/i686-slc4-gcc34-opt/lib/libFPTracker.so'
p23
sS'../../../FPTracker/i686-slc4-gcc34-dbg/fpTrackerMain.exe'
p24
S'../../InstallArea/i686-slc4-gcc34-dbg/bin/fpTrackerMain.exe'
p25
ssb.