(i__main__
LogFile
p0
(dp1
S'_installed_files'
p2
(dp3
S'../../../InnerDetector/InDetRecEvent/InDetLowBetaInfo/i686-slc5-gcc43-opt/libInDetLowBetaInfo.so'
p4
S'../../../../InstallArea/i686-slc5-gcc43-opt/lib/libInDetLowBetaInfo.so'
p5
sS'../../../InnerDetector/InDetRecEvent/InDetLowBetaInfo/i686-slc4-gcc34-opt/libInDetLowBetaInfo.so'
p6
S'../../../../InstallArea/i686-slc4-gcc34-opt/lib/libInDetLowBetaInfo.so'
p7
sS'../../../InnerDetector/InDetRecEvent/InDetLowBetaInfo/i686-slc5-gcc43-opt/libInDetLowBetaInfoDict.so'
p8
S'../../../../InstallArea/i686-slc5-gcc43-opt/lib/libInDetLowBetaInfoDict.so'
p9
sS'../../../InnerDetector/InDetRecEvent/InDetLowBetaInfo/i686-slc4-gcc34-opt/libInDetLowBetaInfoDict.so'
p10
S'../../../../InstallArea/i686-slc4-gcc34-opt/lib/libInDetLowBetaInfoDict.so'
p11
ssb.